
a.out:     file format elf32-littleriscv


Disassembly of section .text:

00010000 <_ftext>:
   10000:	00005197          	auipc	gp,0x5
   10004:	91018193          	addi	gp,gp,-1776 # 14910 <_gp>
   10008:	00004297          	auipc	t0,0x4
   1000c:	12028293          	addi	t0,t0,288 # 14128 <__malloc_max_total_mem>
   10010:	00004317          	auipc	t1,0x4
   10014:	18030313          	addi	t1,t1,384 # 14190 <_end>
   10018:	0002a023          	sw	zero,0(t0)
   1001c:	00428293          	addi	t0,t0,4
   10020:	fe62ece3          	bltu	t0,t1,10018 <_ftext+0x18>
   10024:	00000517          	auipc	a0,0x0
   10028:	23450513          	addi	a0,a0,564 # 10258 <__libc_fini_array>
   1002c:	148000ef          	jal	10174 <atexit>
   10030:	188000ef          	jal	101b8 <__libc_init_array>
   10034:	00012503          	lw	a0,0(sp)
   10038:	00410593          	addi	a1,sp,4
   1003c:	00000613          	li	a2,0
   10040:	100000ef          	jal	10140 <main>
   10044:	1440006f          	j	10188 <exit>

00010048 <_fini>:
   10048:	00008067          	ret

0001004c <deregister_tm_clones>:
   1004c:	80018713          	addi	a4,gp,-2048 # 14110 <_edata>
   10050:	80318793          	addi	a5,gp,-2045 # 14113 <_edata+0x3>
   10054:	40e787b3          	sub	a5,a5,a4
   10058:	00600713          	li	a4,6
   1005c:	00f77c63          	bleu	a5,a4,10074 <deregister_tm_clones+0x28>
   10060:	00000293          	li	t0,0
   10064:	00028863          	beqz	t0,10074 <deregister_tm_clones+0x28>
   10068:	80018513          	addi	a0,gp,-2048 # 14110 <_edata>
   1006c:	00028313          	mv	t1,t0
   10070:	00030067          	jr	t1
   10074:	00008067          	ret

00010078 <register_tm_clones>:
   10078:	80018593          	addi	a1,gp,-2048 # 14110 <_edata>
   1007c:	80018793          	addi	a5,gp,-2048 # 14110 <_edata>
   10080:	40b787b3          	sub	a5,a5,a1
   10084:	4027d793          	srai	a5,a5,0x2
   10088:	01f7d593          	srli	a1,a5,0x1f
   1008c:	00f585b3          	add	a1,a1,a5
   10090:	4015d593          	srai	a1,a1,0x1
   10094:	00058c63          	beqz	a1,100ac <register_tm_clones+0x34>
   10098:	00000293          	li	t0,0
   1009c:	00028863          	beqz	t0,100ac <register_tm_clones+0x34>
   100a0:	80018513          	addi	a0,gp,-2048 # 14110 <_edata>
   100a4:	00028313          	mv	t1,t0
   100a8:	00030067          	jr	t1
   100ac:	00008067          	ret

000100b0 <__do_global_dtors_aux>:
   100b0:	ff010113          	addi	sp,sp,-16
   100b4:	00812423          	sw	s0,8(sp)
   100b8:	8281c783          	lbu	a5,-2008(gp) # 14138 <_bss_start>
   100bc:	00112623          	sw	ra,12(sp)
   100c0:	02079263          	bnez	a5,100e4 <__do_global_dtors_aux+0x34>
   100c4:	f89ff0ef          	jal	1004c <deregister_tm_clones>
   100c8:	00000793          	li	a5,0
   100cc:	00078863          	beqz	a5,100dc <__do_global_dtors_aux+0x2c>
   100d0:	00013537          	lui	a0,0x13
   100d4:	05850513          	addi	a0,a0,88 # 13058 <__fini_array_end>
   100d8:	f29ef0ef          	jal	0 <_ftext-0x10000>
   100dc:	00100793          	li	a5,1
   100e0:	82f18423          	sb	a5,-2008(gp) # 14138 <_bss_start>
   100e4:	00c12083          	lw	ra,12(sp)
   100e8:	00812403          	lw	s0,8(sp)
   100ec:	01010113          	addi	sp,sp,16
   100f0:	00008067          	ret

000100f4 <frame_dummy>:
   100f4:	ff010113          	addi	sp,sp,-16
   100f8:	00000793          	li	a5,0
   100fc:	00112623          	sw	ra,12(sp)
   10100:	00078a63          	beqz	a5,10114 <frame_dummy+0x20>
   10104:	00013537          	lui	a0,0x13
   10108:	82c18593          	addi	a1,gp,-2004 # 1413c <object.3086>
   1010c:	05850513          	addi	a0,a0,88 # 13058 <__fini_array_end>
   10110:	ef1ef0ef          	jal	0 <_ftext-0x10000>
   10114:	00014537          	lui	a0,0x14
   10118:	8d450513          	addi	a0,a0,-1836 # 138d4 <__JCR_END__>
   1011c:	00052783          	lw	a5,0(a0)
   10120:	00079863          	bnez	a5,10130 <frame_dummy+0x3c>
   10124:	00c12083          	lw	ra,12(sp)
   10128:	01010113          	addi	sp,sp,16
   1012c:	f4dff06f          	j	10078 <register_tm_clones>
   10130:	00000793          	li	a5,0
   10134:	fe0788e3          	beqz	a5,10124 <frame_dummy+0x30>
   10138:	000780e7          	jalr	a5
   1013c:	fe9ff06f          	j	10124 <frame_dummy+0x30>

00010140 <main>:
   10140:	ff010113          	addi	sp,sp,-16
   10144:	00112623          	sw	ra,12(sp)
   10148:	00812423          	sw	s0,8(sp)
   1014c:	01010413          	addi	s0,sp,16
   10150:	000137b7          	lui	a5,0x13
   10154:	04078513          	addi	a0,a5,64 # 13040 <__errno+0x8>
   10158:	218000ef          	jal	10370 <puts>
   1015c:	00000793          	li	a5,0
   10160:	00078513          	mv	a0,a5
   10164:	00c12083          	lw	ra,12(sp)
   10168:	00812403          	lw	s0,8(sp)
   1016c:	01010113          	addi	sp,sp,16
   10170:	00008067          	ret

00010174 <atexit>:
   10174:	00050593          	mv	a1,a0
   10178:	00000693          	li	a3,0
   1017c:	00000613          	li	a2,0
   10180:	00000513          	li	a0,0
   10184:	2880006f          	j	1040c <__register_exitproc>

00010188 <exit>:
   10188:	ff010113          	addi	sp,sp,-16
   1018c:	00000593          	li	a1,0
   10190:	00812423          	sw	s0,8(sp)
   10194:	00112623          	sw	ra,12(sp)
   10198:	00050413          	mv	s0,a0
   1019c:	364000ef          	jal	10500 <__call_exitprocs>
   101a0:	8041a503          	lw	a0,-2044(gp) # 14114 <_global_impure_ptr>
   101a4:	03c52783          	lw	a5,60(a0)
   101a8:	00078463          	beqz	a5,101b0 <exit+0x28>
   101ac:	000780e7          	jalr	a5
   101b0:	00040513          	mv	a0,s0
   101b4:	669020ef          	jal	1301c <_exit>

000101b8 <__libc_init_array>:
   101b8:	ff010113          	addi	sp,sp,-16
   101bc:	00812423          	sw	s0,8(sp)
   101c0:	000137b7          	lui	a5,0x13
   101c4:	00013437          	lui	s0,0x13
   101c8:	01212023          	sw	s2,0(sp)
   101cc:	05078793          	addi	a5,a5,80 # 13050 <_etext>
   101d0:	05040913          	addi	s2,s0,80 # 13050 <_etext>
   101d4:	41278933          	sub	s2,a5,s2
   101d8:	40295913          	srai	s2,s2,0x2
   101dc:	00912223          	sw	s1,4(sp)
   101e0:	00112623          	sw	ra,12(sp)
   101e4:	05040413          	addi	s0,s0,80
   101e8:	00000493          	li	s1,0
   101ec:	00090c63          	beqz	s2,10204 <__libc_init_array+0x4c>
   101f0:	00042783          	lw	a5,0(s0)
   101f4:	00148493          	addi	s1,s1,1
   101f8:	00440413          	addi	s0,s0,4
   101fc:	000780e7          	jalr	a5
   10200:	fe9918e3          	bne	s2,s1,101f0 <__libc_init_array+0x38>
   10204:	00013437          	lui	s0,0x13
   10208:	e41ff0ef          	jal	10048 <_fini>
   1020c:	000137b7          	lui	a5,0x13
   10210:	05040913          	addi	s2,s0,80 # 13050 <_etext>
   10214:	05478793          	addi	a5,a5,84 # 13054 <__init_array_end>
   10218:	41278933          	sub	s2,a5,s2
   1021c:	40295913          	srai	s2,s2,0x2
   10220:	05040413          	addi	s0,s0,80
   10224:	00000493          	li	s1,0
   10228:	00090c63          	beqz	s2,10240 <__libc_init_array+0x88>
   1022c:	00042783          	lw	a5,0(s0)
   10230:	00148493          	addi	s1,s1,1
   10234:	00440413          	addi	s0,s0,4
   10238:	000780e7          	jalr	a5
   1023c:	fe9918e3          	bne	s2,s1,1022c <__libc_init_array+0x74>
   10240:	00c12083          	lw	ra,12(sp)
   10244:	00812403          	lw	s0,8(sp)
   10248:	00412483          	lw	s1,4(sp)
   1024c:	00012903          	lw	s2,0(sp)
   10250:	01010113          	addi	sp,sp,16
   10254:	00008067          	ret

00010258 <__libc_fini_array>:
   10258:	ff010113          	addi	sp,sp,-16
   1025c:	00812423          	sw	s0,8(sp)
   10260:	00912223          	sw	s1,4(sp)
   10264:	00013437          	lui	s0,0x13
   10268:	000134b7          	lui	s1,0x13
   1026c:	05448493          	addi	s1,s1,84 # 13054 <__init_array_end>
   10270:	05840413          	addi	s0,s0,88 # 13058 <__fini_array_end>
   10274:	40940433          	sub	s0,s0,s1
   10278:	40245413          	srai	s0,s0,0x2
   1027c:	00241793          	slli	a5,s0,0x2
   10280:	ffc78793          	addi	a5,a5,-4
   10284:	00112623          	sw	ra,12(sp)
   10288:	009784b3          	add	s1,a5,s1
   1028c:	00040c63          	beqz	s0,102a4 <__libc_fini_array+0x4c>
   10290:	0004a783          	lw	a5,0(s1)
   10294:	fff40413          	addi	s0,s0,-1
   10298:	ffc48493          	addi	s1,s1,-4
   1029c:	000780e7          	jalr	a5
   102a0:	fe0418e3          	bnez	s0,10290 <__libc_fini_array+0x38>
   102a4:	00c12083          	lw	ra,12(sp)
   102a8:	00812403          	lw	s0,8(sp)
   102ac:	00412483          	lw	s1,4(sp)
   102b0:	01010113          	addi	sp,sp,16
   102b4:	d95ff06f          	j	10048 <_fini>

000102b8 <_puts_r>:
   102b8:	fd010113          	addi	sp,sp,-48
   102bc:	02812423          	sw	s0,40(sp)
   102c0:	00050413          	mv	s0,a0
   102c4:	00058513          	mv	a0,a1
   102c8:	02912223          	sw	s1,36(sp)
   102cc:	02112623          	sw	ra,44(sp)
   102d0:	00058493          	mv	s1,a1
   102d4:	0a8000ef          	jal	1037c <strlen>
   102d8:	8081a783          	lw	a5,-2040(gp) # 14118 <_impure_ptr>
   102dc:	00150613          	addi	a2,a0,1
   102e0:	00912823          	sw	s1,16(sp)
   102e4:	0087a703          	lw	a4,8(a5)
   102e8:	000137b7          	lui	a5,0x13
   102ec:	04c78793          	addi	a5,a5,76 # 1304c <__errno+0x14>
   102f0:	00c71683          	lh	a3,12(a4)
   102f4:	00f12c23          	sw	a5,24(sp)
   102f8:	00100793          	li	a5,1
   102fc:	00f12e23          	sw	a5,28(sp)
   10300:	01010793          	addi	a5,sp,16
   10304:	00f12223          	sw	a5,4(sp)
   10308:	00200793          	li	a5,2
   1030c:	00f12423          	sw	a5,8(sp)
   10310:	01269793          	slli	a5,a3,0x12
   10314:	00a12a23          	sw	a0,20(sp)
   10318:	00c12623          	sw	a2,12(sp)
   1031c:	0207c263          	bltz	a5,10340 <_puts_r+0x88>
   10320:	06472583          	lw	a1,100(a4)
   10324:	ffffe7b7          	lui	a5,0xffffe
   10328:	00002637          	lui	a2,0x2
   1032c:	fff78793          	addi	a5,a5,-1 # ffffdfff <_gp+0xfffe96ef>
   10330:	00c6e6b3          	or	a3,a3,a2
   10334:	00f5f7b3          	and	a5,a1,a5
   10338:	00d71623          	sh	a3,12(a4)
   1033c:	06f72223          	sw	a5,100(a4)
   10340:	00842583          	lw	a1,8(s0)
   10344:	00410613          	addi	a2,sp,4
   10348:	00040513          	mv	a0,s0
   1034c:	334000ef          	jal	10680 <__sfvwrite_r>
   10350:	02c12083          	lw	ra,44(sp)
   10354:	00a03533          	snez	a0,a0
   10358:	40a00533          	neg	a0,a0
   1035c:	00a56513          	ori	a0,a0,10
   10360:	02812403          	lw	s0,40(sp)
   10364:	02412483          	lw	s1,36(sp)
   10368:	03010113          	addi	sp,sp,48
   1036c:	00008067          	ret

00010370 <puts>:
   10370:	00050593          	mv	a1,a0
   10374:	8081a503          	lw	a0,-2040(gp) # 14118 <_impure_ptr>
   10378:	f41ff06f          	j	102b8 <_puts_r>

0001037c <strlen>:
   1037c:	00357793          	andi	a5,a0,3
   10380:	00050593          	mv	a1,a0
   10384:	04079a63          	bnez	a5,103d8 <strlen+0x5c>
   10388:	7f7f86b7          	lui	a3,0x7f7f8
   1038c:	f7f68693          	addi	a3,a3,-129 # 7f7f7f7f <_gp+0x7f7e366f>
   10390:	fff00613          	li	a2,-1
   10394:	00450513          	addi	a0,a0,4
   10398:	ffc52783          	lw	a5,-4(a0)
   1039c:	00d7f733          	and	a4,a5,a3
   103a0:	00d70733          	add	a4,a4,a3
   103a4:	00d7e7b3          	or	a5,a5,a3
   103a8:	00f767b3          	or	a5,a4,a5
   103ac:	fec784e3          	beq	a5,a2,10394 <strlen+0x18>
   103b0:	ffc54703          	lbu	a4,-4(a0)
   103b4:	40b507b3          	sub	a5,a0,a1
   103b8:	ffd54683          	lbu	a3,-3(a0)
   103bc:	ffe54603          	lbu	a2,-2(a0)
   103c0:	02070e63          	beqz	a4,103fc <strlen+0x80>
   103c4:	02068863          	beqz	a3,103f4 <strlen+0x78>
   103c8:	fff78513          	addi	a0,a5,-1
   103cc:	02060c63          	beqz	a2,10404 <strlen+0x88>
   103d0:	00008067          	ret
   103d4:	fa070ae3          	beqz	a4,10388 <strlen+0xc>
   103d8:	00054783          	lbu	a5,0(a0)
   103dc:	00150513          	addi	a0,a0,1
   103e0:	00357713          	andi	a4,a0,3
   103e4:	fe0798e3          	bnez	a5,103d4 <strlen+0x58>
   103e8:	40b50533          	sub	a0,a0,a1
   103ec:	fff50513          	addi	a0,a0,-1
   103f0:	00008067          	ret
   103f4:	ffd78513          	addi	a0,a5,-3
   103f8:	00008067          	ret
   103fc:	ffc78513          	addi	a0,a5,-4
   10400:	00008067          	ret
   10404:	ffe78513          	addi	a0,a5,-2
   10408:	00008067          	ret

0001040c <__register_exitproc>:
   1040c:	fe010113          	addi	sp,sp,-32
   10410:	00812c23          	sw	s0,24(sp)
   10414:	8041a403          	lw	s0,-2044(gp) # 14114 <_global_impure_ptr>
   10418:	00912a23          	sw	s1,20(sp)
   1041c:	00050493          	mv	s1,a0
   10420:	14842503          	lw	a0,328(s0)
   10424:	00112e23          	sw	ra,28(sp)
   10428:	0c050263          	beqz	a0,104ec <__register_exitproc+0xe0>
   1042c:	00452783          	lw	a5,4(a0)
   10430:	01f00713          	li	a4,31
   10434:	00178813          	addi	a6,a5,1
   10438:	04f75863          	ble	a5,a4,10488 <__register_exitproc+0x7c>
   1043c:	00000793          	li	a5,0
   10440:	0a078c63          	beqz	a5,104f8 <__register_exitproc+0xec>
   10444:	19000513          	li	a0,400
   10448:	00b12623          	sw	a1,12(sp)
   1044c:	00c12423          	sw	a2,8(sp)
   10450:	00d12223          	sw	a3,4(sp)
   10454:	badef0ef          	jal	0 <_ftext-0x10000>
   10458:	00c12583          	lw	a1,12(sp)
   1045c:	00812603          	lw	a2,8(sp)
   10460:	00412683          	lw	a3,4(sp)
   10464:	08050a63          	beqz	a0,104f8 <__register_exitproc+0xec>
   10468:	14842783          	lw	a5,328(s0)
   1046c:	00100813          	li	a6,1
   10470:	00052223          	sw	zero,4(a0)
   10474:	00f52023          	sw	a5,0(a0)
   10478:	14a42423          	sw	a0,328(s0)
   1047c:	00000793          	li	a5,0
   10480:	18052423          	sw	zero,392(a0)
   10484:	18052623          	sw	zero,396(a0)
   10488:	00279713          	slli	a4,a5,0x2
   1048c:	02049463          	bnez	s1,104b4 <__register_exitproc+0xa8>
   10490:	00e50733          	add	a4,a0,a4
   10494:	01052223          	sw	a6,4(a0)
   10498:	00000513          	li	a0,0
   1049c:	00b72423          	sw	a1,8(a4)
   104a0:	01c12083          	lw	ra,28(sp)
   104a4:	01812403          	lw	s0,24(sp)
   104a8:	01412483          	lw	s1,20(sp)
   104ac:	02010113          	addi	sp,sp,32
   104b0:	00008067          	ret
   104b4:	00e502b3          	add	t0,a0,a4
   104b8:	08c2a423          	sw	a2,136(t0)
   104bc:	18852883          	lw	a7,392(a0)
   104c0:	00100613          	li	a2,1
   104c4:	00f617b3          	sll	a5,a2,a5
   104c8:	00f8e633          	or	a2,a7,a5
   104cc:	18c52423          	sw	a2,392(a0)
   104d0:	10d2a423          	sw	a3,264(t0)
   104d4:	00200693          	li	a3,2
   104d8:	fad49ce3          	bne	s1,a3,10490 <__register_exitproc+0x84>
   104dc:	18c52683          	lw	a3,396(a0)
   104e0:	00f6e7b3          	or	a5,a3,a5
   104e4:	18f52623          	sw	a5,396(a0)
   104e8:	fa9ff06f          	j	10490 <__register_exitproc+0x84>
   104ec:	14c40513          	addi	a0,s0,332
   104f0:	14a42423          	sw	a0,328(s0)
   104f4:	f39ff06f          	j	1042c <__register_exitproc+0x20>
   104f8:	fff00513          	li	a0,-1
   104fc:	fa5ff06f          	j	104a0 <__register_exitproc+0x94>

00010500 <__call_exitprocs>:
   10500:	fc010113          	addi	sp,sp,-64
   10504:	01712e23          	sw	s7,28(sp)
   10508:	8041ab83          	lw	s7,-2044(gp) # 14114 <_global_impure_ptr>
   1050c:	03612023          	sw	s6,32(sp)
   10510:	03212823          	sw	s2,48(sp)
   10514:	03412423          	sw	s4,40(sp)
   10518:	03512223          	sw	s5,36(sp)
   1051c:	01812c23          	sw	s8,24(sp)
   10520:	01912a23          	sw	s9,20(sp)
   10524:	02112e23          	sw	ra,60(sp)
   10528:	02812c23          	sw	s0,56(sp)
   1052c:	02912a23          	sw	s1,52(sp)
   10530:	03312623          	sw	s3,44(sp)
   10534:	01a12823          	sw	s10,16(sp)
   10538:	01b12623          	sw	s11,12(sp)
   1053c:	00050a93          	mv	s5,a0
   10540:	00058913          	mv	s2,a1
   10544:	148b8c13          	addi	s8,s7,328
   10548:	00100a13          	li	s4,1
   1054c:	fff00c93          	li	s9,-1
   10550:	00000b13          	li	s6,0
   10554:	148ba983          	lw	s3,328(s7)
   10558:	04098e63          	beqz	s3,105b4 <__call_exitprocs+0xb4>
   1055c:	000c0d93          	mv	s11,s8
   10560:	0049a403          	lw	s0,4(s3)
   10564:	00241493          	slli	s1,s0,0x2
   10568:	fff40413          	addi	s0,s0,-1
   1056c:	009984b3          	add	s1,s3,s1
   10570:	00044e63          	bltz	s0,1058c <__call_exitprocs+0x8c>
   10574:	06090e63          	beqz	s2,105f0 <__call_exitprocs+0xf0>
   10578:	1044a783          	lw	a5,260(s1)
   1057c:	06f90a63          	beq	s2,a5,105f0 <__call_exitprocs+0xf0>
   10580:	fff40413          	addi	s0,s0,-1
   10584:	ffc48493          	addi	s1,s1,-4
   10588:	ff9416e3          	bne	s0,s9,10574 <__call_exitprocs+0x74>
   1058c:	020b0463          	beqz	s6,105b4 <__call_exitprocs+0xb4>
   10590:	0049a783          	lw	a5,4(s3)
   10594:	0c079863          	bnez	a5,10664 <__call_exitprocs+0x164>
   10598:	0009a783          	lw	a5,0(s3)
   1059c:	0c078e63          	beqz	a5,10678 <__call_exitprocs+0x178>
   105a0:	00098513          	mv	a0,s3
   105a4:	00fda023          	sw	a5,0(s11)
   105a8:	a59ef0ef          	jal	0 <_ftext-0x10000>
   105ac:	000da983          	lw	s3,0(s11)
   105b0:	fa0998e3          	bnez	s3,10560 <__call_exitprocs+0x60>
   105b4:	03c12083          	lw	ra,60(sp)
   105b8:	03812403          	lw	s0,56(sp)
   105bc:	03412483          	lw	s1,52(sp)
   105c0:	03012903          	lw	s2,48(sp)
   105c4:	02c12983          	lw	s3,44(sp)
   105c8:	02812a03          	lw	s4,40(sp)
   105cc:	02412a83          	lw	s5,36(sp)
   105d0:	02012b03          	lw	s6,32(sp)
   105d4:	01c12b83          	lw	s7,28(sp)
   105d8:	01812c03          	lw	s8,24(sp)
   105dc:	01412c83          	lw	s9,20(sp)
   105e0:	01012d03          	lw	s10,16(sp)
   105e4:	00c12d83          	lw	s11,12(sp)
   105e8:	04010113          	addi	sp,sp,64
   105ec:	00008067          	ret
   105f0:	0049a783          	lw	a5,4(s3)
   105f4:	0044a703          	lw	a4,4(s1)
   105f8:	fff78793          	addi	a5,a5,-1
   105fc:	04878a63          	beq	a5,s0,10650 <__call_exitprocs+0x150>
   10600:	0004a223          	sw	zero,4(s1)
   10604:	f6070ee3          	beqz	a4,10580 <__call_exitprocs+0x80>
   10608:	1889a783          	lw	a5,392(s3)
   1060c:	008a16b3          	sll	a3,s4,s0
   10610:	0049ad03          	lw	s10,4(s3)
   10614:	00f6f7b3          	and	a5,a3,a5
   10618:	02078863          	beqz	a5,10648 <__call_exitprocs+0x148>
   1061c:	18c9a783          	lw	a5,396(s3)
   10620:	00f6f6b3          	and	a3,a3,a5
   10624:	02069a63          	bnez	a3,10658 <__call_exitprocs+0x158>
   10628:	0844a583          	lw	a1,132(s1)
   1062c:	000a8513          	mv	a0,s5
   10630:	000700e7          	jalr	a4
   10634:	0049a783          	lw	a5,4(s3)
   10638:	f1a79ee3          	bne	a5,s10,10554 <__call_exitprocs+0x54>
   1063c:	000da783          	lw	a5,0(s11)
   10640:	f53780e3          	beq	a5,s3,10580 <__call_exitprocs+0x80>
   10644:	f11ff06f          	j	10554 <__call_exitprocs+0x54>
   10648:	000700e7          	jalr	a4
   1064c:	fe9ff06f          	j	10634 <__call_exitprocs+0x134>
   10650:	0089a223          	sw	s0,4(s3)
   10654:	fb1ff06f          	j	10604 <__call_exitprocs+0x104>
   10658:	0844a503          	lw	a0,132(s1)
   1065c:	000700e7          	jalr	a4
   10660:	fd5ff06f          	j	10634 <__call_exitprocs+0x134>
   10664:	0009a783          	lw	a5,0(s3)
   10668:	00098d93          	mv	s11,s3
   1066c:	00078993          	mv	s3,a5
   10670:	ee0998e3          	bnez	s3,10560 <__call_exitprocs+0x60>
   10674:	f41ff06f          	j	105b4 <__call_exitprocs+0xb4>
   10678:	00000793          	li	a5,0
   1067c:	fedff06f          	j	10668 <__call_exitprocs+0x168>

00010680 <__sfvwrite_r>:
   10680:	00862783          	lw	a5,8(a2) # 2008 <_ftext-0xdff8>
   10684:	1a078863          	beqz	a5,10834 <__sfvwrite_r+0x1b4>
   10688:	00c5d703          	lhu	a4,12(a1)
   1068c:	fd010113          	addi	sp,sp,-48
   10690:	02812423          	sw	s0,40(sp)
   10694:	00877793          	andi	a5,a4,8
   10698:	01312e23          	sw	s3,28(sp)
   1069c:	01612823          	sw	s6,16(sp)
   106a0:	02112623          	sw	ra,44(sp)
   106a4:	02912223          	sw	s1,36(sp)
   106a8:	03212023          	sw	s2,32(sp)
   106ac:	01412c23          	sw	s4,24(sp)
   106b0:	01512a23          	sw	s5,20(sp)
   106b4:	01712623          	sw	s7,12(sp)
   106b8:	01812423          	sw	s8,8(sp)
   106bc:	01912223          	sw	s9,4(sp)
   106c0:	01a12023          	sw	s10,0(sp)
   106c4:	00058413          	mv	s0,a1
   106c8:	00050b13          	mv	s6,a0
   106cc:	00060993          	mv	s3,a2
   106d0:	0a078063          	beqz	a5,10770 <__sfvwrite_r+0xf0>
   106d4:	0105a783          	lw	a5,16(a1)
   106d8:	08078c63          	beqz	a5,10770 <__sfvwrite_r+0xf0>
   106dc:	00277793          	andi	a5,a4,2
   106e0:	0009a483          	lw	s1,0(s3)
   106e4:	0a078663          	beqz	a5,10790 <__sfvwrite_r+0x110>
   106e8:	00000a13          	li	s4,0
   106ec:	00000913          	li	s2,0
   106f0:	40000a93          	li	s5,1024
   106f4:	000a0613          	mv	a2,s4
   106f8:	000b0513          	mv	a0,s6
   106fc:	12090463          	beqz	s2,10824 <__sfvwrite_r+0x1a4>
   10700:	00090693          	mv	a3,s2
   10704:	012af463          	bleu	s2,s5,1070c <__sfvwrite_r+0x8c>
   10708:	40000693          	li	a3,1024
   1070c:	02442783          	lw	a5,36(s0)
   10710:	01c42583          	lw	a1,28(s0)
   10714:	000780e7          	jalr	a5
   10718:	14a05463          	blez	a0,10860 <__sfvwrite_r+0x1e0>
   1071c:	0089a783          	lw	a5,8(s3)
   10720:	00aa0a33          	add	s4,s4,a0
   10724:	40a90933          	sub	s2,s2,a0
   10728:	40a78533          	sub	a0,a5,a0
   1072c:	00a9a423          	sw	a0,8(s3)
   10730:	fc0512e3          	bnez	a0,106f4 <__sfvwrite_r+0x74>
   10734:	00000513          	li	a0,0
   10738:	02c12083          	lw	ra,44(sp)
   1073c:	02812403          	lw	s0,40(sp)
   10740:	02412483          	lw	s1,36(sp)
   10744:	02012903          	lw	s2,32(sp)
   10748:	01c12983          	lw	s3,28(sp)
   1074c:	01812a03          	lw	s4,24(sp)
   10750:	01412a83          	lw	s5,20(sp)
   10754:	01012b03          	lw	s6,16(sp)
   10758:	00c12b83          	lw	s7,12(sp)
   1075c:	00812c03          	lw	s8,8(sp)
   10760:	00412c83          	lw	s9,4(sp)
   10764:	00012d03          	lw	s10,0(sp)
   10768:	03010113          	addi	sp,sp,48
   1076c:	00008067          	ret
   10770:	00040593          	mv	a1,s0
   10774:	000b0513          	mv	a0,s6
   10778:	388010ef          	jal	11b00 <__swsetup_r>
   1077c:	38051263          	bnez	a0,10b00 <__sfvwrite_r+0x480>
   10780:	00c45703          	lhu	a4,12(s0)
   10784:	0009a483          	lw	s1,0(s3)
   10788:	00277793          	andi	a5,a4,2
   1078c:	f4079ee3          	bnez	a5,106e8 <__sfvwrite_r+0x68>
   10790:	00177793          	andi	a5,a4,1
   10794:	0e079063          	bnez	a5,10874 <__sfvwrite_r+0x1f4>
   10798:	00000a93          	li	s5,0
   1079c:	00000913          	li	s2,0
   107a0:	06090a63          	beqz	s2,10814 <__sfvwrite_r+0x194>
   107a4:	20077793          	andi	a5,a4,512
   107a8:	00842a03          	lw	s4,8(s0)
   107ac:	1a078863          	beqz	a5,1095c <__sfvwrite_r+0x2dc>
   107b0:	000a0b93          	mv	s7,s4
   107b4:	21496663          	bltu	s2,s4,109c0 <__sfvwrite_r+0x340>
   107b8:	48077793          	andi	a5,a4,1152
   107bc:	26079663          	bnez	a5,10a28 <__sfvwrite_r+0x3a8>
   107c0:	00042503          	lw	a0,0(s0)
   107c4:	000a0c13          	mv	s8,s4
   107c8:	00090a13          	mv	s4,s2
   107cc:	000b8613          	mv	a2,s7
   107d0:	000a8593          	mv	a1,s5
   107d4:	4b5000ef          	jal	11488 <memmove>
   107d8:	00842783          	lw	a5,8(s0)
   107dc:	00042603          	lw	a2,0(s0)
   107e0:	00090713          	mv	a4,s2
   107e4:	418787b3          	sub	a5,a5,s8
   107e8:	01760633          	add	a2,a2,s7
   107ec:	00f42423          	sw	a5,8(s0)
   107f0:	00c42023          	sw	a2,0(s0)
   107f4:	0089a783          	lw	a5,8(s3)
   107f8:	00ea8ab3          	add	s5,s5,a4
   107fc:	40e90933          	sub	s2,s2,a4
   10800:	414787b3          	sub	a5,a5,s4
   10804:	00f9a423          	sw	a5,8(s3)
   10808:	f20786e3          	beqz	a5,10734 <__sfvwrite_r+0xb4>
   1080c:	00c45703          	lhu	a4,12(s0)
   10810:	f8091ae3          	bnez	s2,107a4 <__sfvwrite_r+0x124>
   10814:	0004aa83          	lw	s5,0(s1)
   10818:	0044a903          	lw	s2,4(s1)
   1081c:	00848493          	addi	s1,s1,8
   10820:	f81ff06f          	j	107a0 <__sfvwrite_r+0x120>
   10824:	0004aa03          	lw	s4,0(s1)
   10828:	0044a903          	lw	s2,4(s1)
   1082c:	00848493          	addi	s1,s1,8
   10830:	ec5ff06f          	j	106f4 <__sfvwrite_r+0x74>
   10834:	00000513          	li	a0,0
   10838:	00008067          	ret
   1083c:	000b0513          	mv	a0,s6
   10840:	539000ef          	jal	11578 <_realloc_r>
   10844:	00050c13          	mv	s8,a0
   10848:	24051a63          	bnez	a0,10a9c <__sfvwrite_r+0x41c>
   1084c:	01042583          	lw	a1,16(s0)
   10850:	000b0513          	mv	a0,s6
   10854:	329010ef          	jal	1237c <_free_r>
   10858:	00c00793          	li	a5,12
   1085c:	00fb2023          	sw	a5,0(s6)
   10860:	00c45783          	lhu	a5,12(s0)
   10864:	fff00513          	li	a0,-1
   10868:	0407e793          	ori	a5,a5,64
   1086c:	00f41623          	sh	a5,12(s0)
   10870:	ec9ff06f          	j	10738 <__sfvwrite_r+0xb8>
   10874:	00000a13          	li	s4,0
   10878:	00000c13          	li	s8,0
   1087c:	00000d13          	li	s10,0
   10880:	00000913          	li	s2,0
   10884:	06090c63          	beqz	s2,108fc <__sfvwrite_r+0x27c>
   10888:	160c0e63          	beqz	s8,10a04 <__sfvwrite_r+0x384>
   1088c:	000a0b93          	mv	s7,s4
   10890:	01497463          	bleu	s4,s2,10898 <__sfvwrite_r+0x218>
   10894:	00090b93          	mv	s7,s2
   10898:	00042503          	lw	a0,0(s0)
   1089c:	01042783          	lw	a5,16(s0)
   108a0:	000b8a93          	mv	s5,s7
   108a4:	01442683          	lw	a3,20(s0)
   108a8:	00a7f863          	bleu	a0,a5,108b8 <__sfvwrite_r+0x238>
   108ac:	00842c83          	lw	s9,8(s0)
   108b0:	01968cb3          	add	s9,a3,s9
   108b4:	057cce63          	blt	s9,s7,10910 <__sfvwrite_r+0x290>
   108b8:	0edbc063          	blt	s7,a3,10998 <__sfvwrite_r+0x318>
   108bc:	02442783          	lw	a5,36(s0)
   108c0:	01c42583          	lw	a1,28(s0)
   108c4:	000d0613          	mv	a2,s10
   108c8:	000b0513          	mv	a0,s6
   108cc:	000780e7          	jalr	a5
   108d0:	00050a93          	mv	s5,a0
   108d4:	f8a056e3          	blez	a0,10860 <__sfvwrite_r+0x1e0>
   108d8:	415a0a33          	sub	s4,s4,s5
   108dc:	060a0463          	beqz	s4,10944 <__sfvwrite_r+0x2c4>
   108e0:	0089a783          	lw	a5,8(s3)
   108e4:	015d0d33          	add	s10,s10,s5
   108e8:	41590933          	sub	s2,s2,s5
   108ec:	41578ab3          	sub	s5,a5,s5
   108f0:	0159a423          	sw	s5,8(s3)
   108f4:	e40a80e3          	beqz	s5,10734 <__sfvwrite_r+0xb4>
   108f8:	f80918e3          	bnez	s2,10888 <__sfvwrite_r+0x208>
   108fc:	0004ad03          	lw	s10,0(s1)
   10900:	0044a903          	lw	s2,4(s1)
   10904:	00000c13          	li	s8,0
   10908:	00848493          	addi	s1,s1,8
   1090c:	f79ff06f          	j	10884 <__sfvwrite_r+0x204>
   10910:	000d0593          	mv	a1,s10
   10914:	000c8613          	mv	a2,s9
   10918:	371000ef          	jal	11488 <memmove>
   1091c:	00042783          	lw	a5,0(s0)
   10920:	00040593          	mv	a1,s0
   10924:	000b0513          	mv	a0,s6
   10928:	019787b3          	add	a5,a5,s9
   1092c:	00f42023          	sw	a5,0(s0)
   10930:	31c010ef          	jal	11c4c <_fflush_r>
   10934:	f20516e3          	bnez	a0,10860 <__sfvwrite_r+0x1e0>
   10938:	000c8a93          	mv	s5,s9
   1093c:	415a0a33          	sub	s4,s4,s5
   10940:	fa0a10e3          	bnez	s4,108e0 <__sfvwrite_r+0x260>
   10944:	00040593          	mv	a1,s0
   10948:	000b0513          	mv	a0,s6
   1094c:	300010ef          	jal	11c4c <_fflush_r>
   10950:	f00518e3          	bnez	a0,10860 <__sfvwrite_r+0x1e0>
   10954:	00000c13          	li	s8,0
   10958:	f89ff06f          	j	108e0 <__sfvwrite_r+0x260>
   1095c:	00042503          	lw	a0,0(s0)
   10960:	01042783          	lw	a5,16(s0)
   10964:	00a7f463          	bleu	a0,a5,1096c <__sfvwrite_r+0x2ec>
   10968:	152a6e63          	bltu	s4,s2,10ac4 <__sfvwrite_r+0x444>
   1096c:	01442683          	lw	a3,20(s0)
   10970:	06d96263          	bltu	s2,a3,109d4 <__sfvwrite_r+0x354>
   10974:	02442783          	lw	a5,36(s0)
   10978:	01c42583          	lw	a1,28(s0)
   1097c:	000a8613          	mv	a2,s5
   10980:	000b0513          	mv	a0,s6
   10984:	000780e7          	jalr	a5
   10988:	00050a13          	mv	s4,a0
   1098c:	eca05ae3          	blez	a0,10860 <__sfvwrite_r+0x1e0>
   10990:	000a0713          	mv	a4,s4
   10994:	e61ff06f          	j	107f4 <__sfvwrite_r+0x174>
   10998:	000b8613          	mv	a2,s7
   1099c:	000d0593          	mv	a1,s10
   109a0:	2e9000ef          	jal	11488 <memmove>
   109a4:	00842703          	lw	a4,8(s0)
   109a8:	00042783          	lw	a5,0(s0)
   109ac:	41770733          	sub	a4,a4,s7
   109b0:	01778bb3          	add	s7,a5,s7
   109b4:	00e42423          	sw	a4,8(s0)
   109b8:	01742023          	sw	s7,0(s0)
   109bc:	f1dff06f          	j	108d8 <__sfvwrite_r+0x258>
   109c0:	00042503          	lw	a0,0(s0)
   109c4:	00090c13          	mv	s8,s2
   109c8:	00090a13          	mv	s4,s2
   109cc:	00090b93          	mv	s7,s2
   109d0:	dfdff06f          	j	107cc <__sfvwrite_r+0x14c>
   109d4:	00090613          	mv	a2,s2
   109d8:	000a8593          	mv	a1,s5
   109dc:	2ad000ef          	jal	11488 <memmove>
   109e0:	00842703          	lw	a4,8(s0)
   109e4:	00042783          	lw	a5,0(s0)
   109e8:	00090a13          	mv	s4,s2
   109ec:	41270733          	sub	a4,a4,s2
   109f0:	012787b3          	add	a5,a5,s2
   109f4:	00e42423          	sw	a4,8(s0)
   109f8:	00f42023          	sw	a5,0(s0)
   109fc:	00090713          	mv	a4,s2
   10a00:	df5ff06f          	j	107f4 <__sfvwrite_r+0x174>
   10a04:	00090613          	mv	a2,s2
   10a08:	00a00593          	li	a1,10
   10a0c:	000d0513          	mv	a0,s10
   10a10:	085000ef          	jal	11294 <memchr>
   10a14:	0e050063          	beqz	a0,10af4 <__sfvwrite_r+0x474>
   10a18:	00150513          	addi	a0,a0,1
   10a1c:	41a50a33          	sub	s4,a0,s10
   10a20:	00100c13          	li	s8,1
   10a24:	e69ff06f          	j	1088c <__sfvwrite_r+0x20c>
   10a28:	01442a03          	lw	s4,20(s0)
   10a2c:	01042583          	lw	a1,16(s0)
   10a30:	00042b83          	lw	s7,0(s0)
   10a34:	001a1793          	slli	a5,s4,0x1
   10a38:	01478a33          	add	s4,a5,s4
   10a3c:	01fa5793          	srli	a5,s4,0x1f
   10a40:	40bb8bb3          	sub	s7,s7,a1
   10a44:	01478a33          	add	s4,a5,s4
   10a48:	001b8793          	addi	a5,s7,1
   10a4c:	401a5a13          	srai	s4,s4,0x1
   10a50:	012787b3          	add	a5,a5,s2
   10a54:	000a0613          	mv	a2,s4
   10a58:	00fa7663          	bleu	a5,s4,10a64 <__sfvwrite_r+0x3e4>
   10a5c:	00078a13          	mv	s4,a5
   10a60:	00078613          	mv	a2,a5
   10a64:	40077713          	andi	a4,a4,1024
   10a68:	dc070ae3          	beqz	a4,1083c <__sfvwrite_r+0x1bc>
   10a6c:	00060593          	mv	a1,a2
   10a70:	000b0513          	mv	a0,s6
   10a74:	0a8000ef          	jal	10b1c <_malloc_r>
   10a78:	00050c13          	mv	s8,a0
   10a7c:	dc050ee3          	beqz	a0,10858 <__sfvwrite_r+0x1d8>
   10a80:	01042583          	lw	a1,16(s0)
   10a84:	000b8613          	mv	a2,s7
   10a88:	0e1000ef          	jal	11368 <memcpy>
   10a8c:	00c45783          	lhu	a5,12(s0)
   10a90:	b7f7f793          	andi	a5,a5,-1153
   10a94:	0807e793          	ori	a5,a5,128
   10a98:	00f41623          	sh	a5,12(s0)
   10a9c:	017c0533          	add	a0,s8,s7
   10aa0:	417a0bb3          	sub	s7,s4,s7
   10aa4:	01842823          	sw	s8,16(s0)
   10aa8:	01442a23          	sw	s4,20(s0)
   10aac:	01742423          	sw	s7,8(s0)
   10ab0:	00a42023          	sw	a0,0(s0)
   10ab4:	00090c13          	mv	s8,s2
   10ab8:	00090a13          	mv	s4,s2
   10abc:	00090b93          	mv	s7,s2
   10ac0:	d0dff06f          	j	107cc <__sfvwrite_r+0x14c>
   10ac4:	000a8593          	mv	a1,s5
   10ac8:	000a0613          	mv	a2,s4
   10acc:	1bd000ef          	jal	11488 <memmove>
   10ad0:	00042783          	lw	a5,0(s0)
   10ad4:	00040593          	mv	a1,s0
   10ad8:	000b0513          	mv	a0,s6
   10adc:	014787b3          	add	a5,a5,s4
   10ae0:	00f42023          	sw	a5,0(s0)
   10ae4:	168010ef          	jal	11c4c <_fflush_r>
   10ae8:	d6051ce3          	bnez	a0,10860 <__sfvwrite_r+0x1e0>
   10aec:	000a0713          	mv	a4,s4
   10af0:	d05ff06f          	j	107f4 <__sfvwrite_r+0x174>
   10af4:	00190a13          	addi	s4,s2,1
   10af8:	00100c13          	li	s8,1
   10afc:	d91ff06f          	j	1088c <__sfvwrite_r+0x20c>
   10b00:	00c45783          	lhu	a5,12(s0)
   10b04:	fff00513          	li	a0,-1
   10b08:	0407e793          	ori	a5,a5,64
   10b0c:	00f41623          	sh	a5,12(s0)
   10b10:	00900793          	li	a5,9
   10b14:	00fb2023          	sw	a5,0(s6)
   10b18:	c21ff06f          	j	10738 <__sfvwrite_r+0xb8>

00010b1c <_malloc_r>:
   10b1c:	fd010113          	addi	sp,sp,-48
   10b20:	02912223          	sw	s1,36(sp)
   10b24:	01600793          	li	a5,22
   10b28:	00b58493          	addi	s1,a1,11
   10b2c:	01312e23          	sw	s3,28(sp)
   10b30:	02112623          	sw	ra,44(sp)
   10b34:	02812423          	sw	s0,40(sp)
   10b38:	03212023          	sw	s2,32(sp)
   10b3c:	01412c23          	sw	s4,24(sp)
   10b40:	01512a23          	sw	s5,20(sp)
   10b44:	01612823          	sw	s6,16(sp)
   10b48:	01712623          	sw	s7,12(sp)
   10b4c:	01812423          	sw	s8,8(sp)
   10b50:	01912223          	sw	s9,4(sp)
   10b54:	00050993          	mv	s3,a0
   10b58:	1a97fc63          	bleu	s1,a5,10d10 <_malloc_r+0x1f4>
   10b5c:	ff84f493          	andi	s1,s1,-8
   10b60:	2404c463          	bltz	s1,10da8 <_malloc_r+0x28c>
   10b64:	24b4e263          	bltu	s1,a1,10da8 <_malloc_r+0x28c>
   10b68:	209000ef          	jal	11570 <__malloc_lock>
   10b6c:	1f700793          	li	a5,503
   10b70:	7097fa63          	bleu	s1,a5,11284 <_malloc_r+0x768>
   10b74:	0094d793          	srli	a5,s1,0x9
   10b78:	08000693          	li	a3,128
   10b7c:	04000513          	li	a0,64
   10b80:	03f00593          	li	a1,63
   10b84:	22079a63          	bnez	a5,10db8 <_malloc_r+0x29c>
   10b88:	00014937          	lui	s2,0x14
   10b8c:	d0890913          	addi	s2,s2,-760 # 13d08 <__malloc_av_>
   10b90:	00269693          	slli	a3,a3,0x2
   10b94:	00d906b3          	add	a3,s2,a3
   10b98:	0046a403          	lw	s0,4(a3)
   10b9c:	ff868693          	addi	a3,a3,-8
   10ba0:	22868a63          	beq	a3,s0,10dd4 <_malloc_r+0x2b8>
   10ba4:	00442783          	lw	a5,4(s0)
   10ba8:	00f00613          	li	a2,15
   10bac:	ffc7f793          	andi	a5,a5,-4
   10bb0:	40978733          	sub	a4,a5,s1
   10bb4:	02e64063          	blt	a2,a4,10bd4 <_malloc_r+0xb8>
   10bb8:	22075263          	bgez	a4,10ddc <_malloc_r+0x2c0>
   10bbc:	00c42403          	lw	s0,12(s0)
   10bc0:	20868a63          	beq	a3,s0,10dd4 <_malloc_r+0x2b8>
   10bc4:	00442783          	lw	a5,4(s0)
   10bc8:	ffc7f793          	andi	a5,a5,-4
   10bcc:	40978733          	sub	a4,a5,s1
   10bd0:	fee654e3          	ble	a4,a2,10bb8 <_malloc_r+0x9c>
   10bd4:	00058693          	mv	a3,a1
   10bd8:	01092403          	lw	s0,16(s2)
   10bdc:	00890813          	addi	a6,s2,8
   10be0:	4b040263          	beq	s0,a6,11084 <_malloc_r+0x568>
   10be4:	00442783          	lw	a5,4(s0)
   10be8:	00f00613          	li	a2,15
   10bec:	ffc7f793          	andi	a5,a5,-4
   10bf0:	40978733          	sub	a4,a5,s1
   10bf4:	44e64a63          	blt	a2,a4,11048 <_malloc_r+0x52c>
   10bf8:	01092a23          	sw	a6,20(s2)
   10bfc:	01092823          	sw	a6,16(s2)
   10c00:	20075663          	bgez	a4,10e0c <_malloc_r+0x2f0>
   10c04:	1ff00713          	li	a4,511
   10c08:	3cf76e63          	bltu	a4,a5,10fe4 <_malloc_r+0x4c8>
   10c0c:	0037d793          	srli	a5,a5,0x3
   10c10:	00178613          	addi	a2,a5,1
   10c14:	00361613          	slli	a2,a2,0x3
   10c18:	00492703          	lw	a4,4(s2)
   10c1c:	00c90633          	add	a2,s2,a2
   10c20:	00062503          	lw	a0,0(a2)
   10c24:	4027d793          	srai	a5,a5,0x2
   10c28:	00100593          	li	a1,1
   10c2c:	00f597b3          	sll	a5,a1,a5
   10c30:	00e7e7b3          	or	a5,a5,a4
   10c34:	ff860713          	addi	a4,a2,-8
   10c38:	00e42623          	sw	a4,12(s0)
   10c3c:	00a42423          	sw	a0,8(s0)
   10c40:	00f92223          	sw	a5,4(s2)
   10c44:	00862023          	sw	s0,0(a2)
   10c48:	00852623          	sw	s0,12(a0)
   10c4c:	4026d713          	srai	a4,a3,0x2
   10c50:	00100613          	li	a2,1
   10c54:	00e61633          	sll	a2,a2,a4
   10c58:	1cc7ea63          	bltu	a5,a2,10e2c <_malloc_r+0x310>
   10c5c:	00f67733          	and	a4,a2,a5
   10c60:	02071463          	bnez	a4,10c88 <_malloc_r+0x16c>
   10c64:	00161613          	slli	a2,a2,0x1
   10c68:	ffc6f693          	andi	a3,a3,-4
   10c6c:	00f67733          	and	a4,a2,a5
   10c70:	00468693          	addi	a3,a3,4
   10c74:	00071a63          	bnez	a4,10c88 <_malloc_r+0x16c>
   10c78:	00161613          	slli	a2,a2,0x1
   10c7c:	00f67733          	and	a4,a2,a5
   10c80:	00468693          	addi	a3,a3,4
   10c84:	fe070ae3          	beqz	a4,10c78 <_malloc_r+0x15c>
   10c88:	00f00513          	li	a0,15
   10c8c:	00369893          	slli	a7,a3,0x3
   10c90:	012888b3          	add	a7,a7,s2
   10c94:	00088593          	mv	a1,a7
   10c98:	00068293          	mv	t0,a3
   10c9c:	00c5a403          	lw	s0,12(a1)
   10ca0:	00859a63          	bne	a1,s0,10cb4 <_malloc_r+0x198>
   10ca4:	3e80006f          	j	1108c <_malloc_r+0x570>
   10ca8:	40075463          	bgez	a4,110b0 <_malloc_r+0x594>
   10cac:	00c42403          	lw	s0,12(s0)
   10cb0:	3c858e63          	beq	a1,s0,1108c <_malloc_r+0x570>
   10cb4:	00442783          	lw	a5,4(s0)
   10cb8:	ffc7f793          	andi	a5,a5,-4
   10cbc:	40978733          	sub	a4,a5,s1
   10cc0:	fee554e3          	ble	a4,a0,10ca8 <_malloc_r+0x18c>
   10cc4:	00c42683          	lw	a3,12(s0)
   10cc8:	00842603          	lw	a2,8(s0)
   10ccc:	009407b3          	add	a5,s0,s1
   10cd0:	00176893          	ori	a7,a4,1
   10cd4:	00e785b3          	add	a1,a5,a4
   10cd8:	0014e493          	ori	s1,s1,1
   10cdc:	00942223          	sw	s1,4(s0)
   10ce0:	00098513          	mv	a0,s3
   10ce4:	00d62623          	sw	a3,12(a2)
   10ce8:	00c6a423          	sw	a2,8(a3)
   10cec:	00f92a23          	sw	a5,20(s2)
   10cf0:	00f92823          	sw	a5,16(s2)
   10cf4:	0107a623          	sw	a6,12(a5)
   10cf8:	0107a423          	sw	a6,8(a5)
   10cfc:	0117a223          	sw	a7,4(a5)
   10d00:	00e5a023          	sw	a4,0(a1)
   10d04:	071000ef          	jal	11574 <__malloc_unlock>
   10d08:	00840513          	addi	a0,s0,8
   10d0c:	0680006f          	j	10d74 <_malloc_r+0x258>
   10d10:	01000493          	li	s1,16
   10d14:	08b4ea63          	bltu	s1,a1,10da8 <_malloc_r+0x28c>
   10d18:	059000ef          	jal	11570 <__malloc_lock>
   10d1c:	00600793          	li	a5,6
   10d20:	00200693          	li	a3,2
   10d24:	00014937          	lui	s2,0x14
   10d28:	d0890913          	addi	s2,s2,-760 # 13d08 <__malloc_av_>
   10d2c:	00279793          	slli	a5,a5,0x2
   10d30:	00f907b3          	add	a5,s2,a5
   10d34:	0047a403          	lw	s0,4(a5)
   10d38:	ff878713          	addi	a4,a5,-8
   10d3c:	36e40263          	beq	s0,a4,110a0 <_malloc_r+0x584>
   10d40:	00442783          	lw	a5,4(s0)
   10d44:	00c42683          	lw	a3,12(s0)
   10d48:	00842603          	lw	a2,8(s0)
   10d4c:	ffc7f793          	andi	a5,a5,-4
   10d50:	00f407b3          	add	a5,s0,a5
   10d54:	0047a703          	lw	a4,4(a5)
   10d58:	00098513          	mv	a0,s3
   10d5c:	00d62623          	sw	a3,12(a2)
   10d60:	00176713          	ori	a4,a4,1
   10d64:	00c6a423          	sw	a2,8(a3)
   10d68:	00e7a223          	sw	a4,4(a5)
   10d6c:	009000ef          	jal	11574 <__malloc_unlock>
   10d70:	00840513          	addi	a0,s0,8
   10d74:	02c12083          	lw	ra,44(sp)
   10d78:	02812403          	lw	s0,40(sp)
   10d7c:	02412483          	lw	s1,36(sp)
   10d80:	02012903          	lw	s2,32(sp)
   10d84:	01c12983          	lw	s3,28(sp)
   10d88:	01812a03          	lw	s4,24(sp)
   10d8c:	01412a83          	lw	s5,20(sp)
   10d90:	01012b03          	lw	s6,16(sp)
   10d94:	00c12b83          	lw	s7,12(sp)
   10d98:	00812c03          	lw	s8,8(sp)
   10d9c:	00412c83          	lw	s9,4(sp)
   10da0:	03010113          	addi	sp,sp,48
   10da4:	00008067          	ret
   10da8:	00c00793          	li	a5,12
   10dac:	00f9a023          	sw	a5,0(s3)
   10db0:	00000513          	li	a0,0
   10db4:	fc1ff06f          	j	10d74 <_malloc_r+0x258>
   10db8:	00400713          	li	a4,4
   10dbc:	20f76263          	bltu	a4,a5,10fc0 <_malloc_r+0x4a4>
   10dc0:	0064d593          	srli	a1,s1,0x6
   10dc4:	03958513          	addi	a0,a1,57
   10dc8:	00151693          	slli	a3,a0,0x1
   10dcc:	03858593          	addi	a1,a1,56
   10dd0:	db9ff06f          	j	10b88 <_malloc_r+0x6c>
   10dd4:	00050693          	mv	a3,a0
   10dd8:	e01ff06f          	j	10bd8 <_malloc_r+0xbc>
   10ddc:	00f407b3          	add	a5,s0,a5
   10de0:	0047a703          	lw	a4,4(a5)
   10de4:	00c42683          	lw	a3,12(s0)
   10de8:	00842603          	lw	a2,8(s0)
   10dec:	00176713          	ori	a4,a4,1
   10df0:	00098513          	mv	a0,s3
   10df4:	00d62623          	sw	a3,12(a2)
   10df8:	00c6a423          	sw	a2,8(a3)
   10dfc:	00e7a223          	sw	a4,4(a5)
   10e00:	774000ef          	jal	11574 <__malloc_unlock>
   10e04:	00840513          	addi	a0,s0,8
   10e08:	f6dff06f          	j	10d74 <_malloc_r+0x258>
   10e0c:	00f407b3          	add	a5,s0,a5
   10e10:	0047a703          	lw	a4,4(a5)
   10e14:	00098513          	mv	a0,s3
   10e18:	00176713          	ori	a4,a4,1
   10e1c:	00e7a223          	sw	a4,4(a5)
   10e20:	754000ef          	jal	11574 <__malloc_unlock>
   10e24:	00840513          	addi	a0,s0,8
   10e28:	f4dff06f          	j	10d74 <_malloc_r+0x258>
   10e2c:	00892403          	lw	s0,8(s2)
   10e30:	00442a03          	lw	s4,4(s0)
   10e34:	ffca7a93          	andi	s5,s4,-4
   10e38:	009ae863          	bltu	s5,s1,10e48 <_malloc_r+0x32c>
   10e3c:	409a87b3          	sub	a5,s5,s1
   10e40:	00f00713          	li	a4,15
   10e44:	14f74a63          	blt	a4,a5,10f98 <_malloc_r+0x47c>
   10e48:	8201a703          	lw	a4,-2016(gp) # 14130 <__malloc_top_pad>
   10e4c:	80c1a683          	lw	a3,-2036(gp) # 1411c <__malloc_sbrk_base>
   10e50:	00e48733          	add	a4,s1,a4
   10e54:	fff00793          	li	a5,-1
   10e58:	01540b33          	add	s6,s0,s5
   10e5c:	01070a13          	addi	s4,a4,16
   10e60:	00f68c63          	beq	a3,a5,10e78 <_malloc_r+0x35c>
   10e64:	000016b7          	lui	a3,0x1
   10e68:	00f68a13          	addi	s4,a3,15 # 100f <_ftext-0xeff1>
   10e6c:	014706b3          	add	a3,a4,s4
   10e70:	fffff737          	lui	a4,0xfffff
   10e74:	00e6fa33          	and	s4,a3,a4
   10e78:	000a0513          	mv	a0,s4
   10e7c:	150020ef          	jal	12fcc <sbrk>
   10e80:	fff00793          	li	a5,-1
   10e84:	00050b93          	mv	s7,a0
   10e88:	28f50063          	beq	a0,a5,11108 <_malloc_r+0x5ec>
   10e8c:	27656c63          	bltu	a0,s6,11104 <_malloc_r+0x5e8>
   10e90:	84418c13          	addi	s8,gp,-1980 # 14154 <__malloc_current_mallinfo>
   10e94:	000c2703          	lw	a4,0(s8)
   10e98:	00ea0733          	add	a4,s4,a4
   10e9c:	00ec2023          	sw	a4,0(s8)
   10ea0:	357b0c63          	beq	s6,s7,111f8 <_malloc_r+0x6dc>
   10ea4:	80c1a683          	lw	a3,-2036(gp) # 1411c <__malloc_sbrk_base>
   10ea8:	fff00793          	li	a5,-1
   10eac:	36f68a63          	beq	a3,a5,11220 <_malloc_r+0x704>
   10eb0:	416b8b33          	sub	s6,s7,s6
   10eb4:	00eb0733          	add	a4,s6,a4
   10eb8:	00ec2023          	sw	a4,0(s8)
   10ebc:	007bf713          	andi	a4,s7,7
   10ec0:	000017b7          	lui	a5,0x1
   10ec4:	00070a63          	beqz	a4,10ed8 <_malloc_r+0x3bc>
   10ec8:	40eb8bb3          	sub	s7,s7,a4
   10ecc:	00878793          	addi	a5,a5,8 # 1008 <_ftext-0xeff8>
   10ed0:	008b8b93          	addi	s7,s7,8
   10ed4:	40e787b3          	sub	a5,a5,a4
   10ed8:	00001737          	lui	a4,0x1
   10edc:	fff70713          	addi	a4,a4,-1 # fff <_ftext-0xf001>
   10ee0:	014b8a33          	add	s4,s7,s4
   10ee4:	00ea7a33          	and	s4,s4,a4
   10ee8:	41478a33          	sub	s4,a5,s4
   10eec:	000a0513          	mv	a0,s4
   10ef0:	0dc020ef          	jal	12fcc <sbrk>
   10ef4:	fff00793          	li	a5,-1
   10ef8:	30f50e63          	beq	a0,a5,11214 <_malloc_r+0x6f8>
   10efc:	417507b3          	sub	a5,a0,s7
   10f00:	014787b3          	add	a5,a5,s4
   10f04:	0017e793          	ori	a5,a5,1
   10f08:	000c2703          	lw	a4,0(s8)
   10f0c:	01792423          	sw	s7,8(s2)
   10f10:	00fba223          	sw	a5,4(s7)
   10f14:	00ea0733          	add	a4,s4,a4
   10f18:	00ec2023          	sw	a4,0(s8)
   10f1c:	03240c63          	beq	s0,s2,10f54 <_malloc_r+0x438>
   10f20:	00f00613          	li	a2,15
   10f24:	29567263          	bleu	s5,a2,111a8 <_malloc_r+0x68c>
   10f28:	ff4a8793          	addi	a5,s5,-12
   10f2c:	ff87f793          	andi	a5,a5,-8
   10f30:	00f406b3          	add	a3,s0,a5
   10f34:	00500593          	li	a1,5
   10f38:	00b6a223          	sw	a1,4(a3)
   10f3c:	00b6a423          	sw	a1,8(a3)
   10f40:	00442683          	lw	a3,4(s0)
   10f44:	0016f693          	andi	a3,a3,1
   10f48:	00f6e6b3          	or	a3,a3,a5
   10f4c:	00d42223          	sw	a3,4(s0)
   10f50:	2cf66c63          	bltu	a2,a5,11228 <_malloc_r+0x70c>
   10f54:	81c1a683          	lw	a3,-2020(gp) # 1412c <__malloc_max_sbrked_mem>
   10f58:	00e6f463          	bleu	a4,a3,10f60 <_malloc_r+0x444>
   10f5c:	80e1ae23          	sw	a4,-2020(gp) # 1412c <__malloc_max_sbrked_mem>
   10f60:	8181a683          	lw	a3,-2024(gp) # 14128 <__malloc_max_total_mem>
   10f64:	00892403          	lw	s0,8(s2)
   10f68:	00e6f463          	bleu	a4,a3,10f70 <_malloc_r+0x454>
   10f6c:	80e1ac23          	sw	a4,-2024(gp) # 14128 <__malloc_max_total_mem>
   10f70:	00442703          	lw	a4,4(s0)
   10f74:	ffc77713          	andi	a4,a4,-4
   10f78:	409707b3          	sub	a5,a4,s1
   10f7c:	00976663          	bltu	a4,s1,10f88 <_malloc_r+0x46c>
   10f80:	00f00713          	li	a4,15
   10f84:	00f74a63          	blt	a4,a5,10f98 <_malloc_r+0x47c>
   10f88:	00098513          	mv	a0,s3
   10f8c:	5e8000ef          	jal	11574 <__malloc_unlock>
   10f90:	00000513          	li	a0,0
   10f94:	de1ff06f          	j	10d74 <_malloc_r+0x258>
   10f98:	00940733          	add	a4,s0,s1
   10f9c:	0017e793          	ori	a5,a5,1
   10fa0:	0014e493          	ori	s1,s1,1
   10fa4:	00942223          	sw	s1,4(s0)
   10fa8:	00098513          	mv	a0,s3
   10fac:	00e92423          	sw	a4,8(s2)
   10fb0:	00f72223          	sw	a5,4(a4)
   10fb4:	5c0000ef          	jal	11574 <__malloc_unlock>
   10fb8:	00840513          	addi	a0,s0,8
   10fbc:	db9ff06f          	j	10d74 <_malloc_r+0x258>
   10fc0:	01400713          	li	a4,20
   10fc4:	10f77e63          	bleu	a5,a4,110e0 <_malloc_r+0x5c4>
   10fc8:	05400713          	li	a4,84
   10fcc:	1af76063          	bltu	a4,a5,1116c <_malloc_r+0x650>
   10fd0:	00c4d593          	srli	a1,s1,0xc
   10fd4:	06f58513          	addi	a0,a1,111
   10fd8:	00151693          	slli	a3,a0,0x1
   10fdc:	06e58593          	addi	a1,a1,110
   10fe0:	ba9ff06f          	j	10b88 <_malloc_r+0x6c>
   10fe4:	0097d713          	srli	a4,a5,0x9
   10fe8:	00400613          	li	a2,4
   10fec:	10e67263          	bleu	a4,a2,110f0 <_malloc_r+0x5d4>
   10ff0:	01400613          	li	a2,20
   10ff4:	1ee66463          	bltu	a2,a4,111dc <_malloc_r+0x6c0>
   10ff8:	05c70593          	addi	a1,a4,92
   10ffc:	05b70613          	addi	a2,a4,91
   11000:	00159593          	slli	a1,a1,0x1
   11004:	00259593          	slli	a1,a1,0x2
   11008:	00b905b3          	add	a1,s2,a1
   1100c:	0005a703          	lw	a4,0(a1)
   11010:	ff858593          	addi	a1,a1,-8
   11014:	16e58a63          	beq	a1,a4,11188 <_malloc_r+0x66c>
   11018:	00472603          	lw	a2,4(a4)
   1101c:	ffc67613          	andi	a2,a2,-4
   11020:	00c7f663          	bleu	a2,a5,1102c <_malloc_r+0x510>
   11024:	00872703          	lw	a4,8(a4)
   11028:	fee598e3          	bne	a1,a4,11018 <_malloc_r+0x4fc>
   1102c:	00c72583          	lw	a1,12(a4)
   11030:	00492783          	lw	a5,4(s2)
   11034:	00b42623          	sw	a1,12(s0)
   11038:	00e42423          	sw	a4,8(s0)
   1103c:	0085a423          	sw	s0,8(a1)
   11040:	00872623          	sw	s0,12(a4)
   11044:	c09ff06f          	j	10c4c <_malloc_r+0x130>
   11048:	009407b3          	add	a5,s0,s1
   1104c:	00176613          	ori	a2,a4,1
   11050:	00e786b3          	add	a3,a5,a4
   11054:	0014e493          	ori	s1,s1,1
   11058:	00942223          	sw	s1,4(s0)
   1105c:	00098513          	mv	a0,s3
   11060:	00f92a23          	sw	a5,20(s2)
   11064:	00f92823          	sw	a5,16(s2)
   11068:	0107a623          	sw	a6,12(a5)
   1106c:	0107a423          	sw	a6,8(a5)
   11070:	00c7a223          	sw	a2,4(a5)
   11074:	00e6a023          	sw	a4,0(a3)
   11078:	4fc000ef          	jal	11574 <__malloc_unlock>
   1107c:	00840513          	addi	a0,s0,8
   11080:	cf5ff06f          	j	10d74 <_malloc_r+0x258>
   11084:	00492783          	lw	a5,4(s2)
   11088:	bc5ff06f          	j	10c4c <_malloc_r+0x130>
   1108c:	00128293          	addi	t0,t0,1
   11090:	0032f793          	andi	a5,t0,3
   11094:	00858593          	addi	a1,a1,8
   11098:	c00792e3          	bnez	a5,10c9c <_malloc_r+0x180>
   1109c:	0880006f          	j	11124 <_malloc_r+0x608>
   110a0:	00c7a403          	lw	s0,12(a5)
   110a4:	00268693          	addi	a3,a3,2
   110a8:	b28788e3          	beq	a5,s0,10bd8 <_malloc_r+0xbc>
   110ac:	c95ff06f          	j	10d40 <_malloc_r+0x224>
   110b0:	00f407b3          	add	a5,s0,a5
   110b4:	0047a703          	lw	a4,4(a5)
   110b8:	00c42683          	lw	a3,12(s0)
   110bc:	00842603          	lw	a2,8(s0)
   110c0:	00176713          	ori	a4,a4,1
   110c4:	00e7a223          	sw	a4,4(a5)
   110c8:	00098513          	mv	a0,s3
   110cc:	00d62623          	sw	a3,12(a2)
   110d0:	00c6a423          	sw	a2,8(a3)
   110d4:	4a0000ef          	jal	11574 <__malloc_unlock>
   110d8:	00840513          	addi	a0,s0,8
   110dc:	c99ff06f          	j	10d74 <_malloc_r+0x258>
   110e0:	05c78513          	addi	a0,a5,92
   110e4:	05b78593          	addi	a1,a5,91
   110e8:	00151693          	slli	a3,a0,0x1
   110ec:	a9dff06f          	j	10b88 <_malloc_r+0x6c>
   110f0:	0067d613          	srli	a2,a5,0x6
   110f4:	03960593          	addi	a1,a2,57
   110f8:	00159593          	slli	a1,a1,0x1
   110fc:	03860613          	addi	a2,a2,56
   11100:	f05ff06f          	j	11004 <_malloc_r+0x4e8>
   11104:	d92406e3          	beq	s0,s2,10e90 <_malloc_r+0x374>
   11108:	00892403          	lw	s0,8(s2)
   1110c:	00442703          	lw	a4,4(s0)
   11110:	ffc77713          	andi	a4,a4,-4
   11114:	e65ff06f          	j	10f78 <_malloc_r+0x45c>
   11118:	0088a783          	lw	a5,8(a7)
   1111c:	fff68693          	addi	a3,a3,-1
   11120:	14f89e63          	bne	a7,a5,1127c <_malloc_r+0x760>
   11124:	0036f793          	andi	a5,a3,3
   11128:	ff888893          	addi	a7,a7,-8
   1112c:	fe0796e3          	bnez	a5,11118 <_malloc_r+0x5fc>
   11130:	00492783          	lw	a5,4(s2)
   11134:	fff64713          	not	a4,a2
   11138:	00f777b3          	and	a5,a4,a5
   1113c:	00f92223          	sw	a5,4(s2)
   11140:	00161613          	slli	a2,a2,0x1
   11144:	cec7e4e3          	bltu	a5,a2,10e2c <_malloc_r+0x310>
   11148:	ce0602e3          	beqz	a2,10e2c <_malloc_r+0x310>
   1114c:	00f67733          	and	a4,a2,a5
   11150:	00028693          	mv	a3,t0
   11154:	b2071ce3          	bnez	a4,10c8c <_malloc_r+0x170>
   11158:	00161613          	slli	a2,a2,0x1
   1115c:	00f67733          	and	a4,a2,a5
   11160:	00468693          	addi	a3,a3,4
   11164:	fe070ae3          	beqz	a4,11158 <_malloc_r+0x63c>
   11168:	b25ff06f          	j	10c8c <_malloc_r+0x170>
   1116c:	15400713          	li	a4,340
   11170:	04f76263          	bltu	a4,a5,111b4 <_malloc_r+0x698>
   11174:	00f4d593          	srli	a1,s1,0xf
   11178:	07858513          	addi	a0,a1,120
   1117c:	00151693          	slli	a3,a0,0x1
   11180:	07758593          	addi	a1,a1,119
   11184:	a05ff06f          	j	10b88 <_malloc_r+0x6c>
   11188:	00492703          	lw	a4,4(s2)
   1118c:	40265613          	srai	a2,a2,0x2
   11190:	00100793          	li	a5,1
   11194:	00c797b3          	sll	a5,a5,a2
   11198:	00e7e7b3          	or	a5,a5,a4
   1119c:	00f92223          	sw	a5,4(s2)
   111a0:	00058713          	mv	a4,a1
   111a4:	e91ff06f          	j	11034 <_malloc_r+0x518>
   111a8:	00100793          	li	a5,1
   111ac:	00fba223          	sw	a5,4(s7)
   111b0:	dd9ff06f          	j	10f88 <_malloc_r+0x46c>
   111b4:	55400713          	li	a4,1364
   111b8:	0fe00693          	li	a3,254
   111bc:	07f00513          	li	a0,127
   111c0:	07e00593          	li	a1,126
   111c4:	9cf762e3          	bltu	a4,a5,10b88 <_malloc_r+0x6c>
   111c8:	0124d593          	srli	a1,s1,0x12
   111cc:	07d58513          	addi	a0,a1,125
   111d0:	00151693          	slli	a3,a0,0x1
   111d4:	07c58593          	addi	a1,a1,124
   111d8:	9b1ff06f          	j	10b88 <_malloc_r+0x6c>
   111dc:	05400613          	li	a2,84
   111e0:	04e66e63          	bltu	a2,a4,1123c <_malloc_r+0x720>
   111e4:	00c7d613          	srli	a2,a5,0xc
   111e8:	06f60593          	addi	a1,a2,111
   111ec:	00159593          	slli	a1,a1,0x1
   111f0:	06e60613          	addi	a2,a2,110
   111f4:	e11ff06f          	j	11004 <_malloc_r+0x4e8>
   111f8:	014b1793          	slli	a5,s6,0x14
   111fc:	ca0794e3          	bnez	a5,10ea4 <_malloc_r+0x388>
   11200:	00892783          	lw	a5,8(s2)
   11204:	014a8a33          	add	s4,s5,s4
   11208:	001a6a13          	ori	s4,s4,1
   1120c:	0147a223          	sw	s4,4(a5)
   11210:	d45ff06f          	j	10f54 <_malloc_r+0x438>
   11214:	00100793          	li	a5,1
   11218:	00000a13          	li	s4,0
   1121c:	cedff06f          	j	10f08 <_malloc_r+0x3ec>
   11220:	8171a623          	sw	s7,-2036(gp) # 1411c <__malloc_sbrk_base>
   11224:	c99ff06f          	j	10ebc <_malloc_r+0x3a0>
   11228:	00840593          	addi	a1,s0,8
   1122c:	00098513          	mv	a0,s3
   11230:	14c010ef          	jal	1237c <_free_r>
   11234:	000c2703          	lw	a4,0(s8)
   11238:	d1dff06f          	j	10f54 <_malloc_r+0x438>
   1123c:	15400613          	li	a2,340
   11240:	00e66c63          	bltu	a2,a4,11258 <_malloc_r+0x73c>
   11244:	00f7d613          	srli	a2,a5,0xf
   11248:	07860593          	addi	a1,a2,120
   1124c:	00159593          	slli	a1,a1,0x1
   11250:	07760613          	addi	a2,a2,119
   11254:	db1ff06f          	j	11004 <_malloc_r+0x4e8>
   11258:	55400513          	li	a0,1364
   1125c:	0fe00593          	li	a1,254
   11260:	07e00613          	li	a2,126
   11264:	dae560e3          	bltu	a0,a4,11004 <_malloc_r+0x4e8>
   11268:	0127d613          	srli	a2,a5,0x12
   1126c:	07d60593          	addi	a1,a2,125
   11270:	00159593          	slli	a1,a1,0x1
   11274:	07c60613          	addi	a2,a2,124
   11278:	d8dff06f          	j	11004 <_malloc_r+0x4e8>
   1127c:	00492783          	lw	a5,4(s2)
   11280:	ec1ff06f          	j	11140 <_malloc_r+0x624>
   11284:	0034d693          	srli	a3,s1,0x3
   11288:	00168793          	addi	a5,a3,1
   1128c:	00179793          	slli	a5,a5,0x1
   11290:	a95ff06f          	j	10d24 <_malloc_r+0x208>

00011294 <memchr>:
   11294:	00357793          	andi	a5,a0,3
   11298:	0ff5f693          	andi	a3,a1,255
   1129c:	0c078063          	beqz	a5,1135c <memchr+0xc8>
   112a0:	fff60793          	addi	a5,a2,-1
   112a4:	06060063          	beqz	a2,11304 <memchr+0x70>
   112a8:	00054703          	lbu	a4,0(a0)
   112ac:	00d71c63          	bne	a4,a3,112c4 <memchr+0x30>
   112b0:	0b40006f          	j	11364 <memchr+0xd0>
   112b4:	04078863          	beqz	a5,11304 <memchr+0x70>
   112b8:	00054703          	lbu	a4,0(a0)
   112bc:	fff78793          	addi	a5,a5,-1
   112c0:	04d70463          	beq	a4,a3,11308 <memchr+0x74>
   112c4:	00150513          	addi	a0,a0,1
   112c8:	00357713          	andi	a4,a0,3
   112cc:	fe0714e3          	bnez	a4,112b4 <memchr+0x20>
   112d0:	00300813          	li	a6,3
   112d4:	02f86c63          	bltu	a6,a5,1130c <memchr+0x78>
   112d8:	02078663          	beqz	a5,11304 <memchr+0x70>
   112dc:	00054703          	lbu	a4,0(a0)
   112e0:	02d70463          	beq	a4,a3,11308 <memchr+0x74>
   112e4:	00150713          	addi	a4,a0,1
   112e8:	00f507b3          	add	a5,a0,a5
   112ec:	0100006f          	j	112fc <memchr+0x68>
   112f0:	00170713          	addi	a4,a4,1
   112f4:	fff74603          	lbu	a2,-1(a4)
   112f8:	00d60863          	beq	a2,a3,11308 <memchr+0x74>
   112fc:	00070513          	mv	a0,a4
   11300:	fee798e3          	bne	a5,a4,112f0 <memchr+0x5c>
   11304:	00000513          	li	a0,0
   11308:	00008067          	ret
   1130c:	0ff5f593          	andi	a1,a1,255
   11310:	00859713          	slli	a4,a1,0x8
   11314:	00b765b3          	or	a1,a4,a1
   11318:	01059713          	slli	a4,a1,0x10
   1131c:	feff02b7          	lui	t0,0xfeff0
   11320:	808088b7          	lui	a7,0x80808
   11324:	00e5e5b3          	or	a1,a1,a4
   11328:	eff28293          	addi	t0,t0,-257 # fefefeff <_gp+0xfefdb5ef>
   1132c:	08088893          	addi	a7,a7,128 # 80808080 <_gp+0x807f3770>
   11330:	00052703          	lw	a4,0(a0)
   11334:	00e5c733          	xor	a4,a1,a4
   11338:	00570633          	add	a2,a4,t0
   1133c:	fff74713          	not	a4,a4
   11340:	00e67733          	and	a4,a2,a4
   11344:	01177733          	and	a4,a4,a7
   11348:	f8071ae3          	bnez	a4,112dc <memchr+0x48>
   1134c:	ffc78793          	addi	a5,a5,-4
   11350:	00450513          	addi	a0,a0,4
   11354:	fcf86ee3          	bltu	a6,a5,11330 <memchr+0x9c>
   11358:	f81ff06f          	j	112d8 <memchr+0x44>
   1135c:	00060793          	mv	a5,a2
   11360:	f71ff06f          	j	112d0 <memchr+0x3c>
   11364:	00008067          	ret

00011368 <memcpy>:
   11368:	00a5c7b3          	xor	a5,a1,a0
   1136c:	0037f793          	andi	a5,a5,3
   11370:	00c508b3          	add	a7,a0,a2
   11374:	0e079263          	bnez	a5,11458 <memcpy+0xf0>
   11378:	00300793          	li	a5,3
   1137c:	0ec7fe63          	bleu	a2,a5,11478 <memcpy+0x110>
   11380:	00357793          	andi	a5,a0,3
   11384:	04079a63          	bnez	a5,113d8 <memcpy+0x70>
   11388:	ffc8f813          	andi	a6,a7,-4
   1138c:	fe080793          	addi	a5,a6,-32
   11390:	00050713          	mv	a4,a0
   11394:	06f56663          	bltu	a0,a5,11400 <memcpy+0x98>
   11398:	00058693          	mv	a3,a1
   1139c:	00070793          	mv	a5,a4
   113a0:	03077863          	bleu	a6,a4,113d0 <memcpy+0x68>
   113a4:	0006a603          	lw	a2,0(a3)
   113a8:	00478793          	addi	a5,a5,4
   113ac:	00468693          	addi	a3,a3,4
   113b0:	fec7ae23          	sw	a2,-4(a5)
   113b4:	ff07e8e3          	bltu	a5,a6,113a4 <memcpy+0x3c>
   113b8:	fff74793          	not	a5,a4
   113bc:	01078833          	add	a6,a5,a6
   113c0:	ffc87813          	andi	a6,a6,-4
   113c4:	00480813          	addi	a6,a6,4
   113c8:	01070733          	add	a4,a4,a6
   113cc:	010585b3          	add	a1,a1,a6
   113d0:	09176863          	bltu	a4,a7,11460 <memcpy+0xf8>
   113d4:	00008067          	ret
   113d8:	00050713          	mv	a4,a0
   113dc:	0005c683          	lbu	a3,0(a1)
   113e0:	00170713          	addi	a4,a4,1
   113e4:	00377793          	andi	a5,a4,3
   113e8:	00158593          	addi	a1,a1,1
   113ec:	fed70fa3          	sb	a3,-1(a4)
   113f0:	fe0796e3          	bnez	a5,113dc <memcpy+0x74>
   113f4:	ffc8f813          	andi	a6,a7,-4
   113f8:	fe080793          	addi	a5,a6,-32
   113fc:	f8f77ee3          	bleu	a5,a4,11398 <memcpy+0x30>
   11400:	0005af83          	lw	t6,0(a1)
   11404:	0045af03          	lw	t5,4(a1)
   11408:	0085ae83          	lw	t4,8(a1)
   1140c:	00c5ae03          	lw	t3,12(a1)
   11410:	0105a383          	lw	t2,16(a1)
   11414:	0145a303          	lw	t1,20(a1)
   11418:	0185a283          	lw	t0,24(a1)
   1141c:	01c5a603          	lw	a2,28(a1)
   11420:	02458593          	addi	a1,a1,36
   11424:	02470713          	addi	a4,a4,36
   11428:	ffc5a683          	lw	a3,-4(a1)
   1142c:	fdf72e23          	sw	t6,-36(a4)
   11430:	ffe72023          	sw	t5,-32(a4)
   11434:	ffd72223          	sw	t4,-28(a4)
   11438:	ffc72423          	sw	t3,-24(a4)
   1143c:	fe772623          	sw	t2,-20(a4)
   11440:	fe672823          	sw	t1,-16(a4)
   11444:	fe572a23          	sw	t0,-12(a4)
   11448:	fec72c23          	sw	a2,-8(a4)
   1144c:	fed72e23          	sw	a3,-4(a4)
   11450:	faf768e3          	bltu	a4,a5,11400 <memcpy+0x98>
   11454:	f45ff06f          	j	11398 <memcpy+0x30>
   11458:	00050713          	mv	a4,a0
   1145c:	03157463          	bleu	a7,a0,11484 <memcpy+0x11c>
   11460:	0005c783          	lbu	a5,0(a1)
   11464:	00170713          	addi	a4,a4,1
   11468:	00158593          	addi	a1,a1,1
   1146c:	fef70fa3          	sb	a5,-1(a4)
   11470:	ff1768e3          	bltu	a4,a7,11460 <memcpy+0xf8>
   11474:	00008067          	ret
   11478:	00050713          	mv	a4,a0
   1147c:	ff1562e3          	bltu	a0,a7,11460 <memcpy+0xf8>
   11480:	f55ff06f          	j	113d4 <memcpy+0x6c>
   11484:	00008067          	ret

00011488 <memmove>:
   11488:	00060693          	mv	a3,a2
   1148c:	02a5f863          	bleu	a0,a1,114bc <memmove+0x34>
   11490:	00c58733          	add	a4,a1,a2
   11494:	02e57463          	bleu	a4,a0,114bc <memmove+0x34>
   11498:	00c507b3          	add	a5,a0,a2
   1149c:	40c785b3          	sub	a1,a5,a2
   114a0:	04060263          	beqz	a2,114e4 <memmove+0x5c>
   114a4:	fff70713          	addi	a4,a4,-1
   114a8:	00074683          	lbu	a3,0(a4)
   114ac:	fff78793          	addi	a5,a5,-1
   114b0:	00d78023          	sb	a3,0(a5)
   114b4:	fef598e3          	bne	a1,a5,114a4 <memmove+0x1c>
   114b8:	00008067          	ret
   114bc:	00f00893          	li	a7,15
   114c0:	00050793          	mv	a5,a0
   114c4:	02c8e263          	bltu	a7,a2,114e8 <memmove+0x60>
   114c8:	00068e63          	beqz	a3,114e4 <memmove+0x5c>
   114cc:	00d786b3          	add	a3,a5,a3
   114d0:	00158593          	addi	a1,a1,1
   114d4:	fff5c703          	lbu	a4,-1(a1)
   114d8:	00178793          	addi	a5,a5,1
   114dc:	fee78fa3          	sb	a4,-1(a5)
   114e0:	fef698e3          	bne	a3,a5,114d0 <memmove+0x48>
   114e4:	00008067          	ret
   114e8:	00a5e733          	or	a4,a1,a0
   114ec:	00377713          	andi	a4,a4,3
   114f0:	fc071ce3          	bnez	a4,114c8 <memmove+0x40>
   114f4:	00060693          	mv	a3,a2
   114f8:	00058713          	mv	a4,a1
   114fc:	00072803          	lw	a6,0(a4)
   11500:	01078793          	addi	a5,a5,16
   11504:	01070713          	addi	a4,a4,16
   11508:	ff07a823          	sw	a6,-16(a5)
   1150c:	ff472803          	lw	a6,-12(a4)
   11510:	ff068693          	addi	a3,a3,-16
   11514:	ff07aa23          	sw	a6,-12(a5)
   11518:	ff872803          	lw	a6,-8(a4)
   1151c:	ff07ac23          	sw	a6,-8(a5)
   11520:	ffc72803          	lw	a6,-4(a4)
   11524:	ff07ae23          	sw	a6,-4(a5)
   11528:	fcd8eae3          	bltu	a7,a3,114fc <memmove+0x74>
   1152c:	ff060713          	addi	a4,a2,-16
   11530:	ff077713          	andi	a4,a4,-16
   11534:	01070713          	addi	a4,a4,16
   11538:	00f67613          	andi	a2,a2,15
   1153c:	00300813          	li	a6,3
   11540:	00e507b3          	add	a5,a0,a4
   11544:	00e585b3          	add	a1,a1,a4
   11548:	00060693          	mv	a3,a2
   1154c:	f6c87ee3          	bleu	a2,a6,114c8 <memmove+0x40>
   11550:	00458593          	addi	a1,a1,4
   11554:	ffc5a703          	lw	a4,-4(a1)
   11558:	00478793          	addi	a5,a5,4
   1155c:	ffc60613          	addi	a2,a2,-4
   11560:	fee7ae23          	sw	a4,-4(a5)
   11564:	00060693          	mv	a3,a2
   11568:	fec864e3          	bltu	a6,a2,11550 <memmove+0xc8>
   1156c:	f5dff06f          	j	114c8 <memmove+0x40>

00011570 <__malloc_lock>:
   11570:	00008067          	ret

00011574 <__malloc_unlock>:
   11574:	00008067          	ret

00011578 <_realloc_r>:
   11578:	fd010113          	addi	sp,sp,-48
   1157c:	01312e23          	sw	s3,28(sp)
   11580:	02112623          	sw	ra,44(sp)
   11584:	02812423          	sw	s0,40(sp)
   11588:	02912223          	sw	s1,36(sp)
   1158c:	03212023          	sw	s2,32(sp)
   11590:	01412c23          	sw	s4,24(sp)
   11594:	01512a23          	sw	s5,20(sp)
   11598:	01612823          	sw	s6,16(sp)
   1159c:	01712623          	sw	s7,12(sp)
   115a0:	01812423          	sw	s8,8(sp)
   115a4:	01912223          	sw	s9,4(sp)
   115a8:	00060993          	mv	s3,a2
   115ac:	1c058863          	beqz	a1,1177c <_realloc_r+0x204>
   115b0:	00058a13          	mv	s4,a1
   115b4:	00050493          	mv	s1,a0
   115b8:	fb9ff0ef          	jal	11570 <__malloc_lock>
   115bc:	ffca2783          	lw	a5,-4(s4)
   115c0:	00b98713          	addi	a4,s3,11
   115c4:	01600693          	li	a3,22
   115c8:	ff8a0b13          	addi	s6,s4,-8
   115cc:	ffc7fa93          	andi	s5,a5,-4
   115d0:	0ce6f263          	bleu	a4,a3,11694 <_realloc_r+0x11c>
   115d4:	ff877913          	andi	s2,a4,-8
   115d8:	00090713          	mv	a4,s2
   115dc:	14094c63          	bltz	s2,11734 <_realloc_r+0x1bc>
   115e0:	15396a63          	bltu	s2,s3,11734 <_realloc_r+0x1bc>
   115e4:	0aeade63          	ble	a4,s5,116a0 <_realloc_r+0x128>
   115e8:	00014c37          	lui	s8,0x14
   115ec:	d08c0c13          	addi	s8,s8,-760 # 13d08 <__malloc_av_>
   115f0:	008c2683          	lw	a3,8(s8)
   115f4:	015b0533          	add	a0,s6,s5
   115f8:	30d50263          	beq	a0,a3,118fc <_realloc_r+0x384>
   115fc:	00452683          	lw	a3,4(a0)
   11600:	ffe6f613          	andi	a2,a3,-2
   11604:	00c50633          	add	a2,a0,a2
   11608:	00462603          	lw	a2,4(a2)
   1160c:	00167613          	andi	a2,a2,1
   11610:	0e060e63          	beqz	a2,1170c <_realloc_r+0x194>
   11614:	0017f793          	andi	a5,a5,1
   11618:	26078463          	beqz	a5,11880 <_realloc_r+0x308>
   1161c:	00098593          	mv	a1,s3
   11620:	00048513          	mv	a0,s1
   11624:	cf8ff0ef          	jal	10b1c <_malloc_r>
   11628:	00050413          	mv	s0,a0
   1162c:	4a050463          	beqz	a0,11ad4 <_realloc_r+0x55c>
   11630:	ffca2783          	lw	a5,-4(s4)
   11634:	ff850693          	addi	a3,a0,-8
   11638:	ffe7f713          	andi	a4,a5,-2
   1163c:	00eb0733          	add	a4,s6,a4
   11640:	42e68463          	beq	a3,a4,11a68 <_realloc_r+0x4f0>
   11644:	ffca8613          	addi	a2,s5,-4
   11648:	02400793          	li	a5,36
   1164c:	3cc7ea63          	bltu	a5,a2,11a20 <_realloc_r+0x4a8>
   11650:	01300713          	li	a4,19
   11654:	36c76a63          	bltu	a4,a2,119c8 <_realloc_r+0x450>
   11658:	00050793          	mv	a5,a0
   1165c:	000a0713          	mv	a4,s4
   11660:	00072683          	lw	a3,0(a4)
   11664:	00d7a023          	sw	a3,0(a5)
   11668:	00472683          	lw	a3,4(a4)
   1166c:	00d7a223          	sw	a3,4(a5)
   11670:	00872703          	lw	a4,8(a4)
   11674:	00e7a423          	sw	a4,8(a5)
   11678:	000a0593          	mv	a1,s4
   1167c:	00048513          	mv	a0,s1
   11680:	4fd000ef          	jal	1237c <_free_r>
   11684:	00048513          	mv	a0,s1
   11688:	eedff0ef          	jal	11574 <__malloc_unlock>
   1168c:	00040513          	mv	a0,s0
   11690:	0480006f          	j	116d8 <_realloc_r+0x160>
   11694:	01000713          	li	a4,16
   11698:	00070913          	mv	s2,a4
   1169c:	f45ff06f          	j	115e0 <_realloc_r+0x68>
   116a0:	000a0993          	mv	s3,s4
   116a4:	412a86b3          	sub	a3,s5,s2
   116a8:	00f00713          	li	a4,15
   116ac:	08d76c63          	bltu	a4,a3,11744 <_realloc_r+0x1cc>
   116b0:	0017f793          	andi	a5,a5,1
   116b4:	0157e7b3          	or	a5,a5,s5
   116b8:	00fb2223          	sw	a5,4(s6)
   116bc:	015b0633          	add	a2,s6,s5
   116c0:	00462783          	lw	a5,4(a2)
   116c4:	0017e793          	ori	a5,a5,1
   116c8:	00f62223          	sw	a5,4(a2)
   116cc:	00048513          	mv	a0,s1
   116d0:	ea5ff0ef          	jal	11574 <__malloc_unlock>
   116d4:	00098513          	mv	a0,s3
   116d8:	02c12083          	lw	ra,44(sp)
   116dc:	02812403          	lw	s0,40(sp)
   116e0:	02412483          	lw	s1,36(sp)
   116e4:	02012903          	lw	s2,32(sp)
   116e8:	01c12983          	lw	s3,28(sp)
   116ec:	01812a03          	lw	s4,24(sp)
   116f0:	01412a83          	lw	s5,20(sp)
   116f4:	01012b03          	lw	s6,16(sp)
   116f8:	00c12b83          	lw	s7,12(sp)
   116fc:	00812c03          	lw	s8,8(sp)
   11700:	00412c83          	lw	s9,4(sp)
   11704:	03010113          	addi	sp,sp,48
   11708:	00008067          	ret
   1170c:	ffc6f693          	andi	a3,a3,-4
   11710:	015686b3          	add	a3,a3,s5
   11714:	0ae6c063          	blt	a3,a4,117b4 <_realloc_r+0x23c>
   11718:	00c52703          	lw	a4,12(a0)
   1171c:	00852603          	lw	a2,8(a0)
   11720:	000a0993          	mv	s3,s4
   11724:	00068a93          	mv	s5,a3
   11728:	00e62623          	sw	a4,12(a2)
   1172c:	00c72423          	sw	a2,8(a4)
   11730:	f75ff06f          	j	116a4 <_realloc_r+0x12c>
   11734:	00c00793          	li	a5,12
   11738:	00f4a023          	sw	a5,0(s1)
   1173c:	00000513          	li	a0,0
   11740:	f99ff06f          	j	116d8 <_realloc_r+0x160>
   11744:	0017f713          	andi	a4,a5,1
   11748:	012b05b3          	add	a1,s6,s2
   1174c:	0016e793          	ori	a5,a3,1
   11750:	01276733          	or	a4,a4,s2
   11754:	00eb2223          	sw	a4,4(s6)
   11758:	00d586b3          	add	a3,a1,a3
   1175c:	00f5a223          	sw	a5,4(a1)
   11760:	0046a783          	lw	a5,4(a3)
   11764:	00858593          	addi	a1,a1,8
   11768:	00048513          	mv	a0,s1
   1176c:	0017e793          	ori	a5,a5,1
   11770:	00f6a223          	sw	a5,4(a3)
   11774:	409000ef          	jal	1237c <_free_r>
   11778:	f55ff06f          	j	116cc <_realloc_r+0x154>
   1177c:	02c12083          	lw	ra,44(sp)
   11780:	02812403          	lw	s0,40(sp)
   11784:	02412483          	lw	s1,36(sp)
   11788:	02012903          	lw	s2,32(sp)
   1178c:	01c12983          	lw	s3,28(sp)
   11790:	01812a03          	lw	s4,24(sp)
   11794:	01412a83          	lw	s5,20(sp)
   11798:	01012b03          	lw	s6,16(sp)
   1179c:	00c12b83          	lw	s7,12(sp)
   117a0:	00812c03          	lw	s8,8(sp)
   117a4:	00412c83          	lw	s9,4(sp)
   117a8:	00060593          	mv	a1,a2
   117ac:	03010113          	addi	sp,sp,48
   117b0:	b6cff06f          	j	10b1c <_malloc_r>
   117b4:	0017f793          	andi	a5,a5,1
   117b8:	e60792e3          	bnez	a5,1161c <_realloc_r+0xa4>
   117bc:	ff8a2b83          	lw	s7,-8(s4)
   117c0:	417b0bb3          	sub	s7,s6,s7
   117c4:	004ba783          	lw	a5,4(s7)
   117c8:	ffc7f793          	andi	a5,a5,-4
   117cc:	00f68433          	add	s0,a3,a5
   117d0:	0ce44063          	blt	s0,a4,11890 <_realloc_r+0x318>
   117d4:	00c52783          	lw	a5,12(a0)
   117d8:	00852703          	lw	a4,8(a0)
   117dc:	ffca8613          	addi	a2,s5,-4
   117e0:	008b8993          	addi	s3,s7,8
   117e4:	00f72623          	sw	a5,12(a4)
   117e8:	00e7a423          	sw	a4,8(a5)
   117ec:	008ba703          	lw	a4,8(s7)
   117f0:	00cba783          	lw	a5,12(s7)
   117f4:	00f72623          	sw	a5,12(a4)
   117f8:	00e7a423          	sw	a4,8(a5)
   117fc:	02400793          	li	a5,36
   11800:	22c7e663          	bltu	a5,a2,11a2c <_realloc_r+0x4b4>
   11804:	01300713          	li	a4,19
   11808:	00098793          	mv	a5,s3
   1180c:	04c77663          	bleu	a2,a4,11858 <_realloc_r+0x2e0>
   11810:	000a2783          	lw	a5,0(s4)
   11814:	00fba423          	sw	a5,8(s7)
   11818:	004a2783          	lw	a5,4(s4)
   1181c:	00fba623          	sw	a5,12(s7)
   11820:	01b00793          	li	a5,27
   11824:	24c7fc63          	bleu	a2,a5,11a7c <_realloc_r+0x504>
   11828:	008a2783          	lw	a5,8(s4)
   1182c:	00fba823          	sw	a5,16(s7)
   11830:	00ca2783          	lw	a5,12(s4)
   11834:	00fbaa23          	sw	a5,20(s7)
   11838:	02400793          	li	a5,36
   1183c:	0af61a63          	bne	a2,a5,118f0 <_realloc_r+0x378>
   11840:	010a2703          	lw	a4,16(s4)
   11844:	020b8793          	addi	a5,s7,32
   11848:	018a0a13          	addi	s4,s4,24
   1184c:	00ebac23          	sw	a4,24(s7)
   11850:	ffca2703          	lw	a4,-4(s4)
   11854:	00ebae23          	sw	a4,28(s7)
   11858:	000a2703          	lw	a4,0(s4)
   1185c:	00040a93          	mv	s5,s0
   11860:	000b8b13          	mv	s6,s7
   11864:	00e7a023          	sw	a4,0(a5)
   11868:	004a2703          	lw	a4,4(s4)
   1186c:	00e7a223          	sw	a4,4(a5)
   11870:	008a2703          	lw	a4,8(s4)
   11874:	00e7a423          	sw	a4,8(a5)
   11878:	004ba783          	lw	a5,4(s7)
   1187c:	e29ff06f          	j	116a4 <_realloc_r+0x12c>
   11880:	ff8a2b83          	lw	s7,-8(s4)
   11884:	417b0bb3          	sub	s7,s6,s7
   11888:	004ba783          	lw	a5,4(s7)
   1188c:	ffc7f793          	andi	a5,a5,-4
   11890:	00fa8433          	add	s0,s5,a5
   11894:	d8e444e3          	blt	s0,a4,1161c <_realloc_r+0xa4>
   11898:	00cba783          	lw	a5,12(s7)
   1189c:	008ba703          	lw	a4,8(s7)
   118a0:	ffca8613          	addi	a2,s5,-4
   118a4:	02400693          	li	a3,36
   118a8:	00f72623          	sw	a5,12(a4)
   118ac:	008b8993          	addi	s3,s7,8
   118b0:	00e7a423          	sw	a4,8(a5)
   118b4:	16c6ec63          	bltu	a3,a2,11a2c <_realloc_r+0x4b4>
   118b8:	01300713          	li	a4,19
   118bc:	00098793          	mv	a5,s3
   118c0:	f8c77ce3          	bleu	a2,a4,11858 <_realloc_r+0x2e0>
   118c4:	000a2783          	lw	a5,0(s4)
   118c8:	00fba423          	sw	a5,8(s7)
   118cc:	004a2783          	lw	a5,4(s4)
   118d0:	00fba623          	sw	a5,12(s7)
   118d4:	01b00793          	li	a5,27
   118d8:	1ac7f263          	bleu	a2,a5,11a7c <_realloc_r+0x504>
   118dc:	008a2783          	lw	a5,8(s4)
   118e0:	00fba823          	sw	a5,16(s7)
   118e4:	00ca2783          	lw	a5,12(s4)
   118e8:	00fbaa23          	sw	a5,20(s7)
   118ec:	f4d60ae3          	beq	a2,a3,11840 <_realloc_r+0x2c8>
   118f0:	018b8793          	addi	a5,s7,24
   118f4:	010a0a13          	addi	s4,s4,16
   118f8:	f61ff06f          	j	11858 <_realloc_r+0x2e0>
   118fc:	00452683          	lw	a3,4(a0)
   11900:	01090613          	addi	a2,s2,16
   11904:	ffc6f693          	andi	a3,a3,-4
   11908:	015686b3          	add	a3,a3,s5
   1190c:	0ec6d063          	ble	a2,a3,119ec <_realloc_r+0x474>
   11910:	0017f793          	andi	a5,a5,1
   11914:	d00794e3          	bnez	a5,1161c <_realloc_r+0xa4>
   11918:	ff8a2b83          	lw	s7,-8(s4)
   1191c:	417b0bb3          	sub	s7,s6,s7
   11920:	004ba783          	lw	a5,4(s7)
   11924:	ffc7f793          	andi	a5,a5,-4
   11928:	00d78cb3          	add	s9,a5,a3
   1192c:	f6ccc2e3          	blt	s9,a2,11890 <_realloc_r+0x318>
   11930:	00cba783          	lw	a5,12(s7)
   11934:	008ba703          	lw	a4,8(s7)
   11938:	ffca8613          	addi	a2,s5,-4
   1193c:	02400693          	li	a3,36
   11940:	00f72623          	sw	a5,12(a4)
   11944:	008b8413          	addi	s0,s7,8
   11948:	00e7a423          	sw	a4,8(a5)
   1194c:	14c6ec63          	bltu	a3,a2,11aa4 <_realloc_r+0x52c>
   11950:	01300713          	li	a4,19
   11954:	00040793          	mv	a5,s0
   11958:	02c77263          	bleu	a2,a4,1197c <_realloc_r+0x404>
   1195c:	000a2783          	lw	a5,0(s4)
   11960:	00fba423          	sw	a5,8(s7)
   11964:	004a2783          	lw	a5,4(s4)
   11968:	00fba623          	sw	a5,12(s7)
   1196c:	01b00793          	li	a5,27
   11970:	14c7e263          	bltu	a5,a2,11ab4 <_realloc_r+0x53c>
   11974:	010b8793          	addi	a5,s7,16
   11978:	008a0a13          	addi	s4,s4,8
   1197c:	000a2703          	lw	a4,0(s4)
   11980:	00e7a023          	sw	a4,0(a5)
   11984:	004a2703          	lw	a4,4(s4)
   11988:	00e7a223          	sw	a4,4(a5)
   1198c:	008a2703          	lw	a4,8(s4)
   11990:	00e7a423          	sw	a4,8(a5)
   11994:	412c86b3          	sub	a3,s9,s2
   11998:	012b87b3          	add	a5,s7,s2
   1199c:	0016e693          	ori	a3,a3,1
   119a0:	00fc2423          	sw	a5,8(s8)
   119a4:	00d7a223          	sw	a3,4(a5)
   119a8:	004ba703          	lw	a4,4(s7)
   119ac:	00048513          	mv	a0,s1
   119b0:	00177713          	andi	a4,a4,1
   119b4:	01276733          	or	a4,a4,s2
   119b8:	00eba223          	sw	a4,4(s7)
   119bc:	bb9ff0ef          	jal	11574 <__malloc_unlock>
   119c0:	00040513          	mv	a0,s0
   119c4:	d15ff06f          	j	116d8 <_realloc_r+0x160>
   119c8:	000a2703          	lw	a4,0(s4)
   119cc:	00e52023          	sw	a4,0(a0)
   119d0:	004a2703          	lw	a4,4(s4)
   119d4:	00e52223          	sw	a4,4(a0)
   119d8:	01b00713          	li	a4,27
   119dc:	06c76663          	bltu	a4,a2,11a48 <_realloc_r+0x4d0>
   119e0:	00850793          	addi	a5,a0,8
   119e4:	008a0713          	addi	a4,s4,8
   119e8:	c79ff06f          	j	11660 <_realloc_r+0xe8>
   119ec:	412686b3          	sub	a3,a3,s2
   119f0:	012b0b33          	add	s6,s6,s2
   119f4:	0016e693          	ori	a3,a3,1
   119f8:	016c2423          	sw	s6,8(s8)
   119fc:	00db2223          	sw	a3,4(s6)
   11a00:	ffca2703          	lw	a4,-4(s4)
   11a04:	00048513          	mv	a0,s1
   11a08:	00177713          	andi	a4,a4,1
   11a0c:	01276733          	or	a4,a4,s2
   11a10:	feea2e23          	sw	a4,-4(s4)
   11a14:	b61ff0ef          	jal	11574 <__malloc_unlock>
   11a18:	000a0513          	mv	a0,s4
   11a1c:	cbdff06f          	j	116d8 <_realloc_r+0x160>
   11a20:	000a0593          	mv	a1,s4
   11a24:	a65ff0ef          	jal	11488 <memmove>
   11a28:	c51ff06f          	j	11678 <_realloc_r+0x100>
   11a2c:	000a0593          	mv	a1,s4
   11a30:	00098513          	mv	a0,s3
   11a34:	a55ff0ef          	jal	11488 <memmove>
   11a38:	00040a93          	mv	s5,s0
   11a3c:	004ba783          	lw	a5,4(s7)
   11a40:	000b8b13          	mv	s6,s7
   11a44:	c61ff06f          	j	116a4 <_realloc_r+0x12c>
   11a48:	008a2703          	lw	a4,8(s4)
   11a4c:	00e52423          	sw	a4,8(a0)
   11a50:	00ca2703          	lw	a4,12(s4)
   11a54:	00e52623          	sw	a4,12(a0)
   11a58:	02f60863          	beq	a2,a5,11a88 <_realloc_r+0x510>
   11a5c:	01050793          	addi	a5,a0,16
   11a60:	010a0713          	addi	a4,s4,16
   11a64:	bfdff06f          	j	11660 <_realloc_r+0xe8>
   11a68:	ffc52703          	lw	a4,-4(a0)
   11a6c:	000a0993          	mv	s3,s4
   11a70:	ffc77713          	andi	a4,a4,-4
   11a74:	00ea8ab3          	add	s5,s5,a4
   11a78:	c2dff06f          	j	116a4 <_realloc_r+0x12c>
   11a7c:	010b8793          	addi	a5,s7,16
   11a80:	008a0a13          	addi	s4,s4,8
   11a84:	dd5ff06f          	j	11858 <_realloc_r+0x2e0>
   11a88:	010a2683          	lw	a3,16(s4)
   11a8c:	01850793          	addi	a5,a0,24
   11a90:	018a0713          	addi	a4,s4,24
   11a94:	00d52823          	sw	a3,16(a0)
   11a98:	014a2683          	lw	a3,20(s4)
   11a9c:	00d52a23          	sw	a3,20(a0)
   11aa0:	bc1ff06f          	j	11660 <_realloc_r+0xe8>
   11aa4:	000a0593          	mv	a1,s4
   11aa8:	00040513          	mv	a0,s0
   11aac:	9ddff0ef          	jal	11488 <memmove>
   11ab0:	ee5ff06f          	j	11994 <_realloc_r+0x41c>
   11ab4:	008a2783          	lw	a5,8(s4)
   11ab8:	00fba823          	sw	a5,16(s7)
   11abc:	00ca2783          	lw	a5,12(s4)
   11ac0:	00fbaa23          	sw	a5,20(s7)
   11ac4:	02d60063          	beq	a2,a3,11ae4 <_realloc_r+0x56c>
   11ac8:	018b8793          	addi	a5,s7,24
   11acc:	010a0a13          	addi	s4,s4,16
   11ad0:	eadff06f          	j	1197c <_realloc_r+0x404>
   11ad4:	00048513          	mv	a0,s1
   11ad8:	a9dff0ef          	jal	11574 <__malloc_unlock>
   11adc:	00000513          	li	a0,0
   11ae0:	bf9ff06f          	j	116d8 <_realloc_r+0x160>
   11ae4:	010a2703          	lw	a4,16(s4)
   11ae8:	020b8793          	addi	a5,s7,32
   11aec:	018a0a13          	addi	s4,s4,24
   11af0:	00ebac23          	sw	a4,24(s7)
   11af4:	ffca2703          	lw	a4,-4(s4)
   11af8:	00ebae23          	sw	a4,28(s7)
   11afc:	e81ff06f          	j	1197c <_realloc_r+0x404>

00011b00 <__swsetup_r>:
   11b00:	8081a783          	lw	a5,-2040(gp) # 14118 <_impure_ptr>
   11b04:	ff010113          	addi	sp,sp,-16
   11b08:	00812423          	sw	s0,8(sp)
   11b0c:	00912223          	sw	s1,4(sp)
   11b10:	00112623          	sw	ra,12(sp)
   11b14:	00050493          	mv	s1,a0
   11b18:	00058413          	mv	s0,a1
   11b1c:	00078663          	beqz	a5,11b28 <__swsetup_r+0x28>
   11b20:	0387a703          	lw	a4,56(a5)
   11b24:	0e070063          	beqz	a4,11c04 <__swsetup_r+0x104>
   11b28:	00c41703          	lh	a4,12(s0)
   11b2c:	01071793          	slli	a5,a4,0x10
   11b30:	0107d793          	srli	a5,a5,0x10
   11b34:	0087f693          	andi	a3,a5,8
   11b38:	04068263          	beqz	a3,11b7c <__swsetup_r+0x7c>
   11b3c:	01042683          	lw	a3,16(s0)
   11b40:	06068263          	beqz	a3,11ba4 <__swsetup_r+0xa4>
   11b44:	0017f713          	andi	a4,a5,1
   11b48:	08071063          	bnez	a4,11bc8 <__swsetup_r+0xc8>
   11b4c:	0027f793          	andi	a5,a5,2
   11b50:	00000713          	li	a4,0
   11b54:	00079463          	bnez	a5,11b5c <__swsetup_r+0x5c>
   11b58:	01442703          	lw	a4,20(s0)
   11b5c:	00e42423          	sw	a4,8(s0)
   11b60:	00000513          	li	a0,0
   11b64:	06068e63          	beqz	a3,11be0 <__swsetup_r+0xe0>
   11b68:	00c12083          	lw	ra,12(sp)
   11b6c:	00812403          	lw	s0,8(sp)
   11b70:	00412483          	lw	s1,4(sp)
   11b74:	01010113          	addi	sp,sp,16
   11b78:	00008067          	ret
   11b7c:	0107f693          	andi	a3,a5,16
   11b80:	0c068263          	beqz	a3,11c44 <__swsetup_r+0x144>
   11b84:	0047f793          	andi	a5,a5,4
   11b88:	08079463          	bnez	a5,11c10 <__swsetup_r+0x110>
   11b8c:	01042683          	lw	a3,16(s0)
   11b90:	00876793          	ori	a5,a4,8
   11b94:	00f41623          	sh	a5,12(s0)
   11b98:	01079793          	slli	a5,a5,0x10
   11b9c:	0107d793          	srli	a5,a5,0x10
   11ba0:	fa0692e3          	bnez	a3,11b44 <__swsetup_r+0x44>
   11ba4:	2807f713          	andi	a4,a5,640
   11ba8:	20000613          	li	a2,512
   11bac:	f8c70ce3          	beq	a4,a2,11b44 <__swsetup_r+0x44>
   11bb0:	00040593          	mv	a1,s0
   11bb4:	00048513          	mv	a0,s1
   11bb8:	3f9000ef          	jal	127b0 <__smakebuf_r>
   11bbc:	00c45783          	lhu	a5,12(s0)
   11bc0:	01042683          	lw	a3,16(s0)
   11bc4:	f81ff06f          	j	11b44 <__swsetup_r+0x44>
   11bc8:	01442783          	lw	a5,20(s0)
   11bcc:	00042423          	sw	zero,8(s0)
   11bd0:	00000513          	li	a0,0
   11bd4:	40f007b3          	neg	a5,a5
   11bd8:	00f42c23          	sw	a5,24(s0)
   11bdc:	f80696e3          	bnez	a3,11b68 <__swsetup_r+0x68>
   11be0:	00c45783          	lhu	a5,12(s0)
   11be4:	0807f793          	andi	a5,a5,128
   11be8:	04079e63          	bnez	a5,11c44 <__swsetup_r+0x144>
   11bec:	00c12083          	lw	ra,12(sp)
   11bf0:	00068513          	mv	a0,a3
   11bf4:	00812403          	lw	s0,8(sp)
   11bf8:	00412483          	lw	s1,4(sp)
   11bfc:	01010113          	addi	sp,sp,16
   11c00:	00008067          	ret
   11c04:	00078513          	mv	a0,a5
   11c08:	634000ef          	jal	1223c <__sinit>
   11c0c:	f1dff06f          	j	11b28 <__swsetup_r+0x28>
   11c10:	03042583          	lw	a1,48(s0)
   11c14:	00058e63          	beqz	a1,11c30 <__swsetup_r+0x130>
   11c18:	04040793          	addi	a5,s0,64
   11c1c:	00f58863          	beq	a1,a5,11c2c <__swsetup_r+0x12c>
   11c20:	00048513          	mv	a0,s1
   11c24:	758000ef          	jal	1237c <_free_r>
   11c28:	00c41703          	lh	a4,12(s0)
   11c2c:	02042823          	sw	zero,48(s0)
   11c30:	01042683          	lw	a3,16(s0)
   11c34:	fdb77713          	andi	a4,a4,-37
   11c38:	00042223          	sw	zero,4(s0)
   11c3c:	00d42023          	sw	a3,0(s0)
   11c40:	f51ff06f          	j	11b90 <__swsetup_r+0x90>
   11c44:	fff00513          	li	a0,-1
   11c48:	f21ff06f          	j	11b68 <__swsetup_r+0x68>

00011c4c <_fflush_r>:
   11c4c:	fe010113          	addi	sp,sp,-32
   11c50:	00812c23          	sw	s0,24(sp)
   11c54:	01312623          	sw	s3,12(sp)
   11c58:	00112e23          	sw	ra,28(sp)
   11c5c:	00912a23          	sw	s1,20(sp)
   11c60:	01212823          	sw	s2,16(sp)
   11c64:	00050993          	mv	s3,a0
   11c68:	00058413          	mv	s0,a1
   11c6c:	00050663          	beqz	a0,11c78 <_fflush_r+0x2c>
   11c70:	03852783          	lw	a5,56(a0)
   11c74:	18078863          	beqz	a5,11e04 <_fflush_r+0x1b8>
   11c78:	00c41783          	lh	a5,12(s0)
   11c7c:	10078063          	beqz	a5,11d7c <_fflush_r+0x130>
   11c80:	0087f713          	andi	a4,a5,8
   11c84:	10071c63          	bnez	a4,11d9c <_fflush_r+0x150>
   11c88:	00001737          	lui	a4,0x1
   11c8c:	00442683          	lw	a3,4(s0)
   11c90:	80070713          	addi	a4,a4,-2048 # 800 <_ftext-0xf800>
   11c94:	00e7e7b3          	or	a5,a5,a4
   11c98:	00f41623          	sh	a5,12(s0)
   11c9c:	1ad05663          	blez	a3,11e48 <_fflush_r+0x1fc>
   11ca0:	02842803          	lw	a6,40(s0)
   11ca4:	0c080c63          	beqz	a6,11d7c <_fflush_r+0x130>
   11ca8:	01079793          	slli	a5,a5,0x10
   11cac:	0107d793          	srli	a5,a5,0x10
   11cb0:	01379693          	slli	a3,a5,0x13
   11cb4:	0009a483          	lw	s1,0(s3)
   11cb8:	0009a023          	sw	zero,0(s3)
   11cbc:	1406dc63          	bgez	a3,11e14 <_fflush_r+0x1c8>
   11cc0:	05042603          	lw	a2,80(s0)
   11cc4:	41f65693          	srai	a3,a2,0x1f
   11cc8:	0047f793          	andi	a5,a5,4
   11ccc:	04078263          	beqz	a5,11d10 <_fflush_r+0xc4>
   11cd0:	00442503          	lw	a0,4(s0)
   11cd4:	03042703          	lw	a4,48(s0)
   11cd8:	40a607b3          	sub	a5,a2,a0
   11cdc:	41f55513          	srai	a0,a0,0x1f
   11ce0:	00f635b3          	sltu	a1,a2,a5
   11ce4:	40a686b3          	sub	a3,a3,a0
   11ce8:	00078613          	mv	a2,a5
   11cec:	40b686b3          	sub	a3,a3,a1
   11cf0:	02070063          	beqz	a4,11d10 <_fflush_r+0xc4>
   11cf4:	03c42503          	lw	a0,60(s0)
   11cf8:	40a787b3          	sub	a5,a5,a0
   11cfc:	41f55513          	srai	a0,a0,0x1f
   11d00:	00f63733          	sltu	a4,a2,a5
   11d04:	40a686b3          	sub	a3,a3,a0
   11d08:	00078613          	mv	a2,a5
   11d0c:	40e686b3          	sub	a3,a3,a4
   11d10:	01c42583          	lw	a1,28(s0)
   11d14:	00000713          	li	a4,0
   11d18:	00098513          	mv	a0,s3
   11d1c:	000800e7          	jalr	a6
   11d20:	fff00793          	li	a5,-1
   11d24:	12f50863          	beq	a0,a5,11e54 <_fflush_r+0x208>
   11d28:	00c45683          	lhu	a3,12(s0)
   11d2c:	fffff7b7          	lui	a5,0xfffff
   11d30:	7ff78793          	addi	a5,a5,2047 # fffff7ff <_gp+0xfffeaeef>
   11d34:	01042703          	lw	a4,16(s0)
   11d38:	00f6f7b3          	and	a5,a3,a5
   11d3c:	01079793          	slli	a5,a5,0x10
   11d40:	4107d793          	srai	a5,a5,0x10
   11d44:	00e42023          	sw	a4,0(s0)
   11d48:	01379713          	slli	a4,a5,0x13
   11d4c:	00f41623          	sh	a5,12(s0)
   11d50:	00042223          	sw	zero,4(s0)
   11d54:	00075463          	bgez	a4,11d5c <_fflush_r+0x110>
   11d58:	04a42823          	sw	a0,80(s0)
   11d5c:	03042583          	lw	a1,48(s0)
   11d60:	0099a023          	sw	s1,0(s3)
   11d64:	00058c63          	beqz	a1,11d7c <_fflush_r+0x130>
   11d68:	04040793          	addi	a5,s0,64
   11d6c:	00f58663          	beq	a1,a5,11d78 <_fflush_r+0x12c>
   11d70:	00098513          	mv	a0,s3
   11d74:	608000ef          	jal	1237c <_free_r>
   11d78:	02042823          	sw	zero,48(s0)
   11d7c:	00000513          	li	a0,0
   11d80:	01c12083          	lw	ra,28(sp)
   11d84:	01812403          	lw	s0,24(sp)
   11d88:	01412483          	lw	s1,20(sp)
   11d8c:	01012903          	lw	s2,16(sp)
   11d90:	00c12983          	lw	s3,12(sp)
   11d94:	02010113          	addi	sp,sp,32
   11d98:	00008067          	ret
   11d9c:	01042903          	lw	s2,16(s0)
   11da0:	fc090ee3          	beqz	s2,11d7c <_fflush_r+0x130>
   11da4:	00042483          	lw	s1,0(s0)
   11da8:	0037f793          	andi	a5,a5,3
   11dac:	01242023          	sw	s2,0(s0)
   11db0:	412484b3          	sub	s1,s1,s2
   11db4:	00000713          	li	a4,0
   11db8:	04078a63          	beqz	a5,11e0c <_fflush_r+0x1c0>
   11dbc:	00e42423          	sw	a4,8(s0)
   11dc0:	00904863          	bgtz	s1,11dd0 <_fflush_r+0x184>
   11dc4:	fb9ff06f          	j	11d7c <_fflush_r+0x130>
   11dc8:	00a90933          	add	s2,s2,a0
   11dcc:	fa9058e3          	blez	s1,11d7c <_fflush_r+0x130>
   11dd0:	02442783          	lw	a5,36(s0)
   11dd4:	01c42583          	lw	a1,28(s0)
   11dd8:	00048693          	mv	a3,s1
   11ddc:	00090613          	mv	a2,s2
   11de0:	00098513          	mv	a0,s3
   11de4:	000780e7          	jalr	a5
   11de8:	40a484b3          	sub	s1,s1,a0
   11dec:	fca04ee3          	bgtz	a0,11dc8 <_fflush_r+0x17c>
   11df0:	00c45783          	lhu	a5,12(s0)
   11df4:	fff00513          	li	a0,-1
   11df8:	0407e793          	ori	a5,a5,64
   11dfc:	00f41623          	sh	a5,12(s0)
   11e00:	f81ff06f          	j	11d80 <_fflush_r+0x134>
   11e04:	438000ef          	jal	1223c <__sinit>
   11e08:	e71ff06f          	j	11c78 <_fflush_r+0x2c>
   11e0c:	01442703          	lw	a4,20(s0)
   11e10:	fadff06f          	j	11dbc <_fflush_r+0x170>
   11e14:	01c42583          	lw	a1,28(s0)
   11e18:	00000613          	li	a2,0
   11e1c:	00000693          	li	a3,0
   11e20:	00100713          	li	a4,1
   11e24:	00098513          	mv	a0,s3
   11e28:	000800e7          	jalr	a6
   11e2c:	fff00793          	li	a5,-1
   11e30:	00050613          	mv	a2,a0
   11e34:	00058693          	mv	a3,a1
   11e38:	06f50c63          	beq	a0,a5,11eb0 <_fflush_r+0x264>
   11e3c:	00c45783          	lhu	a5,12(s0)
   11e40:	02842803          	lw	a6,40(s0)
   11e44:	e85ff06f          	j	11cc8 <_fflush_r+0x7c>
   11e48:	03c42703          	lw	a4,60(s0)
   11e4c:	e4e04ae3          	bgtz	a4,11ca0 <_fflush_r+0x54>
   11e50:	f2dff06f          	j	11d7c <_fflush_r+0x130>
   11e54:	eca59ae3          	bne	a1,a0,11d28 <_fflush_r+0xdc>
   11e58:	0009a703          	lw	a4,0(s3)
   11e5c:	01d00793          	li	a5,29
   11e60:	f8e7e8e3          	bltu	a5,a4,11df0 <_fflush_r+0x1a4>
   11e64:	204007b7          	lui	a5,0x20400
   11e68:	00178793          	addi	a5,a5,1 # 20400001 <_gp+0x203eb6f1>
   11e6c:	00e7d7b3          	srl	a5,a5,a4
   11e70:	0017f793          	andi	a5,a5,1
   11e74:	f6078ee3          	beqz	a5,11df0 <_fflush_r+0x1a4>
   11e78:	00c45603          	lhu	a2,12(s0)
   11e7c:	fffff7b7          	lui	a5,0xfffff
   11e80:	7ff78793          	addi	a5,a5,2047 # fffff7ff <_gp+0xfffeaeef>
   11e84:	01042683          	lw	a3,16(s0)
   11e88:	00f677b3          	and	a5,a2,a5
   11e8c:	01079793          	slli	a5,a5,0x10
   11e90:	4107d793          	srai	a5,a5,0x10
   11e94:	00d42023          	sw	a3,0(s0)
   11e98:	01379693          	slli	a3,a5,0x13
   11e9c:	00f41623          	sh	a5,12(s0)
   11ea0:	00042223          	sw	zero,4(s0)
   11ea4:	ea06dce3          	bgez	a3,11d5c <_fflush_r+0x110>
   11ea8:	ea071ae3          	bnez	a4,11d5c <_fflush_r+0x110>
   11eac:	eadff06f          	j	11d58 <_fflush_r+0x10c>
   11eb0:	f8a596e3          	bne	a1,a0,11e3c <_fflush_r+0x1f0>
   11eb4:	0009a783          	lw	a5,0(s3)
   11eb8:	f80782e3          	beqz	a5,11e3c <_fflush_r+0x1f0>
   11ebc:	01d00713          	li	a4,29
   11ec0:	00e78663          	beq	a5,a4,11ecc <_fflush_r+0x280>
   11ec4:	01600713          	li	a4,22
   11ec8:	00e79863          	bne	a5,a4,11ed8 <_fflush_r+0x28c>
   11ecc:	0099a023          	sw	s1,0(s3)
   11ed0:	00000513          	li	a0,0
   11ed4:	eadff06f          	j	11d80 <_fflush_r+0x134>
   11ed8:	00c45783          	lhu	a5,12(s0)
   11edc:	00058513          	mv	a0,a1
   11ee0:	0407e793          	ori	a5,a5,64
   11ee4:	00f41623          	sh	a5,12(s0)
   11ee8:	e99ff06f          	j	11d80 <_fflush_r+0x134>

00011eec <fflush>:
   11eec:	00050593          	mv	a1,a0
   11ef0:	00050663          	beqz	a0,11efc <fflush+0x10>
   11ef4:	8081a503          	lw	a0,-2040(gp) # 14118 <_impure_ptr>
   11ef8:	d55ff06f          	j	11c4c <_fflush_r>
   11efc:	8041a503          	lw	a0,-2044(gp) # 14114 <_global_impure_ptr>
   11f00:	000125b7          	lui	a1,0x12
   11f04:	c4c58593          	addi	a1,a1,-948 # 11c4c <_fflush_r>
   11f08:	7f40006f          	j	126fc <_fwalk_reent>

00011f0c <__fp_unlock>:
   11f0c:	00000513          	li	a0,0
   11f10:	00008067          	ret

00011f14 <_cleanup_r>:
   11f14:	000135b7          	lui	a1,0x13
   11f18:	c7058593          	addi	a1,a1,-912 # 12c70 <fclose>
   11f1c:	73c0006f          	j	12658 <_fwalk>

00011f20 <__sinit.part.1>:
   11f20:	fd010113          	addi	sp,sp,-48
   11f24:	000127b7          	lui	a5,0x12
   11f28:	02812423          	sw	s0,40(sp)
   11f2c:	f1478793          	addi	a5,a5,-236 # 11f14 <_cleanup_r>
   11f30:	00452403          	lw	s0,4(a0)
   11f34:	02112623          	sw	ra,44(sp)
   11f38:	02912223          	sw	s1,36(sp)
   11f3c:	03212023          	sw	s2,32(sp)
   11f40:	01312e23          	sw	s3,28(sp)
   11f44:	01412c23          	sw	s4,24(sp)
   11f48:	01512a23          	sw	s5,20(sp)
   11f4c:	01612823          	sw	s6,16(sp)
   11f50:	01712623          	sw	s7,12(sp)
   11f54:	02f52e23          	sw	a5,60(a0)
   11f58:	00300793          	li	a5,3
   11f5c:	2ef52223          	sw	a5,740(a0)
   11f60:	2ec50713          	addi	a4,a0,748
   11f64:	00100b93          	li	s7,1
   11f68:	00400793          	li	a5,4
   11f6c:	2ee52423          	sw	a4,744(a0)
   11f70:	03752c23          	sw	s7,56(a0)
   11f74:	2e052023          	sw	zero,736(a0)
   11f78:	00050913          	mv	s2,a0
   11f7c:	00f41623          	sh	a5,12(s0)
   11f80:	00800613          	li	a2,8
   11f84:	00000593          	li	a1,0
   11f88:	00042023          	sw	zero,0(s0)
   11f8c:	00042223          	sw	zero,4(s0)
   11f90:	00042423          	sw	zero,8(s0)
   11f94:	06042223          	sw	zero,100(s0)
   11f98:	00041723          	sh	zero,14(s0)
   11f9c:	00042823          	sw	zero,16(s0)
   11fa0:	00042a23          	sw	zero,20(s0)
   11fa4:	00042c23          	sw	zero,24(s0)
   11fa8:	05c40513          	addi	a0,s0,92
   11fac:	195000ef          	jal	12940 <memset>
   11fb0:	00892483          	lw	s1,8(s2)
   11fb4:	00013b37          	lui	s6,0x13
   11fb8:	00013ab7          	lui	s5,0x13
   11fbc:	00013a37          	lui	s4,0x13
   11fc0:	000139b7          	lui	s3,0x13
   11fc4:	a1cb0b13          	addi	s6,s6,-1508 # 12a1c <__sread>
   11fc8:	a88a8a93          	addi	s5,s5,-1400 # 12a88 <__swrite>
   11fcc:	b00a0a13          	addi	s4,s4,-1280 # 12b00 <__sseek>
   11fd0:	b6898993          	addi	s3,s3,-1176 # 12b68 <__sclose>
   11fd4:	00900793          	li	a5,9
   11fd8:	03642023          	sw	s6,32(s0)
   11fdc:	03542223          	sw	s5,36(s0)
   11fe0:	03442423          	sw	s4,40(s0)
   11fe4:	03342623          	sw	s3,44(s0)
   11fe8:	00842e23          	sw	s0,28(s0)
   11fec:	00800613          	li	a2,8
   11ff0:	00f49623          	sh	a5,12(s1)
   11ff4:	01749723          	sh	s7,14(s1)
   11ff8:	00000593          	li	a1,0
   11ffc:	0004a023          	sw	zero,0(s1)
   12000:	0004a223          	sw	zero,4(s1)
   12004:	0004a423          	sw	zero,8(s1)
   12008:	0604a223          	sw	zero,100(s1)
   1200c:	0004a823          	sw	zero,16(s1)
   12010:	0004aa23          	sw	zero,20(s1)
   12014:	0004ac23          	sw	zero,24(s1)
   12018:	05c48513          	addi	a0,s1,92
   1201c:	125000ef          	jal	12940 <memset>
   12020:	00c92403          	lw	s0,12(s2)
   12024:	01200793          	li	a5,18
   12028:	0364a023          	sw	s6,32(s1)
   1202c:	0354a223          	sw	s5,36(s1)
   12030:	0344a423          	sw	s4,40(s1)
   12034:	0334a623          	sw	s3,44(s1)
   12038:	0094ae23          	sw	s1,28(s1)
   1203c:	00f41623          	sh	a5,12(s0)
   12040:	00200793          	li	a5,2
   12044:	00042023          	sw	zero,0(s0)
   12048:	00042223          	sw	zero,4(s0)
   1204c:	00042423          	sw	zero,8(s0)
   12050:	06042223          	sw	zero,100(s0)
   12054:	00f41723          	sh	a5,14(s0)
   12058:	00042823          	sw	zero,16(s0)
   1205c:	00042a23          	sw	zero,20(s0)
   12060:	00042c23          	sw	zero,24(s0)
   12064:	05c40513          	addi	a0,s0,92
   12068:	00800613          	li	a2,8
   1206c:	00000593          	li	a1,0
   12070:	0d1000ef          	jal	12940 <memset>
   12074:	02c12083          	lw	ra,44(sp)
   12078:	03642023          	sw	s6,32(s0)
   1207c:	03542223          	sw	s5,36(s0)
   12080:	03442423          	sw	s4,40(s0)
   12084:	03342623          	sw	s3,44(s0)
   12088:	00842e23          	sw	s0,28(s0)
   1208c:	02412483          	lw	s1,36(sp)
   12090:	02812403          	lw	s0,40(sp)
   12094:	02012903          	lw	s2,32(sp)
   12098:	01c12983          	lw	s3,28(sp)
   1209c:	01812a03          	lw	s4,24(sp)
   120a0:	01412a83          	lw	s5,20(sp)
   120a4:	01012b03          	lw	s6,16(sp)
   120a8:	00c12b83          	lw	s7,12(sp)
   120ac:	03010113          	addi	sp,sp,48
   120b0:	00008067          	ret

000120b4 <__fp_lock>:
   120b4:	00000513          	li	a0,0
   120b8:	00008067          	ret

000120bc <__sfmoreglue>:
   120bc:	ff010113          	addi	sp,sp,-16
   120c0:	00912223          	sw	s1,4(sp)
   120c4:	06800493          	li	s1,104
   120c8:	029584b3          	mul	s1,a1,s1
   120cc:	01212023          	sw	s2,0(sp)
   120d0:	00058913          	mv	s2,a1
   120d4:	00812423          	sw	s0,8(sp)
   120d8:	00112623          	sw	ra,12(sp)
   120dc:	00c48593          	addi	a1,s1,12
   120e0:	a3dfe0ef          	jal	10b1c <_malloc_r>
   120e4:	00050413          	mv	s0,a0
   120e8:	02050063          	beqz	a0,12108 <__sfmoreglue+0x4c>
   120ec:	00c50513          	addi	a0,a0,12
   120f0:	00042023          	sw	zero,0(s0)
   120f4:	01242223          	sw	s2,4(s0)
   120f8:	00a42423          	sw	a0,8(s0)
   120fc:	00048613          	mv	a2,s1
   12100:	00000593          	li	a1,0
   12104:	03d000ef          	jal	12940 <memset>
   12108:	00c12083          	lw	ra,12(sp)
   1210c:	00040513          	mv	a0,s0
   12110:	00412483          	lw	s1,4(sp)
   12114:	00812403          	lw	s0,8(sp)
   12118:	00012903          	lw	s2,0(sp)
   1211c:	01010113          	addi	sp,sp,16
   12120:	00008067          	ret

00012124 <__sfp>:
   12124:	fe010113          	addi	sp,sp,-32
   12128:	01212823          	sw	s2,16(sp)
   1212c:	8041a903          	lw	s2,-2044(gp) # 14114 <_global_impure_ptr>
   12130:	01312623          	sw	s3,12(sp)
   12134:	00112e23          	sw	ra,28(sp)
   12138:	03892783          	lw	a5,56(s2)
   1213c:	00812c23          	sw	s0,24(sp)
   12140:	00912a23          	sw	s1,20(sp)
   12144:	00050993          	mv	s3,a0
   12148:	00079663          	bnez	a5,12154 <__sfp+0x30>
   1214c:	00090513          	mv	a0,s2
   12150:	dd1ff0ef          	jal	11f20 <__sinit.part.1>
   12154:	2e090913          	addi	s2,s2,736
   12158:	fff00493          	li	s1,-1
   1215c:	00492783          	lw	a5,4(s2)
   12160:	00892403          	lw	s0,8(s2)
   12164:	fff78793          	addi	a5,a5,-1
   12168:	0007da63          	bgez	a5,1217c <__sfp+0x58>
   1216c:	0840006f          	j	121f0 <__sfp+0xcc>
   12170:	fff78793          	addi	a5,a5,-1
   12174:	06840413          	addi	s0,s0,104
   12178:	06978c63          	beq	a5,s1,121f0 <__sfp+0xcc>
   1217c:	00c41703          	lh	a4,12(s0)
   12180:	fe0718e3          	bnez	a4,12170 <__sfp+0x4c>
   12184:	fff00793          	li	a5,-1
   12188:	00f41723          	sh	a5,14(s0)
   1218c:	00100793          	li	a5,1
   12190:	00f41623          	sh	a5,12(s0)
   12194:	06042223          	sw	zero,100(s0)
   12198:	00042023          	sw	zero,0(s0)
   1219c:	00042423          	sw	zero,8(s0)
   121a0:	00042223          	sw	zero,4(s0)
   121a4:	00042823          	sw	zero,16(s0)
   121a8:	00042a23          	sw	zero,20(s0)
   121ac:	00042c23          	sw	zero,24(s0)
   121b0:	00800613          	li	a2,8
   121b4:	00000593          	li	a1,0
   121b8:	05c40513          	addi	a0,s0,92
   121bc:	784000ef          	jal	12940 <memset>
   121c0:	02042823          	sw	zero,48(s0)
   121c4:	02042a23          	sw	zero,52(s0)
   121c8:	04042223          	sw	zero,68(s0)
   121cc:	04042423          	sw	zero,72(s0)
   121d0:	00040513          	mv	a0,s0
   121d4:	01c12083          	lw	ra,28(sp)
   121d8:	01812403          	lw	s0,24(sp)
   121dc:	01412483          	lw	s1,20(sp)
   121e0:	01012903          	lw	s2,16(sp)
   121e4:	00c12983          	lw	s3,12(sp)
   121e8:	02010113          	addi	sp,sp,32
   121ec:	00008067          	ret
   121f0:	00092783          	lw	a5,0(s2)
   121f4:	00078663          	beqz	a5,12200 <__sfp+0xdc>
   121f8:	00078913          	mv	s2,a5
   121fc:	f61ff06f          	j	1215c <__sfp+0x38>
   12200:	00400593          	li	a1,4
   12204:	00098513          	mv	a0,s3
   12208:	eb5ff0ef          	jal	120bc <__sfmoreglue>
   1220c:	00a92023          	sw	a0,0(s2)
   12210:	00050663          	beqz	a0,1221c <__sfp+0xf8>
   12214:	00050913          	mv	s2,a0
   12218:	f45ff06f          	j	1215c <__sfp+0x38>
   1221c:	00c00793          	li	a5,12
   12220:	00f9a023          	sw	a5,0(s3)
   12224:	00000513          	li	a0,0
   12228:	fadff06f          	j	121d4 <__sfp+0xb0>

0001222c <_cleanup>:
   1222c:	8041a503          	lw	a0,-2044(gp) # 14114 <_global_impure_ptr>
   12230:	000135b7          	lui	a1,0x13
   12234:	c7058593          	addi	a1,a1,-912 # 12c70 <fclose>
   12238:	4200006f          	j	12658 <_fwalk>

0001223c <__sinit>:
   1223c:	03852783          	lw	a5,56(a0)
   12240:	00078463          	beqz	a5,12248 <__sinit+0xc>
   12244:	00008067          	ret
   12248:	cd9ff06f          	j	11f20 <__sinit.part.1>

0001224c <__sfp_lock_acquire>:
   1224c:	00008067          	ret

00012250 <__sfp_lock_release>:
   12250:	00008067          	ret

00012254 <__sinit_lock_acquire>:
   12254:	00008067          	ret

00012258 <__sinit_lock_release>:
   12258:	00008067          	ret

0001225c <__fp_lock_all>:
   1225c:	8081a503          	lw	a0,-2040(gp) # 14118 <_impure_ptr>
   12260:	000125b7          	lui	a1,0x12
   12264:	0b458593          	addi	a1,a1,180 # 120b4 <__fp_lock>
   12268:	3f00006f          	j	12658 <_fwalk>

0001226c <__fp_unlock_all>:
   1226c:	8081a503          	lw	a0,-2040(gp) # 14118 <_impure_ptr>
   12270:	000125b7          	lui	a1,0x12
   12274:	f0c58593          	addi	a1,a1,-244 # 11f0c <__fp_unlock>
   12278:	3e00006f          	j	12658 <_fwalk>

0001227c <_malloc_trim_r>:
   1227c:	fe010113          	addi	sp,sp,-32
   12280:	01212823          	sw	s2,16(sp)
   12284:	00014937          	lui	s2,0x14
   12288:	d0890913          	addi	s2,s2,-760 # 13d08 <__malloc_av_>
   1228c:	00812c23          	sw	s0,24(sp)
   12290:	00912a23          	sw	s1,20(sp)
   12294:	00058413          	mv	s0,a1
   12298:	01312623          	sw	s3,12(sp)
   1229c:	00112e23          	sw	ra,28(sp)
   122a0:	00050993          	mv	s3,a0
   122a4:	accff0ef          	jal	11570 <__malloc_lock>
   122a8:	00892703          	lw	a4,8(s2)
   122ac:	000017b7          	lui	a5,0x1
   122b0:	fef78593          	addi	a1,a5,-17 # fef <_ftext-0xf011>
   122b4:	00472483          	lw	s1,4(a4)
   122b8:	ffc4f493          	andi	s1,s1,-4
   122bc:	40848433          	sub	s0,s1,s0
   122c0:	00b40433          	add	s0,s0,a1
   122c4:	00c45413          	srli	s0,s0,0xc
   122c8:	fff40413          	addi	s0,s0,-1
   122cc:	00c41413          	slli	s0,s0,0xc
   122d0:	00f44c63          	blt	s0,a5,122e8 <_malloc_trim_r+0x6c>
   122d4:	00000513          	li	a0,0
   122d8:	4f5000ef          	jal	12fcc <sbrk>
   122dc:	00892783          	lw	a5,8(s2)
   122e0:	009787b3          	add	a5,a5,s1
   122e4:	02f50663          	beq	a0,a5,12310 <_malloc_trim_r+0x94>
   122e8:	00098513          	mv	a0,s3
   122ec:	a88ff0ef          	jal	11574 <__malloc_unlock>
   122f0:	00000513          	li	a0,0
   122f4:	01c12083          	lw	ra,28(sp)
   122f8:	01812403          	lw	s0,24(sp)
   122fc:	01412483          	lw	s1,20(sp)
   12300:	01012903          	lw	s2,16(sp)
   12304:	00c12983          	lw	s3,12(sp)
   12308:	02010113          	addi	sp,sp,32
   1230c:	00008067          	ret
   12310:	40800533          	neg	a0,s0
   12314:	4b9000ef          	jal	12fcc <sbrk>
   12318:	fff00793          	li	a5,-1
   1231c:	02f50863          	beq	a0,a5,1234c <_malloc_trim_r+0xd0>
   12320:	8441a783          	lw	a5,-1980(gp) # 14154 <__malloc_current_mallinfo>
   12324:	00892683          	lw	a3,8(s2)
   12328:	408484b3          	sub	s1,s1,s0
   1232c:	0014e493          	ori	s1,s1,1
   12330:	40878433          	sub	s0,a5,s0
   12334:	00098513          	mv	a0,s3
   12338:	0096a223          	sw	s1,4(a3)
   1233c:	8481a223          	sw	s0,-1980(gp) # 14154 <__malloc_current_mallinfo>
   12340:	a34ff0ef          	jal	11574 <__malloc_unlock>
   12344:	00100513          	li	a0,1
   12348:	fadff06f          	j	122f4 <_malloc_trim_r+0x78>
   1234c:	00000513          	li	a0,0
   12350:	47d000ef          	jal	12fcc <sbrk>
   12354:	00892703          	lw	a4,8(s2)
   12358:	00f00693          	li	a3,15
   1235c:	40e507b3          	sub	a5,a0,a4
   12360:	f8f6d4e3          	ble	a5,a3,122e8 <_malloc_trim_r+0x6c>
   12364:	80c1a683          	lw	a3,-2036(gp) # 1411c <__malloc_sbrk_base>
   12368:	0017e793          	ori	a5,a5,1
   1236c:	00f72223          	sw	a5,4(a4)
   12370:	40d50533          	sub	a0,a0,a3
   12374:	84a1a223          	sw	a0,-1980(gp) # 14154 <__malloc_current_mallinfo>
   12378:	f71ff06f          	j	122e8 <_malloc_trim_r+0x6c>

0001237c <_free_r>:
   1237c:	0e058e63          	beqz	a1,12478 <_free_r+0xfc>
   12380:	ff010113          	addi	sp,sp,-16
   12384:	00812423          	sw	s0,8(sp)
   12388:	00058413          	mv	s0,a1
   1238c:	00912223          	sw	s1,4(sp)
   12390:	00112623          	sw	ra,12(sp)
   12394:	00050493          	mv	s1,a0
   12398:	9d8ff0ef          	jal	11570 <__malloc_lock>
   1239c:	ffc42503          	lw	a0,-4(s0)
   123a0:	ff840613          	addi	a2,s0,-8
   123a4:	000145b7          	lui	a1,0x14
   123a8:	ffe57793          	andi	a5,a0,-2
   123ac:	00f606b3          	add	a3,a2,a5
   123b0:	d0858593          	addi	a1,a1,-760 # 13d08 <__malloc_av_>
   123b4:	0046a703          	lw	a4,4(a3)
   123b8:	0085a803          	lw	a6,8(a1)
   123bc:	00157513          	andi	a0,a0,1
   123c0:	ffc77713          	andi	a4,a4,-4
   123c4:	15068463          	beq	a3,a6,1250c <_free_r+0x190>
   123c8:	00e6a223          	sw	a4,4(a3)
   123cc:	02051663          	bnez	a0,123f8 <_free_r+0x7c>
   123d0:	ff842503          	lw	a0,-8(s0)
   123d4:	40a60633          	sub	a2,a2,a0
   123d8:	00862803          	lw	a6,8(a2)
   123dc:	00a787b3          	add	a5,a5,a0
   123e0:	00014537          	lui	a0,0x14
   123e4:	d1050513          	addi	a0,a0,-752 # 13d10 <__malloc_av_+0x8>
   123e8:	16a80663          	beq	a6,a0,12554 <_free_r+0x1d8>
   123ec:	00c62503          	lw	a0,12(a2)
   123f0:	00a82623          	sw	a0,12(a6)
   123f4:	01052423          	sw	a6,8(a0)
   123f8:	00e68533          	add	a0,a3,a4
   123fc:	00452503          	lw	a0,4(a0)
   12400:	00157513          	andi	a0,a0,1
   12404:	0c050a63          	beqz	a0,124d8 <_free_r+0x15c>
   12408:	0017e693          	ori	a3,a5,1
   1240c:	00f60733          	add	a4,a2,a5
   12410:	00d62223          	sw	a3,4(a2)
   12414:	00f72023          	sw	a5,0(a4)
   12418:	1ff00713          	li	a4,511
   1241c:	06f76063          	bltu	a4,a5,1247c <_free_r+0x100>
   12420:	0037d793          	srli	a5,a5,0x3
   12424:	00178713          	addi	a4,a5,1
   12428:	00371713          	slli	a4,a4,0x3
   1242c:	0045a683          	lw	a3,4(a1)
   12430:	00e58733          	add	a4,a1,a4
   12434:	00072803          	lw	a6,0(a4)
   12438:	4027d793          	srai	a5,a5,0x2
   1243c:	00100513          	li	a0,1
   12440:	00f517b3          	sll	a5,a0,a5
   12444:	00d7e7b3          	or	a5,a5,a3
   12448:	ff870693          	addi	a3,a4,-8
   1244c:	00d62623          	sw	a3,12(a2)
   12450:	01062423          	sw	a6,8(a2)
   12454:	00f5a223          	sw	a5,4(a1)
   12458:	00c72023          	sw	a2,0(a4)
   1245c:	00c82623          	sw	a2,12(a6)
   12460:	00048513          	mv	a0,s1
   12464:	00c12083          	lw	ra,12(sp)
   12468:	00812403          	lw	s0,8(sp)
   1246c:	00412483          	lw	s1,4(sp)
   12470:	01010113          	addi	sp,sp,16
   12474:	900ff06f          	j	11574 <__malloc_unlock>
   12478:	00008067          	ret
   1247c:	0097d713          	srli	a4,a5,0x9
   12480:	00400693          	li	a3,4
   12484:	10e6e463          	bltu	a3,a4,1258c <_free_r+0x210>
   12488:	0067d713          	srli	a4,a5,0x6
   1248c:	03970513          	addi	a0,a4,57
   12490:	03870693          	addi	a3,a4,56
   12494:	00151513          	slli	a0,a0,0x1
   12498:	00251513          	slli	a0,a0,0x2
   1249c:	00a58533          	add	a0,a1,a0
   124a0:	00052703          	lw	a4,0(a0)
   124a4:	ff850513          	addi	a0,a0,-8
   124a8:	0ee50e63          	beq	a0,a4,125a4 <_free_r+0x228>
   124ac:	00472683          	lw	a3,4(a4)
   124b0:	ffc6f693          	andi	a3,a3,-4
   124b4:	00d7f663          	bleu	a3,a5,124c0 <_free_r+0x144>
   124b8:	00872703          	lw	a4,8(a4)
   124bc:	fee518e3          	bne	a0,a4,124ac <_free_r+0x130>
   124c0:	00c72503          	lw	a0,12(a4)
   124c4:	00a62623          	sw	a0,12(a2)
   124c8:	00e62423          	sw	a4,8(a2)
   124cc:	00c52423          	sw	a2,8(a0)
   124d0:	00c72623          	sw	a2,12(a4)
   124d4:	f8dff06f          	j	12460 <_free_r+0xe4>
   124d8:	0086a503          	lw	a0,8(a3)
   124dc:	00e787b3          	add	a5,a5,a4
   124e0:	00014737          	lui	a4,0x14
   124e4:	d1070713          	addi	a4,a4,-752 # 13d10 <__malloc_av_+0x8>
   124e8:	0ce50e63          	beq	a0,a4,125c4 <_free_r+0x248>
   124ec:	00c6a803          	lw	a6,12(a3)
   124f0:	00f60733          	add	a4,a2,a5
   124f4:	0017e693          	ori	a3,a5,1
   124f8:	01052623          	sw	a6,12(a0)
   124fc:	00a82423          	sw	a0,8(a6)
   12500:	00d62223          	sw	a3,4(a2)
   12504:	00f72023          	sw	a5,0(a4)
   12508:	f11ff06f          	j	12418 <_free_r+0x9c>
   1250c:	00e787b3          	add	a5,a5,a4
   12510:	02051063          	bnez	a0,12530 <_free_r+0x1b4>
   12514:	ff842503          	lw	a0,-8(s0)
   12518:	40a60633          	sub	a2,a2,a0
   1251c:	00c62703          	lw	a4,12(a2)
   12520:	00862683          	lw	a3,8(a2)
   12524:	00a787b3          	add	a5,a5,a0
   12528:	00e6a623          	sw	a4,12(a3)
   1252c:	00d72423          	sw	a3,8(a4)
   12530:	8101a703          	lw	a4,-2032(gp) # 14120 <__malloc_trim_threshold>
   12534:	0017e693          	ori	a3,a5,1
   12538:	00d62223          	sw	a3,4(a2)
   1253c:	00c5a423          	sw	a2,8(a1)
   12540:	f2e7e0e3          	bltu	a5,a4,12460 <_free_r+0xe4>
   12544:	8201a583          	lw	a1,-2016(gp) # 14130 <__malloc_top_pad>
   12548:	00048513          	mv	a0,s1
   1254c:	d31ff0ef          	jal	1227c <_malloc_trim_r>
   12550:	f11ff06f          	j	12460 <_free_r+0xe4>
   12554:	00e685b3          	add	a1,a3,a4
   12558:	0045a583          	lw	a1,4(a1)
   1255c:	0015f593          	andi	a1,a1,1
   12560:	0e059263          	bnez	a1,12644 <_free_r+0x2c8>
   12564:	0086a583          	lw	a1,8(a3)
   12568:	00c6a683          	lw	a3,12(a3)
   1256c:	00f707b3          	add	a5,a4,a5
   12570:	0017e513          	ori	a0,a5,1
   12574:	00f60733          	add	a4,a2,a5
   12578:	00d5a623          	sw	a3,12(a1)
   1257c:	00b6a423          	sw	a1,8(a3)
   12580:	00a62223          	sw	a0,4(a2)
   12584:	00f72023          	sw	a5,0(a4)
   12588:	ed9ff06f          	j	12460 <_free_r+0xe4>
   1258c:	01400693          	li	a3,20
   12590:	04e6ec63          	bltu	a3,a4,125e8 <_free_r+0x26c>
   12594:	05c70513          	addi	a0,a4,92
   12598:	05b70693          	addi	a3,a4,91
   1259c:	00151513          	slli	a0,a0,0x1
   125a0:	ef9ff06f          	j	12498 <_free_r+0x11c>
   125a4:	0045a783          	lw	a5,4(a1)
   125a8:	4026d713          	srai	a4,a3,0x2
   125ac:	00100693          	li	a3,1
   125b0:	00e69733          	sll	a4,a3,a4
   125b4:	00f76733          	or	a4,a4,a5
   125b8:	00e5a223          	sw	a4,4(a1)
   125bc:	00050713          	mv	a4,a0
   125c0:	f05ff06f          	j	124c4 <_free_r+0x148>
   125c4:	0017e693          	ori	a3,a5,1
   125c8:	00f60733          	add	a4,a2,a5
   125cc:	00c5aa23          	sw	a2,20(a1)
   125d0:	00c5a823          	sw	a2,16(a1)
   125d4:	00a62623          	sw	a0,12(a2)
   125d8:	00a62423          	sw	a0,8(a2)
   125dc:	00d62223          	sw	a3,4(a2)
   125e0:	00f72023          	sw	a5,0(a4)
   125e4:	e7dff06f          	j	12460 <_free_r+0xe4>
   125e8:	05400693          	li	a3,84
   125ec:	00e6ec63          	bltu	a3,a4,12604 <_free_r+0x288>
   125f0:	00c7d713          	srli	a4,a5,0xc
   125f4:	06f70513          	addi	a0,a4,111
   125f8:	06e70693          	addi	a3,a4,110
   125fc:	00151513          	slli	a0,a0,0x1
   12600:	e99ff06f          	j	12498 <_free_r+0x11c>
   12604:	15400693          	li	a3,340
   12608:	00e6ec63          	bltu	a3,a4,12620 <_free_r+0x2a4>
   1260c:	00f7d713          	srli	a4,a5,0xf
   12610:	07870513          	addi	a0,a4,120
   12614:	07770693          	addi	a3,a4,119
   12618:	00151513          	slli	a0,a0,0x1
   1261c:	e7dff06f          	j	12498 <_free_r+0x11c>
   12620:	55400813          	li	a6,1364
   12624:	0fe00513          	li	a0,254
   12628:	07e00693          	li	a3,126
   1262c:	e6e866e3          	bltu	a6,a4,12498 <_free_r+0x11c>
   12630:	0127d713          	srli	a4,a5,0x12
   12634:	07d70513          	addi	a0,a4,125
   12638:	07c70693          	addi	a3,a4,124
   1263c:	00151513          	slli	a0,a0,0x1
   12640:	e59ff06f          	j	12498 <_free_r+0x11c>
   12644:	0017e693          	ori	a3,a5,1
   12648:	00f60733          	add	a4,a2,a5
   1264c:	00d62223          	sw	a3,4(a2)
   12650:	00f72023          	sw	a5,0(a4)
   12654:	e0dff06f          	j	12460 <_free_r+0xe4>

00012658 <_fwalk>:
   12658:	fe010113          	addi	sp,sp,-32
   1265c:	01312623          	sw	s3,12(sp)
   12660:	2e050993          	addi	s3,a0,736
   12664:	01412423          	sw	s4,8(sp)
   12668:	01512223          	sw	s5,4(sp)
   1266c:	00112e23          	sw	ra,28(sp)
   12670:	00812c23          	sw	s0,24(sp)
   12674:	00912a23          	sw	s1,20(sp)
   12678:	01212823          	sw	s2,16(sp)
   1267c:	00058a93          	mv	s5,a1
   12680:	00000a13          	li	s4,0
   12684:	bc9ff0ef          	jal	1224c <__sfp_lock_acquire>
   12688:	04098463          	beqz	s3,126d0 <_fwalk+0x78>
   1268c:	fff00913          	li	s2,-1
   12690:	0049a483          	lw	s1,4(s3)
   12694:	0089a403          	lw	s0,8(s3)
   12698:	fff48493          	addi	s1,s1,-1
   1269c:	0204c663          	bltz	s1,126c8 <_fwalk+0x70>
   126a0:	00c41783          	lh	a5,12(s0)
   126a4:	fff48493          	addi	s1,s1,-1
   126a8:	00078c63          	beqz	a5,126c0 <_fwalk+0x68>
   126ac:	00e41783          	lh	a5,14(s0)
   126b0:	00040513          	mv	a0,s0
   126b4:	01278663          	beq	a5,s2,126c0 <_fwalk+0x68>
   126b8:	000a80e7          	jalr	s5
   126bc:	00aa6a33          	or	s4,s4,a0
   126c0:	06840413          	addi	s0,s0,104
   126c4:	fd249ee3          	bne	s1,s2,126a0 <_fwalk+0x48>
   126c8:	0009a983          	lw	s3,0(s3)
   126cc:	fc0992e3          	bnez	s3,12690 <_fwalk+0x38>
   126d0:	b81ff0ef          	jal	12250 <__sfp_lock_release>
   126d4:	01c12083          	lw	ra,28(sp)
   126d8:	000a0513          	mv	a0,s4
   126dc:	01812403          	lw	s0,24(sp)
   126e0:	01412483          	lw	s1,20(sp)
   126e4:	01012903          	lw	s2,16(sp)
   126e8:	00c12983          	lw	s3,12(sp)
   126ec:	00812a03          	lw	s4,8(sp)
   126f0:	00412a83          	lw	s5,4(sp)
   126f4:	02010113          	addi	sp,sp,32
   126f8:	00008067          	ret

000126fc <_fwalk_reent>:
   126fc:	fe010113          	addi	sp,sp,-32
   12700:	01312623          	sw	s3,12(sp)
   12704:	2e050993          	addi	s3,a0,736
   12708:	01412423          	sw	s4,8(sp)
   1270c:	01512223          	sw	s5,4(sp)
   12710:	01612023          	sw	s6,0(sp)
   12714:	00112e23          	sw	ra,28(sp)
   12718:	00812c23          	sw	s0,24(sp)
   1271c:	00912a23          	sw	s1,20(sp)
   12720:	01212823          	sw	s2,16(sp)
   12724:	00050a93          	mv	s5,a0
   12728:	00058b13          	mv	s6,a1
   1272c:	00000a13          	li	s4,0
   12730:	b1dff0ef          	jal	1224c <__sfp_lock_acquire>
   12734:	04098663          	beqz	s3,12780 <_fwalk_reent+0x84>
   12738:	fff00913          	li	s2,-1
   1273c:	0049a483          	lw	s1,4(s3)
   12740:	0089a403          	lw	s0,8(s3)
   12744:	fff48493          	addi	s1,s1,-1
   12748:	0204c863          	bltz	s1,12778 <_fwalk_reent+0x7c>
   1274c:	00c41783          	lh	a5,12(s0)
   12750:	fff48493          	addi	s1,s1,-1
   12754:	00078e63          	beqz	a5,12770 <_fwalk_reent+0x74>
   12758:	00e41783          	lh	a5,14(s0)
   1275c:	00040593          	mv	a1,s0
   12760:	000a8513          	mv	a0,s5
   12764:	01278663          	beq	a5,s2,12770 <_fwalk_reent+0x74>
   12768:	000b00e7          	jalr	s6
   1276c:	00aa6a33          	or	s4,s4,a0
   12770:	06840413          	addi	s0,s0,104
   12774:	fd249ce3          	bne	s1,s2,1274c <_fwalk_reent+0x50>
   12778:	0009a983          	lw	s3,0(s3)
   1277c:	fc0990e3          	bnez	s3,1273c <_fwalk_reent+0x40>
   12780:	ad1ff0ef          	jal	12250 <__sfp_lock_release>
   12784:	01c12083          	lw	ra,28(sp)
   12788:	000a0513          	mv	a0,s4
   1278c:	01812403          	lw	s0,24(sp)
   12790:	01412483          	lw	s1,20(sp)
   12794:	01012903          	lw	s2,16(sp)
   12798:	00c12983          	lw	s3,12(sp)
   1279c:	00812a03          	lw	s4,8(sp)
   127a0:	00412a83          	lw	s5,4(sp)
   127a4:	00012b03          	lw	s6,0(sp)
   127a8:	02010113          	addi	sp,sp,32
   127ac:	00008067          	ret

000127b0 <__smakebuf_r>:
   127b0:	00c59783          	lh	a5,12(a1)
   127b4:	f6010113          	addi	sp,sp,-160
   127b8:	08912a23          	sw	s1,148(sp)
   127bc:	01079493          	slli	s1,a5,0x10
   127c0:	0104d493          	srli	s1,s1,0x10
   127c4:	0024f713          	andi	a4,s1,2
   127c8:	08112e23          	sw	ra,156(sp)
   127cc:	08812c23          	sw	s0,152(sp)
   127d0:	09212823          	sw	s2,144(sp)
   127d4:	09312623          	sw	s3,140(sp)
   127d8:	0e071063          	bnez	a4,128b8 <__smakebuf_r+0x108>
   127dc:	00050913          	mv	s2,a0
   127e0:	00e59503          	lh	a0,14(a1)
   127e4:	00058413          	mv	s0,a1
   127e8:	04054c63          	bltz	a0,12840 <__smakebuf_r+0x90>
   127ec:	00010593          	mv	a1,sp
   127f0:	528000ef          	jal	12d18 <fstat>
   127f4:	04054063          	bltz	a0,12834 <__smakebuf_r+0x84>
   127f8:	01012703          	lw	a4,16(sp)
   127fc:	0000f7b7          	lui	a5,0xf
   12800:	ffffe9b7          	lui	s3,0xffffe
   12804:	00f777b3          	and	a5,a4,a5
   12808:	013789b3          	add	s3,a5,s3
   1280c:	00008737          	lui	a4,0x8
   12810:	0019b993          	seqz	s3,s3
   12814:	0ae78e63          	beq	a5,a4,128d0 <__smakebuf_r+0x120>
   12818:	00c45703          	lhu	a4,12(s0)
   1281c:	000017b7          	lui	a5,0x1
   12820:	80078793          	addi	a5,a5,-2048 # 800 <_ftext-0xf800>
   12824:	00f767b3          	or	a5,a4,a5
   12828:	00f41623          	sh	a5,12(s0)
   1282c:	40000493          	li	s1,1024
   12830:	0340006f          	j	12864 <__smakebuf_r+0xb4>
   12834:	00c41783          	lh	a5,12(s0)
   12838:	01079493          	slli	s1,a5,0x10
   1283c:	0104d493          	srli	s1,s1,0x10
   12840:	01849493          	slli	s1,s1,0x18
   12844:	00001737          	lui	a4,0x1
   12848:	41f4d493          	srai	s1,s1,0x1f
   1284c:	80070713          	addi	a4,a4,-2048 # 800 <_ftext-0xf800>
   12850:	c404f493          	andi	s1,s1,-960
   12854:	00e7e7b3          	or	a5,a5,a4
   12858:	40048493          	addi	s1,s1,1024
   1285c:	00f41623          	sh	a5,12(s0)
   12860:	00000993          	li	s3,0
   12864:	00048593          	mv	a1,s1
   12868:	00090513          	mv	a0,s2
   1286c:	ab0fe0ef          	jal	10b1c <_malloc_r>
   12870:	0a050263          	beqz	a0,12914 <__smakebuf_r+0x164>
   12874:	00c45783          	lhu	a5,12(s0)
   12878:	00012737          	lui	a4,0x12
   1287c:	f1470713          	addi	a4,a4,-236 # 11f14 <_cleanup_r>
   12880:	0807e793          	ori	a5,a5,128
   12884:	02e92e23          	sw	a4,60(s2)
   12888:	00f41623          	sh	a5,12(s0)
   1288c:	00a42023          	sw	a0,0(s0)
   12890:	00a42823          	sw	a0,16(s0)
   12894:	00942a23          	sw	s1,20(s0)
   12898:	06099063          	bnez	s3,128f8 <__smakebuf_r+0x148>
   1289c:	09c12083          	lw	ra,156(sp)
   128a0:	09812403          	lw	s0,152(sp)
   128a4:	09412483          	lw	s1,148(sp)
   128a8:	09012903          	lw	s2,144(sp)
   128ac:	08c12983          	lw	s3,140(sp)
   128b0:	0a010113          	addi	sp,sp,160
   128b4:	00008067          	ret
   128b8:	04358793          	addi	a5,a1,67
   128bc:	00f5a023          	sw	a5,0(a1)
   128c0:	00f5a823          	sw	a5,16(a1)
   128c4:	00100793          	li	a5,1
   128c8:	00f5aa23          	sw	a5,20(a1)
   128cc:	fd1ff06f          	j	1289c <__smakebuf_r+0xec>
   128d0:	02842703          	lw	a4,40(s0)
   128d4:	000137b7          	lui	a5,0x13
   128d8:	b0078793          	addi	a5,a5,-1280 # 12b00 <__sseek>
   128dc:	f2f71ee3          	bne	a4,a5,12818 <__smakebuf_r+0x68>
   128e0:	00c45783          	lhu	a5,12(s0)
   128e4:	40000493          	li	s1,1024
   128e8:	04942623          	sw	s1,76(s0)
   128ec:	0097e7b3          	or	a5,a5,s1
   128f0:	00f41623          	sh	a5,12(s0)
   128f4:	f71ff06f          	j	12864 <__smakebuf_r+0xb4>
   128f8:	00e41503          	lh	a0,14(s0)
   128fc:	584000ef          	jal	12e80 <isatty>
   12900:	f8050ee3          	beqz	a0,1289c <__smakebuf_r+0xec>
   12904:	00c45783          	lhu	a5,12(s0)
   12908:	0017e793          	ori	a5,a5,1
   1290c:	00f41623          	sh	a5,12(s0)
   12910:	f8dff06f          	j	1289c <__smakebuf_r+0xec>
   12914:	00c41783          	lh	a5,12(s0)
   12918:	2007f713          	andi	a4,a5,512
   1291c:	f80710e3          	bnez	a4,1289c <__smakebuf_r+0xec>
   12920:	0027e793          	ori	a5,a5,2
   12924:	04340713          	addi	a4,s0,67
   12928:	00f41623          	sh	a5,12(s0)
   1292c:	00100793          	li	a5,1
   12930:	00e42023          	sw	a4,0(s0)
   12934:	00e42823          	sw	a4,16(s0)
   12938:	00f42a23          	sw	a5,20(s0)
   1293c:	f61ff06f          	j	1289c <__smakebuf_r+0xec>

00012940 <memset>:
   12940:	00f00813          	li	a6,15
   12944:	00050713          	mv	a4,a0
   12948:	02c87e63          	bleu	a2,a6,12984 <memset+0x44>
   1294c:	00f77793          	andi	a5,a4,15
   12950:	0a079063          	bnez	a5,129f0 <memset+0xb0>
   12954:	08059263          	bnez	a1,129d8 <memset+0x98>
   12958:	ff067693          	andi	a3,a2,-16
   1295c:	00f67613          	andi	a2,a2,15
   12960:	00e686b3          	add	a3,a3,a4
   12964:	00b72023          	sw	a1,0(a4)
   12968:	00b72223          	sw	a1,4(a4)
   1296c:	00b72423          	sw	a1,8(a4)
   12970:	00b72623          	sw	a1,12(a4)
   12974:	01070713          	addi	a4,a4,16
   12978:	fed766e3          	bltu	a4,a3,12964 <memset+0x24>
   1297c:	00061463          	bnez	a2,12984 <memset+0x44>
   12980:	00008067          	ret
   12984:	40c806b3          	sub	a3,a6,a2
   12988:	00269693          	slli	a3,a3,0x2
   1298c:	00000297          	auipc	t0,0x0
   12990:	005686b3          	add	a3,a3,t0
   12994:	00c68067          	jr	a3,12
   12998:	00b70723          	sb	a1,14(a4)
   1299c:	00b706a3          	sb	a1,13(a4)
   129a0:	00b70623          	sb	a1,12(a4)
   129a4:	00b705a3          	sb	a1,11(a4)
   129a8:	00b70523          	sb	a1,10(a4)
   129ac:	00b704a3          	sb	a1,9(a4)
   129b0:	00b70423          	sb	a1,8(a4)
   129b4:	00b703a3          	sb	a1,7(a4)
   129b8:	00b70323          	sb	a1,6(a4)
   129bc:	00b702a3          	sb	a1,5(a4)
   129c0:	00b70223          	sb	a1,4(a4)
   129c4:	00b701a3          	sb	a1,3(a4)
   129c8:	00b70123          	sb	a1,2(a4)
   129cc:	00b700a3          	sb	a1,1(a4)
   129d0:	00b70023          	sb	a1,0(a4)
   129d4:	00008067          	ret
   129d8:	0ff5f593          	andi	a1,a1,255
   129dc:	00859693          	slli	a3,a1,0x8
   129e0:	00d5e5b3          	or	a1,a1,a3
   129e4:	01059693          	slli	a3,a1,0x10
   129e8:	00d5e5b3          	or	a1,a1,a3
   129ec:	f6dff06f          	j	12958 <memset+0x18>
   129f0:	00279693          	slli	a3,a5,0x2
   129f4:	00000297          	auipc	t0,0x0
   129f8:	005686b3          	add	a3,a3,t0
   129fc:	00008293          	mv	t0,ra
   12a00:	fa0680e7          	jalr	a3,-96
   12a04:	00028093          	mv	ra,t0
   12a08:	ff078793          	addi	a5,a5,-16
   12a0c:	40f70733          	sub	a4,a4,a5
   12a10:	00f60633          	add	a2,a2,a5
   12a14:	f6c878e3          	bleu	a2,a6,12984 <memset+0x44>
   12a18:	f3dff06f          	j	12954 <memset+0x14>

00012a1c <__sread>:
   12a1c:	00e59503          	lh	a0,14(a1)
   12a20:	ff010113          	addi	sp,sp,-16
   12a24:	00812423          	sw	s0,8(sp)
   12a28:	00058413          	mv	s0,a1
   12a2c:	00060593          	mv	a1,a2
   12a30:	00068613          	mv	a2,a3
   12a34:	00112623          	sw	ra,12(sp)
   12a38:	2b8000ef          	jal	12cf0 <read>
   12a3c:	02054063          	bltz	a0,12a5c <__sread+0x40>
   12a40:	05042783          	lw	a5,80(s0)
   12a44:	00c12083          	lw	ra,12(sp)
   12a48:	00a787b3          	add	a5,a5,a0
   12a4c:	04f42823          	sw	a5,80(s0)
   12a50:	00812403          	lw	s0,8(sp)
   12a54:	01010113          	addi	sp,sp,16
   12a58:	00008067          	ret
   12a5c:	00c45703          	lhu	a4,12(s0)
   12a60:	fffff7b7          	lui	a5,0xfffff
   12a64:	00c12083          	lw	ra,12(sp)
   12a68:	fff78793          	addi	a5,a5,-1 # ffffefff <_gp+0xfffea6ef>
   12a6c:	00f777b3          	and	a5,a4,a5
   12a70:	00f41623          	sh	a5,12(s0)
   12a74:	00812403          	lw	s0,8(sp)
   12a78:	01010113          	addi	sp,sp,16
   12a7c:	00008067          	ret

00012a80 <__seofread>:
   12a80:	00000513          	li	a0,0
   12a84:	00008067          	ret

00012a88 <__swrite>:
   12a88:	00c59703          	lh	a4,12(a1)
   12a8c:	ff010113          	addi	sp,sp,-16
   12a90:	00812423          	sw	s0,8(sp)
   12a94:	10077793          	andi	a5,a4,256
   12a98:	00912223          	sw	s1,4(sp)
   12a9c:	01212023          	sw	s2,0(sp)
   12aa0:	00112623          	sw	ra,12(sp)
   12aa4:	00058413          	mv	s0,a1
   12aa8:	00060493          	mv	s1,a2
   12aac:	00068913          	mv	s2,a3
   12ab0:	00078e63          	beqz	a5,12acc <__swrite+0x44>
   12ab4:	00e59503          	lh	a0,14(a1)
   12ab8:	00200713          	li	a4,2
   12abc:	00000613          	li	a2,0
   12ac0:	00000693          	li	a3,0
   12ac4:	20c000ef          	jal	12cd0 <lseek>
   12ac8:	00c41703          	lh	a4,12(s0)
   12acc:	fffff7b7          	lui	a5,0xfffff
   12ad0:	fff78793          	addi	a5,a5,-1 # ffffefff <_gp+0xfffea6ef>
   12ad4:	00f777b3          	and	a5,a4,a5
   12ad8:	00e41503          	lh	a0,14(s0)
   12adc:	00f41623          	sh	a5,12(s0)
   12ae0:	00090613          	mv	a2,s2
   12ae4:	00048593          	mv	a1,s1
   12ae8:	00c12083          	lw	ra,12(sp)
   12aec:	00812403          	lw	s0,8(sp)
   12af0:	00412483          	lw	s1,4(sp)
   12af4:	00012903          	lw	s2,0(sp)
   12af8:	01010113          	addi	sp,sp,16
   12afc:	2080006f          	j	12d04 <write>

00012b00 <__sseek>:
   12b00:	00e59503          	lh	a0,14(a1)
   12b04:	ff010113          	addi	sp,sp,-16
   12b08:	00812423          	sw	s0,8(sp)
   12b0c:	00112623          	sw	ra,12(sp)
   12b10:	00058413          	mv	s0,a1
   12b14:	1bc000ef          	jal	12cd0 <lseek>
   12b18:	fff00793          	li	a5,-1
   12b1c:	00c45703          	lhu	a4,12(s0)
   12b20:	02f50263          	beq	a0,a5,12b44 <__sseek+0x44>
   12b24:	00c12083          	lw	ra,12(sp)
   12b28:	000017b7          	lui	a5,0x1
   12b2c:	00f767b3          	or	a5,a4,a5
   12b30:	04a42823          	sw	a0,80(s0)
   12b34:	00f41623          	sh	a5,12(s0)
   12b38:	00812403          	lw	s0,8(sp)
   12b3c:	01010113          	addi	sp,sp,16
   12b40:	00008067          	ret
   12b44:	fea590e3          	bne	a1,a0,12b24 <__sseek+0x24>
   12b48:	fffff7b7          	lui	a5,0xfffff
   12b4c:	00c12083          	lw	ra,12(sp)
   12b50:	fff78793          	addi	a5,a5,-1 # ffffefff <_gp+0xfffea6ef>
   12b54:	00f777b3          	and	a5,a4,a5
   12b58:	00f41623          	sh	a5,12(s0)
   12b5c:	00812403          	lw	s0,8(sp)
   12b60:	01010113          	addi	sp,sp,16
   12b64:	00008067          	ret

00012b68 <__sclose>:
   12b68:	00e59503          	lh	a0,14(a1)
   12b6c:	22c0006f          	j	12d98 <close>

00012b70 <_fclose_r>:
   12b70:	0c058663          	beqz	a1,12c3c <_fclose_r+0xcc>
   12b74:	ff010113          	addi	sp,sp,-16
   12b78:	00912223          	sw	s1,4(sp)
   12b7c:	00050493          	mv	s1,a0
   12b80:	00812423          	sw	s0,8(sp)
   12b84:	00112623          	sw	ra,12(sp)
   12b88:	01212023          	sw	s2,0(sp)
   12b8c:	00058413          	mv	s0,a1
   12b90:	ebcff0ef          	jal	1224c <__sfp_lock_acquire>
   12b94:	00048663          	beqz	s1,12ba0 <_fclose_r+0x30>
   12b98:	0384a783          	lw	a5,56(s1)
   12b9c:	0a078463          	beqz	a5,12c44 <_fclose_r+0xd4>
   12ba0:	00c41783          	lh	a5,12(s0)
   12ba4:	08078663          	beqz	a5,12c30 <_fclose_r+0xc0>
   12ba8:	00040593          	mv	a1,s0
   12bac:	00048513          	mv	a0,s1
   12bb0:	89cff0ef          	jal	11c4c <_fflush_r>
   12bb4:	02c42783          	lw	a5,44(s0)
   12bb8:	00050913          	mv	s2,a0
   12bbc:	00078a63          	beqz	a5,12bd0 <_fclose_r+0x60>
   12bc0:	01c42583          	lw	a1,28(s0)
   12bc4:	00048513          	mv	a0,s1
   12bc8:	000780e7          	jalr	a5
   12bcc:	08054e63          	bltz	a0,12c68 <_fclose_r+0xf8>
   12bd0:	00c45783          	lhu	a5,12(s0)
   12bd4:	0807f793          	andi	a5,a5,128
   12bd8:	08079063          	bnez	a5,12c58 <_fclose_r+0xe8>
   12bdc:	03042583          	lw	a1,48(s0)
   12be0:	00058c63          	beqz	a1,12bf8 <_fclose_r+0x88>
   12be4:	04040793          	addi	a5,s0,64
   12be8:	00f58663          	beq	a1,a5,12bf4 <_fclose_r+0x84>
   12bec:	00048513          	mv	a0,s1
   12bf0:	f8cff0ef          	jal	1237c <_free_r>
   12bf4:	02042823          	sw	zero,48(s0)
   12bf8:	04442583          	lw	a1,68(s0)
   12bfc:	00058863          	beqz	a1,12c0c <_fclose_r+0x9c>
   12c00:	00048513          	mv	a0,s1
   12c04:	f78ff0ef          	jal	1237c <_free_r>
   12c08:	04042223          	sw	zero,68(s0)
   12c0c:	00041623          	sh	zero,12(s0)
   12c10:	e40ff0ef          	jal	12250 <__sfp_lock_release>
   12c14:	00090513          	mv	a0,s2
   12c18:	00c12083          	lw	ra,12(sp)
   12c1c:	00812403          	lw	s0,8(sp)
   12c20:	00412483          	lw	s1,4(sp)
   12c24:	00012903          	lw	s2,0(sp)
   12c28:	01010113          	addi	sp,sp,16
   12c2c:	00008067          	ret
   12c30:	e20ff0ef          	jal	12250 <__sfp_lock_release>
   12c34:	00000513          	li	a0,0
   12c38:	fe1ff06f          	j	12c18 <_fclose_r+0xa8>
   12c3c:	00000513          	li	a0,0
   12c40:	00008067          	ret
   12c44:	00048513          	mv	a0,s1
   12c48:	df4ff0ef          	jal	1223c <__sinit>
   12c4c:	00c41783          	lh	a5,12(s0)
   12c50:	f4079ce3          	bnez	a5,12ba8 <_fclose_r+0x38>
   12c54:	fddff06f          	j	12c30 <_fclose_r+0xc0>
   12c58:	01042583          	lw	a1,16(s0)
   12c5c:	00048513          	mv	a0,s1
   12c60:	f1cff0ef          	jal	1237c <_free_r>
   12c64:	f79ff06f          	j	12bdc <_fclose_r+0x6c>
   12c68:	fff00913          	li	s2,-1
   12c6c:	f65ff06f          	j	12bd0 <_fclose_r+0x60>

00012c70 <fclose>:
   12c70:	00050593          	mv	a1,a0
   12c74:	8081a503          	lw	a0,-2040(gp) # 14118 <_impure_ptr>
   12c78:	ef9ff06f          	j	12b70 <_fclose_r>

00012c7c <__syscall_error>:
   12c7c:	ff010113          	addi	sp,sp,-16
   12c80:	00112623          	sw	ra,12(sp)
   12c84:	00812423          	sw	s0,8(sp)
   12c88:	00050413          	mv	s0,a0
   12c8c:	3ac000ef          	jal	13038 <__errno>
   12c90:	00c12083          	lw	ra,12(sp)
   12c94:	408007b3          	neg	a5,s0
   12c98:	00f52023          	sw	a5,0(a0)
   12c9c:	00812403          	lw	s0,8(sp)
   12ca0:	fff00513          	li	a0,-1
   12ca4:	01010113          	addi	sp,sp,16
   12ca8:	00008067          	ret

00012cac <open>:
   12cac:	00000693          	li	a3,0
   12cb0:	40000893          	li	a7,1024
   12cb4:	00000073          	ecall
   12cb8:	fc0542e3          	bltz	a0,12c7c <__syscall_error>
   12cbc:	00008067          	ret

00012cc0 <openat>:
   12cc0:	03800893          	li	a7,56
   12cc4:	00000073          	ecall
   12cc8:	fa054ae3          	bltz	a0,12c7c <__syscall_error>
   12ccc:	00008067          	ret

00012cd0 <lseek>:
   12cd0:	00060593          	mv	a1,a2
   12cd4:	00000693          	li	a3,0
   12cd8:	00070613          	mv	a2,a4
   12cdc:	03e00893          	li	a7,62
   12ce0:	00000073          	ecall
   12ce4:	f8054ce3          	bltz	a0,12c7c <__syscall_error>
   12ce8:	41f55593          	srai	a1,a0,0x1f
   12cec:	00008067          	ret

00012cf0 <read>:
   12cf0:	00000693          	li	a3,0
   12cf4:	03f00893          	li	a7,63
   12cf8:	00000073          	ecall
   12cfc:	f80540e3          	bltz	a0,12c7c <__syscall_error>
   12d00:	00008067          	ret

00012d04 <write>:
   12d04:	00000693          	li	a3,0
   12d08:	04000893          	li	a7,64
   12d0c:	00000073          	ecall
   12d10:	f60546e3          	bltz	a0,12c7c <__syscall_error>
   12d14:	00008067          	ret

00012d18 <fstat>:
   12d18:	00000613          	li	a2,0
   12d1c:	00000693          	li	a3,0
   12d20:	05000893          	li	a7,80
   12d24:	00000073          	ecall
   12d28:	f4054ae3          	bltz	a0,12c7c <__syscall_error>
   12d2c:	00008067          	ret

00012d30 <stat>:
   12d30:	00000613          	li	a2,0
   12d34:	00000693          	li	a3,0
   12d38:	40e00893          	li	a7,1038
   12d3c:	00000073          	ecall
   12d40:	f2054ee3          	bltz	a0,12c7c <__syscall_error>
   12d44:	00008067          	ret

00012d48 <lstat>:
   12d48:	00000613          	li	a2,0
   12d4c:	00000693          	li	a3,0
   12d50:	40f00893          	li	a7,1039
   12d54:	00000073          	ecall
   12d58:	f20542e3          	bltz	a0,12c7c <__syscall_error>
   12d5c:	00008067          	ret

00012d60 <fstatat>:
   12d60:	04f00893          	li	a7,79
   12d64:	00000073          	ecall
   12d68:	f0054ae3          	bltz	a0,12c7c <__syscall_error>
   12d6c:	00008067          	ret

00012d70 <access>:
   12d70:	00000613          	li	a2,0
   12d74:	00000693          	li	a3,0
   12d78:	40900893          	li	a7,1033
   12d7c:	00000073          	ecall
   12d80:	ee054ee3          	bltz	a0,12c7c <__syscall_error>
   12d84:	00008067          	ret

00012d88 <faccessat>:
   12d88:	03000893          	li	a7,48
   12d8c:	00000073          	ecall
   12d90:	ee0546e3          	bltz	a0,12c7c <__syscall_error>
   12d94:	00008067          	ret

00012d98 <close>:
   12d98:	00000593          	li	a1,0
   12d9c:	00000613          	li	a2,0
   12da0:	00000693          	li	a3,0
   12da4:	03900893          	li	a7,57
   12da8:	00000073          	ecall
   12dac:	ec0548e3          	bltz	a0,12c7c <__syscall_error>
   12db0:	00008067          	ret

00012db4 <link>:
   12db4:	00000613          	li	a2,0
   12db8:	00000693          	li	a3,0
   12dbc:	40100893          	li	a7,1025
   12dc0:	00000073          	ecall
   12dc4:	ea054ce3          	bltz	a0,12c7c <__syscall_error>
   12dc8:	00008067          	ret

00012dcc <unlink>:
   12dcc:	00000593          	li	a1,0
   12dd0:	00000613          	li	a2,0
   12dd4:	00000693          	li	a3,0
   12dd8:	40200893          	li	a7,1026
   12ddc:	00000073          	ecall
   12de0:	e8054ee3          	bltz	a0,12c7c <__syscall_error>
   12de4:	00008067          	ret

00012de8 <execve>:
   12de8:	ff010113          	addi	sp,sp,-16
   12dec:	00112623          	sw	ra,12(sp)
   12df0:	248000ef          	jal	13038 <__errno>
   12df4:	00c12083          	lw	ra,12(sp)
   12df8:	00c00793          	li	a5,12
   12dfc:	00f52023          	sw	a5,0(a0)
   12e00:	01010113          	addi	sp,sp,16
   12e04:	fff00513          	li	a0,-1
   12e08:	00008067          	ret

00012e0c <fork>:
   12e0c:	ff010113          	addi	sp,sp,-16
   12e10:	00112623          	sw	ra,12(sp)
   12e14:	224000ef          	jal	13038 <__errno>
   12e18:	00c12083          	lw	ra,12(sp)
   12e1c:	00b00793          	li	a5,11
   12e20:	00f52023          	sw	a5,0(a0)
   12e24:	01010113          	addi	sp,sp,16
   12e28:	fff00513          	li	a0,-1
   12e2c:	00008067          	ret

00012e30 <getpid>:
   12e30:	00100513          	li	a0,1
   12e34:	00008067          	ret

00012e38 <kill>:
   12e38:	ff010113          	addi	sp,sp,-16
   12e3c:	00112623          	sw	ra,12(sp)
   12e40:	1f8000ef          	jal	13038 <__errno>
   12e44:	00c12083          	lw	ra,12(sp)
   12e48:	01600793          	li	a5,22
   12e4c:	00f52023          	sw	a5,0(a0)
   12e50:	01010113          	addi	sp,sp,16
   12e54:	fff00513          	li	a0,-1
   12e58:	00008067          	ret

00012e5c <wait>:
   12e5c:	ff010113          	addi	sp,sp,-16
   12e60:	00112623          	sw	ra,12(sp)
   12e64:	1d4000ef          	jal	13038 <__errno>
   12e68:	00c12083          	lw	ra,12(sp)
   12e6c:	00a00793          	li	a5,10
   12e70:	00f52023          	sw	a5,0(a0)
   12e74:	01010113          	addi	sp,sp,16
   12e78:	fff00513          	li	a0,-1
   12e7c:	00008067          	ret

00012e80 <isatty>:
   12e80:	f8010113          	addi	sp,sp,-128
   12e84:	00010593          	mv	a1,sp
   12e88:	00000613          	li	a2,0
   12e8c:	00000693          	li	a3,0
   12e90:	05000893          	li	a7,80
   12e94:	00000073          	ecall
   12e98:	de0542e3          	bltz	a0,12c7c <__syscall_error>
   12e9c:	fff00793          	li	a5,-1
   12ea0:	00f50863          	beq	a0,a5,12eb0 <isatty+0x30>
   12ea4:	01012503          	lw	a0,16(sp)
   12ea8:	00d55513          	srli	a0,a0,0xd
   12eac:	00157513          	andi	a0,a0,1
   12eb0:	08010113          	addi	sp,sp,128
   12eb4:	00008067          	ret

00012eb8 <times>:
   12eb8:	87018293          	addi	t0,gp,-1936 # 14180 <t0.2270>
   12ebc:	0002a783          	lw	a5,0(t0) # 129f4 <memset+0xb4>
   12ec0:	0042a683          	lw	a3,4(t0)
   12ec4:	ff010113          	addi	sp,sp,-16
   12ec8:	00050813          	mv	a6,a0
   12ecc:	00d7e7b3          	or	a5,a5,a3
   12ed0:	02079063          	bnez	a5,12ef0 <times+0x38>
   12ed4:	87018513          	addi	a0,gp,-1936 # 14180 <t0.2270>
   12ed8:	00000593          	li	a1,0
   12edc:	00000613          	li	a2,0
   12ee0:	00000693          	li	a3,0
   12ee4:	0a900893          	li	a7,169
   12ee8:	00000073          	ecall
   12eec:	d80548e3          	bltz	a0,12c7c <__syscall_error>
   12ef0:	00010513          	mv	a0,sp
   12ef4:	00000593          	li	a1,0
   12ef8:	00000613          	li	a2,0
   12efc:	00000693          	li	a3,0
   12f00:	0a900893          	li	a7,169
   12f04:	00000073          	ecall
   12f08:	d6054ae3          	bltz	a0,12c7c <__syscall_error>
   12f0c:	0002a703          	lw	a4,0(t0)
   12f10:	00012783          	lw	a5,0(sp)
   12f14:	fff00513          	li	a0,-1
   12f18:	00082623          	sw	zero,12(a6)
   12f1c:	40e786b3          	sub	a3,a5,a4
   12f20:	000f47b7          	lui	a5,0xf4
   12f24:	24078793          	addi	a5,a5,576 # f4240 <_gp+0xdf930>
   12f28:	02f68733          	mul	a4,a3,a5
   12f2c:	0082a683          	lw	a3,8(t0)
   12f30:	00812783          	lw	a5,8(sp)
   12f34:	00082423          	sw	zero,8(a6)
   12f38:	00082223          	sw	zero,4(a6)
   12f3c:	40d787b3          	sub	a5,a5,a3
   12f40:	01010113          	addi	sp,sp,16
   12f44:	00f707b3          	add	a5,a4,a5
   12f48:	00f82023          	sw	a5,0(a6)
   12f4c:	00008067          	ret

00012f50 <gettimeofday>:
   12f50:	00000593          	li	a1,0
   12f54:	00000613          	li	a2,0
   12f58:	00000693          	li	a3,0
   12f5c:	0a900893          	li	a7,169
   12f60:	00000073          	ecall
   12f64:	d0054ce3          	bltz	a0,12c7c <__syscall_error>
   12f68:	00008067          	ret

00012f6c <ftime>:
   12f6c:	00000713          	li	a4,0
   12f70:	00000793          	li	a5,0
   12f74:	00051423          	sh	zero,8(a0)
   12f78:	00e52023          	sw	a4,0(a0)
   12f7c:	00f52223          	sw	a5,4(a0)
   12f80:	00000513          	li	a0,0
   12f84:	00008067          	ret

00012f88 <utime>:
   12f88:	fff00513          	li	a0,-1
   12f8c:	00008067          	ret

00012f90 <chown>:
   12f90:	fff00513          	li	a0,-1
   12f94:	00008067          	ret

00012f98 <chmod>:
   12f98:	fff00513          	li	a0,-1
   12f9c:	00008067          	ret

00012fa0 <chdir>:
   12fa0:	fff00513          	li	a0,-1
   12fa4:	00008067          	ret

00012fa8 <getcwd>:
   12fa8:	00000513          	li	a0,0
   12fac:	00008067          	ret

00012fb0 <sysconf>:
   12fb0:	00200793          	li	a5,2
   12fb4:	00f51863          	bne	a0,a5,12fc4 <sysconf+0x14>
   12fb8:	000f4537          	lui	a0,0xf4
   12fbc:	24050513          	addi	a0,a0,576 # f4240 <_gp+0xdf930>
   12fc0:	00008067          	ret
   12fc4:	fff00513          	li	a0,-1
   12fc8:	00008067          	ret

00012fcc <sbrk>:
   12fcc:	8241a703          	lw	a4,-2012(gp) # 14134 <heap_end.2308>
   12fd0:	00050793          	mv	a5,a0
   12fd4:	00071663          	bnez	a4,12fe0 <sbrk+0x14>
   12fd8:	88018713          	addi	a4,gp,-1920 # 14190 <_end>
   12fdc:	82e1a223          	sw	a4,-2012(gp) # 14134 <heap_end.2308>
   12fe0:	00e78533          	add	a0,a5,a4
   12fe4:	00000593          	li	a1,0
   12fe8:	00000613          	li	a2,0
   12fec:	00000693          	li	a3,0
   12ff0:	0d600893          	li	a7,214
   12ff4:	00000073          	ecall
   12ff8:	c80542e3          	bltz	a0,12c7c <__syscall_error>
   12ffc:	8241a683          	lw	a3,-2012(gp) # 14134 <heap_end.2308>
   13000:	fff00713          	li	a4,-1
   13004:	00d787b3          	add	a5,a5,a3
   13008:	00f51663          	bne	a0,a5,13014 <sbrk+0x48>
   1300c:	82a1a223          	sw	a0,-2012(gp) # 14134 <heap_end.2308>
   13010:	00068713          	mv	a4,a3
   13014:	00070513          	mv	a0,a4
   13018:	00008067          	ret

0001301c <_exit>:
   1301c:	00000593          	li	a1,0
   13020:	00000613          	li	a2,0
   13024:	00000693          	li	a3,0
   13028:	05d00893          	li	a7,93
   1302c:	00000073          	ecall
   13030:	c40546e3          	bltz	a0,12c7c <__syscall_error>
   13034:	0000006f          	j	13034 <_exit+0x18>

00013038 <__errno>:
   13038:	8081a503          	lw	a0,-2040(gp) # 14118 <_impure_ptr>
   1303c:	00008067          	ret
