
a.out:     file format elf32-littleriscv


Disassembly of section .text:

00010000 <_ftext>:
   10000:	0000e197          	auipc	gp,0xe
   10004:	67018193          	addi	gp,gp,1648 # 1e670 <_gp>
   10008:	0000e297          	auipc	t0,0xe
   1000c:	ed828293          	addi	t0,t0,-296 # 1dee0 <Reg>
   10010:	00010317          	auipc	t1,0x10
   10014:	76030313          	addi	t1,t1,1888 # 20770 <_end>
   10018:	0002a023          	sw	zero,0(t0)
   1001c:	00428293          	addi	t0,t0,4
   10020:	fe62ece3          	bltu	t0,t1,10018 <_ftext+0x18>
   10024:	00003517          	auipc	a0,0x3
   10028:	f0c50513          	addi	a0,a0,-244 # 12f30 <__libc_fini_array>
   1002c:	621020ef          	jal	12e4c <atexit>
   10030:	661020ef          	jal	12e90 <__libc_init_array>
   10034:	00012503          	lw	a0,0(sp)
   10038:	00410593          	addi	a1,sp,4
   1003c:	00000613          	li	a2,0
   10040:	594000ef          	jal	105d4 <main>
   10044:	61d0206f          	j	12e60 <exit>

00010048 <_fini>:
   10048:	00008067          	ret

0001004c <deregister_tm_clones>:
   1004c:	80018713          	addi	a4,gp,-2048 # 1de70 <_edata>
   10050:	80318793          	addi	a5,gp,-2045 # 1de73 <_edata+0x3>
   10054:	40e787b3          	sub	a5,a5,a4
   10058:	00600713          	li	a4,6
   1005c:	00f77c63          	bleu	a5,a4,10074 <deregister_tm_clones+0x28>
   10060:	00000293          	li	t0,0
   10064:	00028863          	beqz	t0,10074 <deregister_tm_clones+0x28>
   10068:	80018513          	addi	a0,gp,-2048 # 1de70 <_edata>
   1006c:	00028313          	mv	t1,t0
   10070:	00030067          	jr	t1
   10074:	00008067          	ret

00010078 <register_tm_clones>:
   10078:	80018593          	addi	a1,gp,-2048 # 1de70 <_edata>
   1007c:	80018793          	addi	a5,gp,-2048 # 1de70 <_edata>
   10080:	40b787b3          	sub	a5,a5,a1
   10084:	4027d793          	srai	a5,a5,0x2
   10088:	01f7d593          	srli	a1,a5,0x1f
   1008c:	00f585b3          	add	a1,a1,a5
   10090:	4015d593          	srai	a1,a1,0x1
   10094:	00058c63          	beqz	a1,100ac <register_tm_clones+0x34>
   10098:	00000293          	li	t0,0
   1009c:	00028863          	beqz	t0,100ac <register_tm_clones+0x34>
   100a0:	80018513          	addi	a0,gp,-2048 # 1de70 <_edata>
   100a4:	00028313          	mv	t1,t0
   100a8:	00030067          	jr	t1
   100ac:	00008067          	ret

000100b0 <__do_global_dtors_aux>:
   100b0:	ff010113          	addi	sp,sp,-16
   100b4:	00812423          	sw	s0,8(sp)
   100b8:	8901c783          	lbu	a5,-1904(gp) # 1df00 <_bss_start>
   100bc:	00112623          	sw	ra,12(sp)
   100c0:	02079263          	bnez	a5,100e4 <__do_global_dtors_aux+0x34>
   100c4:	f89ff0ef          	jal	1004c <deregister_tm_clones>
   100c8:	00000793          	li	a5,0
   100cc:	00078863          	beqz	a5,100dc <__do_global_dtors_aux+0x2c>
   100d0:	0001c537          	lui	a0,0x1c
   100d4:	33c50513          	addi	a0,a0,828 # 1c33c <__fini_array_end>
   100d8:	f29ef0ef          	jal	0 <_ftext-0x10000>
   100dc:	00100793          	li	a5,1
   100e0:	88f18823          	sb	a5,-1904(gp) # 1df00 <_bss_start>
   100e4:	00c12083          	lw	ra,12(sp)
   100e8:	00812403          	lw	s0,8(sp)
   100ec:	01010113          	addi	sp,sp,16
   100f0:	00008067          	ret

000100f4 <frame_dummy>:
   100f4:	ff010113          	addi	sp,sp,-16
   100f8:	00000793          	li	a5,0
   100fc:	00112623          	sw	ra,12(sp)
   10100:	00078a63          	beqz	a5,10114 <frame_dummy+0x20>
   10104:	0001c537          	lui	a0,0x1c
   10108:	89418593          	addi	a1,gp,-1900 # 1df04 <object.3086>
   1010c:	33c50513          	addi	a0,a0,828 # 1c33c <__fini_array_end>
   10110:	ef1ef0ef          	jal	0 <_ftext-0x10000>
   10114:	0001d537          	lui	a0,0x1d
   10118:	5f850513          	addi	a0,a0,1528 # 1d5f8 <__JCR_END__>
   1011c:	00052783          	lw	a5,0(a0)
   10120:	00079863          	bnez	a5,10130 <frame_dummy+0x3c>
   10124:	00c12083          	lw	ra,12(sp)
   10128:	01010113          	addi	sp,sp,16
   1012c:	f4dff06f          	j	10078 <register_tm_clones>
   10130:	00000793          	li	a5,0
   10134:	fe0788e3          	beqz	a5,10124 <frame_dummy+0x30>
   10138:	000780e7          	jalr	a5
   1013c:	fe9ff06f          	j	10124 <frame_dummy+0x30>

00010140 <Proc_6>:
   10140:	fe010113          	addi	sp,sp,-32
   10144:	00112e23          	sw	ra,28(sp)
   10148:	00812c23          	sw	s0,24(sp)
   1014c:	02010413          	addi	s0,sp,32
   10150:	fea42623          	sw	a0,-20(s0)
   10154:	feb42423          	sw	a1,-24(s0)
   10158:	fe842783          	lw	a5,-24(s0)
   1015c:	fec42703          	lw	a4,-20(s0)
   10160:	00e7a023          	sw	a4,0(a5)
   10164:	fec42503          	lw	a0,-20(s0)
   10168:	3f0000ef          	jal	10558 <Func_3>
   1016c:	00050793          	mv	a5,a0
   10170:	00079863          	bnez	a5,10180 <Proc_6+0x40>
   10174:	fe842783          	lw	a5,-24(s0)
   10178:	00300713          	li	a4,3
   1017c:	00e7a023          	sw	a4,0(a5)
   10180:	fec42703          	lw	a4,-20(s0)
   10184:	00400793          	li	a5,4
   10188:	06e7ee63          	bltu	a5,a4,10204 <Proc_6+0xc4>
   1018c:	fec42783          	lw	a5,-20(s0)
   10190:	00279713          	slli	a4,a5,0x2
   10194:	0001b7b7          	lui	a5,0x1b
   10198:	74078793          	addi	a5,a5,1856 # 1b740 <__errno+0xc>
   1019c:	00f707b3          	add	a5,a4,a5
   101a0:	0007a783          	lw	a5,0(a5)
   101a4:	00078067          	jr	a5
   101a8:	fe842783          	lw	a5,-24(s0)
   101ac:	0007a023          	sw	zero,0(a5)
   101b0:	0540006f          	j	10204 <Proc_6+0xc4>
   101b4:	000207b7          	lui	a5,0x20
   101b8:	6907a703          	lw	a4,1680(a5) # 20690 <Int_Glob>
   101bc:	06400793          	li	a5,100
   101c0:	00e7d863          	ble	a4,a5,101d0 <Proc_6+0x90>
   101c4:	fe842783          	lw	a5,-24(s0)
   101c8:	0007a023          	sw	zero,0(a5)
   101cc:	0380006f          	j	10204 <Proc_6+0xc4>
   101d0:	fe842783          	lw	a5,-24(s0)
   101d4:	00300713          	li	a4,3
   101d8:	00e7a023          	sw	a4,0(a5)
   101dc:	0280006f          	j	10204 <Proc_6+0xc4>
   101e0:	fe842783          	lw	a5,-24(s0)
   101e4:	00100713          	li	a4,1
   101e8:	00e7a023          	sw	a4,0(a5)
   101ec:	0180006f          	j	10204 <Proc_6+0xc4>
   101f0:	fe842783          	lw	a5,-24(s0)
   101f4:	00200713          	li	a4,2
   101f8:	00e7a023          	sw	a4,0(a5)
   101fc:	0080006f          	j	10204 <Proc_6+0xc4>
   10200:	00000013          	nop
   10204:	00000013          	nop
   10208:	00078513          	mv	a0,a5
   1020c:	01c12083          	lw	ra,28(sp)
   10210:	01812403          	lw	s0,24(sp)
   10214:	02010113          	addi	sp,sp,32
   10218:	00008067          	ret

0001021c <Proc_7>:
   1021c:	fd010113          	addi	sp,sp,-48
   10220:	02812623          	sw	s0,44(sp)
   10224:	03010413          	addi	s0,sp,48
   10228:	fca42e23          	sw	a0,-36(s0)
   1022c:	fcb42c23          	sw	a1,-40(s0)
   10230:	fcc42a23          	sw	a2,-44(s0)
   10234:	fdc42783          	lw	a5,-36(s0)
   10238:	00278793          	addi	a5,a5,2
   1023c:	fef42623          	sw	a5,-20(s0)
   10240:	fd842703          	lw	a4,-40(s0)
   10244:	fec42783          	lw	a5,-20(s0)
   10248:	00f70733          	add	a4,a4,a5
   1024c:	fd442783          	lw	a5,-44(s0)
   10250:	00e7a023          	sw	a4,0(a5)
   10254:	00000013          	nop
   10258:	00078513          	mv	a0,a5
   1025c:	02c12403          	lw	s0,44(sp)
   10260:	03010113          	addi	sp,sp,48
   10264:	00008067          	ret

00010268 <Proc_8>:
   10268:	fd010113          	addi	sp,sp,-48
   1026c:	02812623          	sw	s0,44(sp)
   10270:	03010413          	addi	s0,sp,48
   10274:	fca42e23          	sw	a0,-36(s0)
   10278:	fcb42c23          	sw	a1,-40(s0)
   1027c:	fcc42a23          	sw	a2,-44(s0)
   10280:	fcd42823          	sw	a3,-48(s0)
   10284:	fd442783          	lw	a5,-44(s0)
   10288:	00578793          	addi	a5,a5,5
   1028c:	fef42423          	sw	a5,-24(s0)
   10290:	fe842783          	lw	a5,-24(s0)
   10294:	00279793          	slli	a5,a5,0x2
   10298:	fdc42703          	lw	a4,-36(s0)
   1029c:	00f707b3          	add	a5,a4,a5
   102a0:	fd042703          	lw	a4,-48(s0)
   102a4:	00e7a023          	sw	a4,0(a5)
   102a8:	fe842783          	lw	a5,-24(s0)
   102ac:	00178793          	addi	a5,a5,1
   102b0:	00279793          	slli	a5,a5,0x2
   102b4:	fdc42703          	lw	a4,-36(s0)
   102b8:	00f707b3          	add	a5,a4,a5
   102bc:	fe842703          	lw	a4,-24(s0)
   102c0:	00271713          	slli	a4,a4,0x2
   102c4:	fdc42683          	lw	a3,-36(s0)
   102c8:	00e68733          	add	a4,a3,a4
   102cc:	00072703          	lw	a4,0(a4)
   102d0:	00e7a023          	sw	a4,0(a5)
   102d4:	fe842783          	lw	a5,-24(s0)
   102d8:	01e78793          	addi	a5,a5,30
   102dc:	00279793          	slli	a5,a5,0x2
   102e0:	fdc42703          	lw	a4,-36(s0)
   102e4:	00f707b3          	add	a5,a4,a5
   102e8:	fe842703          	lw	a4,-24(s0)
   102ec:	00e7a023          	sw	a4,0(a5)
   102f0:	fe842783          	lw	a5,-24(s0)
   102f4:	fef42623          	sw	a5,-20(s0)
   102f8:	0380006f          	j	10330 <Proc_8+0xc8>
   102fc:	fe842703          	lw	a4,-24(s0)
   10300:	0c800793          	li	a5,200
   10304:	02f707b3          	mul	a5,a4,a5
   10308:	fd842703          	lw	a4,-40(s0)
   1030c:	00f70733          	add	a4,a4,a5
   10310:	fec42783          	lw	a5,-20(s0)
   10314:	00279793          	slli	a5,a5,0x2
   10318:	00f707b3          	add	a5,a4,a5
   1031c:	fe842703          	lw	a4,-24(s0)
   10320:	00e7a023          	sw	a4,0(a5)
   10324:	fec42783          	lw	a5,-20(s0)
   10328:	00178793          	addi	a5,a5,1
   1032c:	fef42623          	sw	a5,-20(s0)
   10330:	fe842783          	lw	a5,-24(s0)
   10334:	00178713          	addi	a4,a5,1
   10338:	fec42783          	lw	a5,-20(s0)
   1033c:	fcf750e3          	ble	a5,a4,102fc <Proc_8+0x94>
   10340:	fe842703          	lw	a4,-24(s0)
   10344:	0c800793          	li	a5,200
   10348:	02f707b3          	mul	a5,a4,a5
   1034c:	fd842703          	lw	a4,-40(s0)
   10350:	00f706b3          	add	a3,a4,a5
   10354:	fe842783          	lw	a5,-24(s0)
   10358:	fff78793          	addi	a5,a5,-1
   1035c:	fe842603          	lw	a2,-24(s0)
   10360:	0c800713          	li	a4,200
   10364:	02e60733          	mul	a4,a2,a4
   10368:	fd842603          	lw	a2,-40(s0)
   1036c:	00e60633          	add	a2,a2,a4
   10370:	fe842703          	lw	a4,-24(s0)
   10374:	fff70713          	addi	a4,a4,-1
   10378:	00271713          	slli	a4,a4,0x2
   1037c:	00e60733          	add	a4,a2,a4
   10380:	00072703          	lw	a4,0(a4)
   10384:	00170713          	addi	a4,a4,1
   10388:	00279793          	slli	a5,a5,0x2
   1038c:	00f687b3          	add	a5,a3,a5
   10390:	00e7a023          	sw	a4,0(a5)
   10394:	fe842703          	lw	a4,-24(s0)
   10398:	0c800793          	li	a5,200
   1039c:	02f70733          	mul	a4,a4,a5
   103a0:	000017b7          	lui	a5,0x1
   103a4:	fa078793          	addi	a5,a5,-96 # fa0 <_ftext-0xf060>
   103a8:	00f707b3          	add	a5,a4,a5
   103ac:	fd842703          	lw	a4,-40(s0)
   103b0:	00f706b3          	add	a3,a4,a5
   103b4:	fe842783          	lw	a5,-24(s0)
   103b8:	00279793          	slli	a5,a5,0x2
   103bc:	fdc42703          	lw	a4,-36(s0)
   103c0:	00f707b3          	add	a5,a4,a5
   103c4:	0007a703          	lw	a4,0(a5)
   103c8:	fe842783          	lw	a5,-24(s0)
   103cc:	00279793          	slli	a5,a5,0x2
   103d0:	00f687b3          	add	a5,a3,a5
   103d4:	00e7a023          	sw	a4,0(a5)
   103d8:	000207b7          	lui	a5,0x20
   103dc:	00500713          	li	a4,5
   103e0:	68e7a823          	sw	a4,1680(a5) # 20690 <Int_Glob>
   103e4:	00000013          	nop
   103e8:	00078513          	mv	a0,a5
   103ec:	02c12403          	lw	s0,44(sp)
   103f0:	03010113          	addi	sp,sp,48
   103f4:	00008067          	ret

000103f8 <Func_1>:
   103f8:	fd010113          	addi	sp,sp,-48
   103fc:	02812623          	sw	s0,44(sp)
   10400:	03010413          	addi	s0,sp,48
   10404:	00050713          	mv	a4,a0
   10408:	00058793          	mv	a5,a1
   1040c:	fce40e23          	sb	a4,-36(s0)
   10410:	fcf40c23          	sb	a5,-40(s0)
   10414:	fdc44783          	lbu	a5,-36(s0)
   10418:	fef407a3          	sb	a5,-17(s0)
   1041c:	fef44783          	lbu	a5,-17(s0)
   10420:	fef40723          	sb	a5,-18(s0)
   10424:	fee44703          	lbu	a4,-18(s0)
   10428:	fd844783          	lbu	a5,-40(s0)
   1042c:	00f70663          	beq	a4,a5,10438 <Func_1+0x40>
   10430:	00000793          	li	a5,0
   10434:	0140006f          	j	10448 <Func_1+0x50>
   10438:	000207b7          	lui	a5,0x20
   1043c:	fef44703          	lbu	a4,-17(s0)
   10440:	68e78a23          	sb	a4,1684(a5) # 20694 <Ch_1_Glob>
   10444:	00100793          	li	a5,1
   10448:	00078513          	mv	a0,a5
   1044c:	02c12403          	lw	s0,44(sp)
   10450:	03010113          	addi	sp,sp,48
   10454:	00008067          	ret

00010458 <Func_2>:
   10458:	fd010113          	addi	sp,sp,-48
   1045c:	02112623          	sw	ra,44(sp)
   10460:	02812423          	sw	s0,40(sp)
   10464:	03010413          	addi	s0,sp,48
   10468:	fca42e23          	sw	a0,-36(s0)
   1046c:	fcb42c23          	sw	a1,-40(s0)
   10470:	00200793          	li	a5,2
   10474:	fef42623          	sw	a5,-20(s0)
   10478:	0540006f          	j	104cc <Func_2+0x74>
   1047c:	fec42783          	lw	a5,-20(s0)
   10480:	fdc42703          	lw	a4,-36(s0)
   10484:	00f707b3          	add	a5,a4,a5
   10488:	0007c783          	lbu	a5,0(a5)
   1048c:	00078693          	mv	a3,a5
   10490:	fec42783          	lw	a5,-20(s0)
   10494:	00178793          	addi	a5,a5,1
   10498:	fd842703          	lw	a4,-40(s0)
   1049c:	00f707b3          	add	a5,a4,a5
   104a0:	0007c783          	lbu	a5,0(a5)
   104a4:	00078593          	mv	a1,a5
   104a8:	00068513          	mv	a0,a3
   104ac:	f4dff0ef          	jal	103f8 <Func_1>
   104b0:	00050793          	mv	a5,a0
   104b4:	00079c63          	bnez	a5,104cc <Func_2+0x74>
   104b8:	04100793          	li	a5,65
   104bc:	fef405a3          	sb	a5,-21(s0)
   104c0:	fec42783          	lw	a5,-20(s0)
   104c4:	00178793          	addi	a5,a5,1
   104c8:	fef42623          	sw	a5,-20(s0)
   104cc:	fec42703          	lw	a4,-20(s0)
   104d0:	00200793          	li	a5,2
   104d4:	fae7d4e3          	ble	a4,a5,1047c <Func_2+0x24>
   104d8:	feb44703          	lbu	a4,-21(s0)
   104dc:	05600793          	li	a5,86
   104e0:	00e7fc63          	bleu	a4,a5,104f8 <Func_2+0xa0>
   104e4:	feb44703          	lbu	a4,-21(s0)
   104e8:	05900793          	li	a5,89
   104ec:	00e7e663          	bltu	a5,a4,104f8 <Func_2+0xa0>
   104f0:	00700793          	li	a5,7
   104f4:	fef42623          	sw	a5,-20(s0)
   104f8:	feb44703          	lbu	a4,-21(s0)
   104fc:	05200793          	li	a5,82
   10500:	00f71663          	bne	a4,a5,1050c <Func_2+0xb4>
   10504:	00100793          	li	a5,1
   10508:	03c0006f          	j	10544 <Func_2+0xec>
   1050c:	fd842583          	lw	a1,-40(s0)
   10510:	fdc42503          	lw	a0,-36(s0)
   10514:	675020ef          	jal	13388 <strcmp>
   10518:	00050793          	mv	a5,a0
   1051c:	02f05263          	blez	a5,10540 <Func_2+0xe8>
   10520:	fec42783          	lw	a5,-20(s0)
   10524:	00778793          	addi	a5,a5,7
   10528:	fef42623          	sw	a5,-20(s0)
   1052c:	000207b7          	lui	a5,0x20
   10530:	fec42703          	lw	a4,-20(s0)
   10534:	68e7a823          	sw	a4,1680(a5) # 20690 <Int_Glob>
   10538:	00100793          	li	a5,1
   1053c:	0080006f          	j	10544 <Func_2+0xec>
   10540:	00000793          	li	a5,0
   10544:	00078513          	mv	a0,a5
   10548:	02c12083          	lw	ra,44(sp)
   1054c:	02812403          	lw	s0,40(sp)
   10550:	03010113          	addi	sp,sp,48
   10554:	00008067          	ret

00010558 <Func_3>:
   10558:	fd010113          	addi	sp,sp,-48
   1055c:	02812623          	sw	s0,44(sp)
   10560:	03010413          	addi	s0,sp,48
   10564:	fca42e23          	sw	a0,-36(s0)
   10568:	fdc42783          	lw	a5,-36(s0)
   1056c:	fef42623          	sw	a5,-20(s0)
   10570:	fec42703          	lw	a4,-20(s0)
   10574:	00200793          	li	a5,2
   10578:	00f71663          	bne	a4,a5,10584 <Func_3+0x2c>
   1057c:	00100793          	li	a5,1
   10580:	0080006f          	j	10588 <Func_3+0x30>
   10584:	00000793          	li	a5,0
   10588:	00078513          	mv	a0,a5
   1058c:	02c12403          	lw	s0,44(sp)
   10590:	03010113          	addi	sp,sp,48
   10594:	00008067          	ret

00010598 <debug_printf>:
   10598:	fc010113          	addi	sp,sp,-64
   1059c:	00812e23          	sw	s0,28(sp)
   105a0:	02010413          	addi	s0,sp,32
   105a4:	fea42623          	sw	a0,-20(s0)
   105a8:	00b42223          	sw	a1,4(s0)
   105ac:	00c42423          	sw	a2,8(s0)
   105b0:	00d42623          	sw	a3,12(s0)
   105b4:	00e42823          	sw	a4,16(s0)
   105b8:	00f42a23          	sw	a5,20(s0)
   105bc:	01042c23          	sw	a6,24(s0)
   105c0:	01142e23          	sw	a7,28(s0)
   105c4:	00000013          	nop
   105c8:	01c12403          	lw	s0,28(sp)
   105cc:	04010113          	addi	sp,sp,64
   105d0:	00008067          	ret

000105d4 <main>:
   105d4:	f8010113          	addi	sp,sp,-128
   105d8:	06112e23          	sw	ra,124(sp)
   105dc:	06812c23          	sw	s0,120(sp)
   105e0:	08010413          	addi	s0,sp,128
   105e4:	f8a42623          	sw	a0,-116(s0)
   105e8:	f8b42423          	sw	a1,-120(s0)
   105ec:	1f400793          	li	a5,500
   105f0:	fef42023          	sw	a5,-32(s0)
   105f4:	fc010113          	addi	sp,sp,-64
   105f8:	00010793          	mv	a5,sp
   105fc:	00f78793          	addi	a5,a5,15
   10600:	0047d793          	srli	a5,a5,0x4
   10604:	00479793          	slli	a5,a5,0x4
   10608:	00078713          	mv	a4,a5
   1060c:	000207b7          	lui	a5,0x20
   10610:	68e7a623          	sw	a4,1676(a5) # 2068c <Next_Ptr_Glob>
   10614:	fc010113          	addi	sp,sp,-64
   10618:	00010793          	mv	a5,sp
   1061c:	00f78793          	addi	a5,a5,15
   10620:	0047d793          	srli	a5,a5,0x4
   10624:	00479793          	slli	a5,a5,0x4
   10628:	00078713          	mv	a4,a5
   1062c:	000207b7          	lui	a5,0x20
   10630:	68e7ac23          	sw	a4,1688(a5) # 20698 <Ptr_Glob>
   10634:	000207b7          	lui	a5,0x20
   10638:	6987a783          	lw	a5,1688(a5) # 20698 <Ptr_Glob>
   1063c:	00020737          	lui	a4,0x20
   10640:	68c72703          	lw	a4,1676(a4) # 2068c <Next_Ptr_Glob>
   10644:	00e7a023          	sw	a4,0(a5)
   10648:	000207b7          	lui	a5,0x20
   1064c:	6987a783          	lw	a5,1688(a5) # 20698 <Ptr_Glob>
   10650:	0007a223          	sw	zero,4(a5)
   10654:	000207b7          	lui	a5,0x20
   10658:	6987a783          	lw	a5,1688(a5) # 20698 <Ptr_Glob>
   1065c:	00200713          	li	a4,2
   10660:	00e7a423          	sw	a4,8(a5)
   10664:	000207b7          	lui	a5,0x20
   10668:	6987a783          	lw	a5,1688(a5) # 20698 <Ptr_Glob>
   1066c:	02800713          	li	a4,40
   10670:	00e7a623          	sw	a4,12(a5)
   10674:	000207b7          	lui	a5,0x20
   10678:	6987a783          	lw	a5,1688(a5) # 20698 <Ptr_Glob>
   1067c:	01078713          	addi	a4,a5,16
   10680:	0001b7b7          	lui	a5,0x1b
   10684:	00070693          	mv	a3,a4
   10688:	75878793          	addi	a5,a5,1880 # 1b758 <__errno+0x24>
   1068c:	01f00713          	li	a4,31
   10690:	00070613          	mv	a2,a4
   10694:	00078593          	mv	a1,a5
   10698:	00068513          	mv	a0,a3
   1069c:	0f5020ef          	jal	12f90 <memcpy>
   106a0:	0001b7b7          	lui	a5,0x1b
   106a4:	7787a883          	lw	a7,1912(a5) # 1b778 <__errno+0x44>
   106a8:	77878713          	addi	a4,a5,1912
   106ac:	00472803          	lw	a6,4(a4)
   106b0:	77878713          	addi	a4,a5,1912
   106b4:	00872503          	lw	a0,8(a4)
   106b8:	77878713          	addi	a4,a5,1912
   106bc:	00c72583          	lw	a1,12(a4)
   106c0:	77878713          	addi	a4,a5,1912
   106c4:	01072603          	lw	a2,16(a4)
   106c8:	77878713          	addi	a4,a5,1912
   106cc:	01472683          	lw	a3,20(a4)
   106d0:	77878713          	addi	a4,a5,1912
   106d4:	01872703          	lw	a4,24(a4)
   106d8:	fb142a23          	sw	a7,-76(s0)
   106dc:	fb042c23          	sw	a6,-72(s0)
   106e0:	faa42e23          	sw	a0,-68(s0)
   106e4:	fcb42023          	sw	a1,-64(s0)
   106e8:	fcc42223          	sw	a2,-60(s0)
   106ec:	fcd42423          	sw	a3,-56(s0)
   106f0:	fce42623          	sw	a4,-52(s0)
   106f4:	77878793          	addi	a5,a5,1912
   106f8:	01c7d703          	lhu	a4,28(a5)
   106fc:	fce41823          	sh	a4,-48(s0)
   10700:	01e7c783          	lbu	a5,30(a5)
   10704:	fcf40923          	sb	a5,-46(s0)
   10708:	90818793          	addi	a5,gp,-1784 # 1df78 <Arr_2_Glob>
   1070c:	00a00713          	li	a4,10
   10710:	64e7ae23          	sw	a4,1628(a5)
   10714:	00a00513          	li	a0,10
   10718:	235020ef          	jal	1314c <putchar>
   1071c:	0001b7b7          	lui	a5,0x1b
   10720:	79878593          	addi	a1,a5,1944 # 1b798 <__errno+0x64>
   10724:	0001b7b7          	lui	a5,0x1b
   10728:	7a878513          	addi	a0,a5,1960 # 1b7a8 <__errno+0x74>
   1072c:	1c9020ef          	jal	130f4 <printf>
   10730:	8701a783          	lw	a5,-1936(gp) # 1dee0 <Reg>
   10734:	00078a63          	beqz	a5,10748 <main+0x174>
   10738:	0001b7b7          	lui	a5,0x1b
   1073c:	7cc78513          	addi	a0,a5,1996 # 1b7cc <__errno+0x98>
   10740:	43d020ef          	jal	1337c <puts>
   10744:	0100006f          	j	10754 <main+0x180>
   10748:	0001b7b7          	lui	a5,0x1b
   1074c:	7f878513          	addi	a0,a5,2040 # 1b7f8 <__errno+0xc4>
   10750:	42d020ef          	jal	1337c <puts>
   10754:	03c00613          	li	a2,60
   10758:	0001c7b7          	lui	a5,0x1c
   1075c:	82878593          	addi	a1,a5,-2008 # 1b828 <__errno+0xf4>
   10760:	0001c7b7          	lui	a5,0x1c
   10764:	83878513          	addi	a0,a5,-1992 # 1b838 <__errno+0x104>
   10768:	18d020ef          	jal	130f4 <printf>
   1076c:	00a00513          	li	a0,10
   10770:	1dd020ef          	jal	1314c <putchar>
   10774:	000207b7          	lui	a5,0x20
   10778:	6807ae23          	sw	zero,1692(a5) # 2069c <Done>
   1077c:	0001c7b7          	lui	a5,0x1c
   10780:	84c78513          	addi	a0,a5,-1972 # 1b84c <__errno+0x118>
   10784:	171020ef          	jal	130f4 <printf>
   10788:	1f400793          	li	a5,500
   1078c:	fef42023          	sw	a5,-32(s0)
   10790:	3180006f          	j	10aa8 <main+0x4d4>
   10794:	fe042583          	lw	a1,-32(s0)
   10798:	0001c7b7          	lui	a5,0x1c
   1079c:	88478513          	addi	a0,a5,-1916 # 1b884 <__errno+0x150>
   107a0:	155020ef          	jal	130f4 <printf>
   107a4:	00000593          	li	a1,0
   107a8:	8e818513          	addi	a0,gp,-1816 # 1df58 <run_time>
   107ac:	69d0a0ef          	jal	1b648 <gettimeofday>
   107b0:	8e81a703          	lw	a4,-1816(gp) # 1df58 <run_time>
   107b4:	8ec1a783          	lw	a5,-1812(gp) # 1df5c <run_time+0x4>
   107b8:	90e1a223          	sw	a4,-1788(gp) # 1df74 <Begin_Time>
   107bc:	00100793          	li	a5,1
   107c0:	fef42223          	sw	a5,-28(s0)
   107c4:	2640006f          	j	10a28 <main+0x454>
   107c8:	1b1000ef          	jal	11178 <Proc_5>
   107cc:	151000ef          	jal	1111c <Proc_4>
   107d0:	00200793          	li	a5,2
   107d4:	fcf42e23          	sw	a5,-36(s0)
   107d8:	00300793          	li	a5,3
   107dc:	fef42623          	sw	a5,-20(s0)
   107e0:	0001c7b7          	lui	a5,0x1c
   107e4:	8a87a883          	lw	a7,-1880(a5) # 1b8a8 <__errno+0x174>
   107e8:	8a878713          	addi	a4,a5,-1880
   107ec:	00472803          	lw	a6,4(a4)
   107f0:	8a878713          	addi	a4,a5,-1880
   107f4:	00872503          	lw	a0,8(a4)
   107f8:	8a878713          	addi	a4,a5,-1880
   107fc:	00c72583          	lw	a1,12(a4)
   10800:	8a878713          	addi	a4,a5,-1880
   10804:	01072603          	lw	a2,16(a4)
   10808:	8a878713          	addi	a4,a5,-1880
   1080c:	01472683          	lw	a3,20(a4)
   10810:	8a878713          	addi	a4,a5,-1880
   10814:	01872703          	lw	a4,24(a4)
   10818:	f9142a23          	sw	a7,-108(s0)
   1081c:	f9042c23          	sw	a6,-104(s0)
   10820:	f8a42e23          	sw	a0,-100(s0)
   10824:	fab42023          	sw	a1,-96(s0)
   10828:	fac42223          	sw	a2,-92(s0)
   1082c:	fad42423          	sw	a3,-88(s0)
   10830:	fae42623          	sw	a4,-84(s0)
   10834:	8a878793          	addi	a5,a5,-1880
   10838:	01c7d703          	lhu	a4,28(a5)
   1083c:	fae41823          	sh	a4,-80(s0)
   10840:	01e7c783          	lbu	a5,30(a5)
   10844:	faf40923          	sb	a5,-78(s0)
   10848:	00100793          	li	a5,1
   1084c:	fcf42a23          	sw	a5,-44(s0)
   10850:	f9440713          	addi	a4,s0,-108
   10854:	fb440793          	addi	a5,s0,-76
   10858:	00070593          	mv	a1,a4
   1085c:	00078513          	mv	a0,a5
   10860:	bf9ff0ef          	jal	10458 <Func_2>
   10864:	00050793          	mv	a5,a0
   10868:	0017b793          	seqz	a5,a5
   1086c:	0ff7f793          	andi	a5,a5,255
   10870:	00078713          	mv	a4,a5
   10874:	000207b7          	lui	a5,0x20
   10878:	76e7a423          	sw	a4,1896(a5) # 20768 <Bool_Glob>
   1087c:	0440006f          	j	108c0 <main+0x2ec>
   10880:	fdc42703          	lw	a4,-36(s0)
   10884:	00070793          	mv	a5,a4
   10888:	00279793          	slli	a5,a5,0x2
   1088c:	00e78733          	add	a4,a5,a4
   10890:	fec42783          	lw	a5,-20(s0)
   10894:	40f707b3          	sub	a5,a4,a5
   10898:	fcf42c23          	sw	a5,-40(s0)
   1089c:	fdc42783          	lw	a5,-36(s0)
   108a0:	fd840713          	addi	a4,s0,-40
   108a4:	00070613          	mv	a2,a4
   108a8:	fec42583          	lw	a1,-20(s0)
   108ac:	00078513          	mv	a0,a5
   108b0:	96dff0ef          	jal	1021c <Proc_7>
   108b4:	fdc42783          	lw	a5,-36(s0)
   108b8:	00178793          	addi	a5,a5,1
   108bc:	fcf42e23          	sw	a5,-36(s0)
   108c0:	fdc42703          	lw	a4,-36(s0)
   108c4:	fec42783          	lw	a5,-20(s0)
   108c8:	faf74ce3          	blt	a4,a5,10880 <main+0x2ac>
   108cc:	fdc42783          	lw	a5,-36(s0)
   108d0:	fd842703          	lw	a4,-40(s0)
   108d4:	00070693          	mv	a3,a4
   108d8:	00078613          	mv	a2,a5
   108dc:	90818593          	addi	a1,gp,-1784 # 1df78 <Arr_2_Glob>
   108e0:	000207b7          	lui	a5,0x20
   108e4:	6a078513          	addi	a0,a5,1696 # 206a0 <Arr_1_Glob>
   108e8:	981ff0ef          	jal	10268 <Proc_8>
   108ec:	000207b7          	lui	a5,0x20
   108f0:	6987a783          	lw	a5,1688(a5) # 20698 <Ptr_Glob>
   108f4:	00078513          	mv	a0,a5
   108f8:	618000ef          	jal	10f10 <Proc_1>
   108fc:	04100793          	li	a5,65
   10900:	fef405a3          	sb	a5,-21(s0)
   10904:	0b80006f          	j	109bc <main+0x3e8>
   10908:	feb44783          	lbu	a5,-21(s0)
   1090c:	04300593          	li	a1,67
   10910:	00078513          	mv	a0,a5
   10914:	ae5ff0ef          	jal	103f8 <Func_1>
   10918:	00050713          	mv	a4,a0
   1091c:	fd442783          	lw	a5,-44(s0)
   10920:	08f71863          	bne	a4,a5,109b0 <main+0x3dc>
   10924:	fd440793          	addi	a5,s0,-44
   10928:	00078593          	mv	a1,a5
   1092c:	00000513          	li	a0,0
   10930:	811ff0ef          	jal	10140 <Proc_6>
   10934:	0001c7b7          	lui	a5,0x1c
   10938:	8c87a883          	lw	a7,-1848(a5) # 1b8c8 <__errno+0x194>
   1093c:	8c878713          	addi	a4,a5,-1848
   10940:	00472803          	lw	a6,4(a4)
   10944:	8c878713          	addi	a4,a5,-1848
   10948:	00872503          	lw	a0,8(a4)
   1094c:	8c878713          	addi	a4,a5,-1848
   10950:	00c72583          	lw	a1,12(a4)
   10954:	8c878713          	addi	a4,a5,-1848
   10958:	01072603          	lw	a2,16(a4)
   1095c:	8c878713          	addi	a4,a5,-1848
   10960:	01472683          	lw	a3,20(a4)
   10964:	8c878713          	addi	a4,a5,-1848
   10968:	01872703          	lw	a4,24(a4)
   1096c:	f9142a23          	sw	a7,-108(s0)
   10970:	f9042c23          	sw	a6,-104(s0)
   10974:	f8a42e23          	sw	a0,-100(s0)
   10978:	fab42023          	sw	a1,-96(s0)
   1097c:	fac42223          	sw	a2,-92(s0)
   10980:	fad42423          	sw	a3,-88(s0)
   10984:	fae42623          	sw	a4,-84(s0)
   10988:	8c878793          	addi	a5,a5,-1848
   1098c:	01c7d703          	lhu	a4,28(a5)
   10990:	fae41823          	sh	a4,-80(s0)
   10994:	01e7c783          	lbu	a5,30(a5)
   10998:	faf40923          	sb	a5,-78(s0)
   1099c:	fe442783          	lw	a5,-28(s0)
   109a0:	fef42623          	sw	a5,-20(s0)
   109a4:	000207b7          	lui	a5,0x20
   109a8:	fe442703          	lw	a4,-28(s0)
   109ac:	68e7a823          	sw	a4,1680(a5) # 20690 <Int_Glob>
   109b0:	feb44783          	lbu	a5,-21(s0)
   109b4:	00178793          	addi	a5,a5,1
   109b8:	fef405a3          	sb	a5,-21(s0)
   109bc:	000207b7          	lui	a5,0x20
   109c0:	6957c783          	lbu	a5,1685(a5) # 20695 <Ch_2_Glob>
   109c4:	feb44703          	lbu	a4,-21(s0)
   109c8:	f4e7f0e3          	bleu	a4,a5,10908 <main+0x334>
   109cc:	fdc42783          	lw	a5,-36(s0)
   109d0:	fec42703          	lw	a4,-20(s0)
   109d4:	02f707b3          	mul	a5,a4,a5
   109d8:	fef42623          	sw	a5,-20(s0)
   109dc:	fd842783          	lw	a5,-40(s0)
   109e0:	fec42703          	lw	a4,-20(s0)
   109e4:	02f747b3          	div	a5,a4,a5
   109e8:	fcf42e23          	sw	a5,-36(s0)
   109ec:	fd842783          	lw	a5,-40(s0)
   109f0:	fec42703          	lw	a4,-20(s0)
   109f4:	40f70733          	sub	a4,a4,a5
   109f8:	00070793          	mv	a5,a4
   109fc:	00379793          	slli	a5,a5,0x3
   10a00:	40e78733          	sub	a4,a5,a4
   10a04:	fdc42783          	lw	a5,-36(s0)
   10a08:	40f707b3          	sub	a5,a4,a5
   10a0c:	fef42623          	sw	a5,-20(s0)
   10a10:	fdc40793          	addi	a5,s0,-36
   10a14:	00078513          	mv	a0,a5
   10a18:	620000ef          	jal	11038 <Proc_2>
   10a1c:	fe442783          	lw	a5,-28(s0)
   10a20:	00178793          	addi	a5,a5,1
   10a24:	fef42223          	sw	a5,-28(s0)
   10a28:	fe442703          	lw	a4,-28(s0)
   10a2c:	fe042783          	lw	a5,-32(s0)
   10a30:	d8e7dce3          	ble	a4,a5,107c8 <main+0x1f4>
   10a34:	00000593          	li	a1,0
   10a38:	8e818513          	addi	a0,gp,-1816 # 1df58 <run_time>
   10a3c:	40d0a0ef          	jal	1b648 <gettimeofday>
   10a40:	8e81a703          	lw	a4,-1816(gp) # 1df58 <run_time>
   10a44:	8ec1a783          	lw	a5,-1812(gp) # 1df5c <run_time+0x4>
   10a48:	000207b7          	lui	a5,0x20
   10a4c:	68e7a423          	sw	a4,1672(a5) # 20688 <End_Time>
   10a50:	000207b7          	lui	a5,0x20
   10a54:	6887a703          	lw	a4,1672(a5) # 20688 <End_Time>
   10a58:	9041a783          	lw	a5,-1788(gp) # 1df74 <Begin_Time>
   10a5c:	40f70733          	sub	a4,a4,a5
   10a60:	90e1a023          	sw	a4,-1792(gp) # 1df70 <User_Time>
   10a64:	9001a703          	lw	a4,-1792(gp) # 1df70 <User_Time>
   10a68:	03b00793          	li	a5,59
   10a6c:	02e7c863          	blt	a5,a4,10a9c <main+0x4c8>
   10a70:	0001c7b7          	lui	a5,0x1c
   10a74:	8e878513          	addi	a0,a5,-1816 # 1b8e8 <__errno+0x1b4>
   10a78:	105020ef          	jal	1337c <puts>
   10a7c:	fe042783          	lw	a5,-32(s0)
   10a80:	00179793          	slli	a5,a5,0x1
   10a84:	00279713          	slli	a4,a5,0x2
   10a88:	00e787b3          	add	a5,a5,a4
   10a8c:	fef42023          	sw	a5,-32(s0)
   10a90:	00a00513          	li	a0,10
   10a94:	6b8020ef          	jal	1314c <putchar>
   10a98:	0100006f          	j	10aa8 <main+0x4d4>
   10a9c:	000207b7          	lui	a5,0x20
   10aa0:	00100713          	li	a4,1
   10aa4:	68e7ae23          	sw	a4,1692(a5) # 2069c <Done>
   10aa8:	000207b7          	lui	a5,0x20
   10aac:	69c7a783          	lw	a5,1692(a5) # 2069c <Done>
   10ab0:	ce0782e3          	beqz	a5,10794 <main+0x1c0>
   10ab4:	0001c7b7          	lui	a5,0x1c
   10ab8:	92078513          	addi	a0,a5,-1760 # 1b920 <__errno+0x1ec>
   10abc:	0c1020ef          	jal	1337c <puts>
   10ac0:	00a00513          	li	a0,10
   10ac4:	688020ef          	jal	1314c <putchar>
   10ac8:	000207b7          	lui	a5,0x20
   10acc:	6907a783          	lw	a5,1680(a5) # 20690 <Int_Glob>
   10ad0:	00078593          	mv	a1,a5
   10ad4:	0001c7b7          	lui	a5,0x1c
   10ad8:	95878513          	addi	a0,a5,-1704 # 1b958 <__errno+0x224>
   10adc:	618020ef          	jal	130f4 <printf>
   10ae0:	00500593          	li	a1,5
   10ae4:	0001c7b7          	lui	a5,0x1c
   10ae8:	97478513          	addi	a0,a5,-1676 # 1b974 <__errno+0x240>
   10aec:	608020ef          	jal	130f4 <printf>
   10af0:	000207b7          	lui	a5,0x20
   10af4:	7687a783          	lw	a5,1896(a5) # 20768 <Bool_Glob>
   10af8:	00078593          	mv	a1,a5
   10afc:	0001c7b7          	lui	a5,0x1c
   10b00:	99078513          	addi	a0,a5,-1648 # 1b990 <__errno+0x25c>
   10b04:	5f0020ef          	jal	130f4 <printf>
   10b08:	00100593          	li	a1,1
   10b0c:	0001c7b7          	lui	a5,0x1c
   10b10:	97478513          	addi	a0,a5,-1676 # 1b974 <__errno+0x240>
   10b14:	5e0020ef          	jal	130f4 <printf>
   10b18:	000207b7          	lui	a5,0x20
   10b1c:	6947c783          	lbu	a5,1684(a5) # 20694 <Ch_1_Glob>
   10b20:	00078593          	mv	a1,a5
   10b24:	0001c7b7          	lui	a5,0x1c
   10b28:	9ac78513          	addi	a0,a5,-1620 # 1b9ac <__errno+0x278>
   10b2c:	5c8020ef          	jal	130f4 <printf>
   10b30:	04100593          	li	a1,65
   10b34:	0001c7b7          	lui	a5,0x1c
   10b38:	9c878513          	addi	a0,a5,-1592 # 1b9c8 <__errno+0x294>
   10b3c:	5b8020ef          	jal	130f4 <printf>
   10b40:	000207b7          	lui	a5,0x20
   10b44:	6957c783          	lbu	a5,1685(a5) # 20695 <Ch_2_Glob>
   10b48:	00078593          	mv	a1,a5
   10b4c:	0001c7b7          	lui	a5,0x1c
   10b50:	9e478513          	addi	a0,a5,-1564 # 1b9e4 <__errno+0x2b0>
   10b54:	5a0020ef          	jal	130f4 <printf>
   10b58:	04200593          	li	a1,66
   10b5c:	0001c7b7          	lui	a5,0x1c
   10b60:	9c878513          	addi	a0,a5,-1592 # 1b9c8 <__errno+0x294>
   10b64:	590020ef          	jal	130f4 <printf>
   10b68:	000207b7          	lui	a5,0x20
   10b6c:	6a078793          	addi	a5,a5,1696 # 206a0 <Arr_1_Glob>
   10b70:	0207a783          	lw	a5,32(a5)
   10b74:	00078593          	mv	a1,a5
   10b78:	0001c7b7          	lui	a5,0x1c
   10b7c:	a0078513          	addi	a0,a5,-1536 # 1ba00 <__errno+0x2cc>
   10b80:	574020ef          	jal	130f4 <printf>
   10b84:	00700593          	li	a1,7
   10b88:	0001c7b7          	lui	a5,0x1c
   10b8c:	97478513          	addi	a0,a5,-1676 # 1b974 <__errno+0x240>
   10b90:	564020ef          	jal	130f4 <printf>
   10b94:	90818793          	addi	a5,gp,-1784 # 1df78 <Arr_2_Glob>
   10b98:	65c7a783          	lw	a5,1628(a5)
   10b9c:	00078593          	mv	a1,a5
   10ba0:	0001c7b7          	lui	a5,0x1c
   10ba4:	a1c78513          	addi	a0,a5,-1508 # 1ba1c <__errno+0x2e8>
   10ba8:	54c020ef          	jal	130f4 <printf>
   10bac:	0001c7b7          	lui	a5,0x1c
   10bb0:	a3878513          	addi	a0,a5,-1480 # 1ba38 <__errno+0x304>
   10bb4:	7c8020ef          	jal	1337c <puts>
   10bb8:	0001c7b7          	lui	a5,0x1c
   10bbc:	a6478513          	addi	a0,a5,-1436 # 1ba64 <__errno+0x330>
   10bc0:	7bc020ef          	jal	1337c <puts>
   10bc4:	000207b7          	lui	a5,0x20
   10bc8:	6987a783          	lw	a5,1688(a5) # 20698 <Ptr_Glob>
   10bcc:	0007a783          	lw	a5,0(a5)
   10bd0:	00078593          	mv	a1,a5
   10bd4:	0001c7b7          	lui	a5,0x1c
   10bd8:	a7078513          	addi	a0,a5,-1424 # 1ba70 <__errno+0x33c>
   10bdc:	518020ef          	jal	130f4 <printf>
   10be0:	0001c7b7          	lui	a5,0x1c
   10be4:	a8c78513          	addi	a0,a5,-1396 # 1ba8c <__errno+0x358>
   10be8:	794020ef          	jal	1337c <puts>
   10bec:	000207b7          	lui	a5,0x20
   10bf0:	6987a783          	lw	a5,1688(a5) # 20698 <Ptr_Glob>
   10bf4:	0047a783          	lw	a5,4(a5)
   10bf8:	00078593          	mv	a1,a5
   10bfc:	0001c7b7          	lui	a5,0x1c
   10c00:	abc78513          	addi	a0,a5,-1348 # 1babc <__errno+0x388>
   10c04:	4f0020ef          	jal	130f4 <printf>
   10c08:	00000593          	li	a1,0
   10c0c:	0001c7b7          	lui	a5,0x1c
   10c10:	97478513          	addi	a0,a5,-1676 # 1b974 <__errno+0x240>
   10c14:	4e0020ef          	jal	130f4 <printf>
   10c18:	000207b7          	lui	a5,0x20
   10c1c:	6987a783          	lw	a5,1688(a5) # 20698 <Ptr_Glob>
   10c20:	0087a783          	lw	a5,8(a5)
   10c24:	00078593          	mv	a1,a5
   10c28:	0001c7b7          	lui	a5,0x1c
   10c2c:	ad878513          	addi	a0,a5,-1320 # 1bad8 <__errno+0x3a4>
   10c30:	4c4020ef          	jal	130f4 <printf>
   10c34:	00200593          	li	a1,2
   10c38:	0001c7b7          	lui	a5,0x1c
   10c3c:	97478513          	addi	a0,a5,-1676 # 1b974 <__errno+0x240>
   10c40:	4b4020ef          	jal	130f4 <printf>
   10c44:	000207b7          	lui	a5,0x20
   10c48:	6987a783          	lw	a5,1688(a5) # 20698 <Ptr_Glob>
   10c4c:	00c7a783          	lw	a5,12(a5)
   10c50:	00078593          	mv	a1,a5
   10c54:	0001c7b7          	lui	a5,0x1c
   10c58:	af478513          	addi	a0,a5,-1292 # 1baf4 <__errno+0x3c0>
   10c5c:	498020ef          	jal	130f4 <printf>
   10c60:	01100593          	li	a1,17
   10c64:	0001c7b7          	lui	a5,0x1c
   10c68:	97478513          	addi	a0,a5,-1676 # 1b974 <__errno+0x240>
   10c6c:	488020ef          	jal	130f4 <printf>
   10c70:	000207b7          	lui	a5,0x20
   10c74:	6987a783          	lw	a5,1688(a5) # 20698 <Ptr_Glob>
   10c78:	01078793          	addi	a5,a5,16
   10c7c:	00078593          	mv	a1,a5
   10c80:	0001c7b7          	lui	a5,0x1c
   10c84:	b1078513          	addi	a0,a5,-1264 # 1bb10 <__errno+0x3dc>
   10c88:	46c020ef          	jal	130f4 <printf>
   10c8c:	0001c7b7          	lui	a5,0x1c
   10c90:	b2c78513          	addi	a0,a5,-1236 # 1bb2c <__errno+0x3f8>
   10c94:	6e8020ef          	jal	1337c <puts>
   10c98:	0001c7b7          	lui	a5,0x1c
   10c9c:	b6078513          	addi	a0,a5,-1184 # 1bb60 <__errno+0x42c>
   10ca0:	6dc020ef          	jal	1337c <puts>
   10ca4:	000207b7          	lui	a5,0x20
   10ca8:	68c7a783          	lw	a5,1676(a5) # 2068c <Next_Ptr_Glob>
   10cac:	0007a783          	lw	a5,0(a5)
   10cb0:	00078593          	mv	a1,a5
   10cb4:	0001c7b7          	lui	a5,0x1c
   10cb8:	a7078513          	addi	a0,a5,-1424 # 1ba70 <__errno+0x33c>
   10cbc:	438020ef          	jal	130f4 <printf>
   10cc0:	0001c7b7          	lui	a5,0x1c
   10cc4:	b7078513          	addi	a0,a5,-1168 # 1bb70 <__errno+0x43c>
   10cc8:	6b4020ef          	jal	1337c <puts>
   10ccc:	000207b7          	lui	a5,0x20
   10cd0:	68c7a783          	lw	a5,1676(a5) # 2068c <Next_Ptr_Glob>
   10cd4:	0047a783          	lw	a5,4(a5)
   10cd8:	00078593          	mv	a1,a5
   10cdc:	0001c7b7          	lui	a5,0x1c
   10ce0:	abc78513          	addi	a0,a5,-1348 # 1babc <__errno+0x388>
   10ce4:	410020ef          	jal	130f4 <printf>
   10ce8:	00000593          	li	a1,0
   10cec:	0001c7b7          	lui	a5,0x1c
   10cf0:	97478513          	addi	a0,a5,-1676 # 1b974 <__errno+0x240>
   10cf4:	400020ef          	jal	130f4 <printf>
   10cf8:	000207b7          	lui	a5,0x20
   10cfc:	68c7a783          	lw	a5,1676(a5) # 2068c <Next_Ptr_Glob>
   10d00:	0087a783          	lw	a5,8(a5)
   10d04:	00078593          	mv	a1,a5
   10d08:	0001c7b7          	lui	a5,0x1c
   10d0c:	ad878513          	addi	a0,a5,-1320 # 1bad8 <__errno+0x3a4>
   10d10:	3e4020ef          	jal	130f4 <printf>
   10d14:	00100593          	li	a1,1
   10d18:	0001c7b7          	lui	a5,0x1c
   10d1c:	97478513          	addi	a0,a5,-1676 # 1b974 <__errno+0x240>
   10d20:	3d4020ef          	jal	130f4 <printf>
   10d24:	000207b7          	lui	a5,0x20
   10d28:	68c7a783          	lw	a5,1676(a5) # 2068c <Next_Ptr_Glob>
   10d2c:	00c7a783          	lw	a5,12(a5)
   10d30:	00078593          	mv	a1,a5
   10d34:	0001c7b7          	lui	a5,0x1c
   10d38:	af478513          	addi	a0,a5,-1292 # 1baf4 <__errno+0x3c0>
   10d3c:	3b8020ef          	jal	130f4 <printf>
   10d40:	01200593          	li	a1,18
   10d44:	0001c7b7          	lui	a5,0x1c
   10d48:	97478513          	addi	a0,a5,-1676 # 1b974 <__errno+0x240>
   10d4c:	3a8020ef          	jal	130f4 <printf>
   10d50:	000207b7          	lui	a5,0x20
   10d54:	68c7a783          	lw	a5,1676(a5) # 2068c <Next_Ptr_Glob>
   10d58:	01078793          	addi	a5,a5,16
   10d5c:	00078593          	mv	a1,a5
   10d60:	0001c7b7          	lui	a5,0x1c
   10d64:	b1078513          	addi	a0,a5,-1264 # 1bb10 <__errno+0x3dc>
   10d68:	38c020ef          	jal	130f4 <printf>
   10d6c:	0001c7b7          	lui	a5,0x1c
   10d70:	b2c78513          	addi	a0,a5,-1236 # 1bb2c <__errno+0x3f8>
   10d74:	608020ef          	jal	1337c <puts>
   10d78:	fdc42783          	lw	a5,-36(s0)
   10d7c:	00078593          	mv	a1,a5
   10d80:	0001c7b7          	lui	a5,0x1c
   10d84:	bb078513          	addi	a0,a5,-1104 # 1bbb0 <__errno+0x47c>
   10d88:	36c020ef          	jal	130f4 <printf>
   10d8c:	00500593          	li	a1,5
   10d90:	0001c7b7          	lui	a5,0x1c
   10d94:	97478513          	addi	a0,a5,-1676 # 1b974 <__errno+0x240>
   10d98:	35c020ef          	jal	130f4 <printf>
   10d9c:	fec42583          	lw	a1,-20(s0)
   10da0:	0001c7b7          	lui	a5,0x1c
   10da4:	bcc78513          	addi	a0,a5,-1076 # 1bbcc <__errno+0x498>
   10da8:	34c020ef          	jal	130f4 <printf>
   10dac:	00d00593          	li	a1,13
   10db0:	0001c7b7          	lui	a5,0x1c
   10db4:	97478513          	addi	a0,a5,-1676 # 1b974 <__errno+0x240>
   10db8:	33c020ef          	jal	130f4 <printf>
   10dbc:	fd842783          	lw	a5,-40(s0)
   10dc0:	00078593          	mv	a1,a5
   10dc4:	0001c7b7          	lui	a5,0x1c
   10dc8:	be878513          	addi	a0,a5,-1048 # 1bbe8 <__errno+0x4b4>
   10dcc:	328020ef          	jal	130f4 <printf>
   10dd0:	00700593          	li	a1,7
   10dd4:	0001c7b7          	lui	a5,0x1c
   10dd8:	97478513          	addi	a0,a5,-1676 # 1b974 <__errno+0x240>
   10ddc:	318020ef          	jal	130f4 <printf>
   10de0:	fd442783          	lw	a5,-44(s0)
   10de4:	00078593          	mv	a1,a5
   10de8:	0001c7b7          	lui	a5,0x1c
   10dec:	c0478513          	addi	a0,a5,-1020 # 1bc04 <__errno+0x4d0>
   10df0:	304020ef          	jal	130f4 <printf>
   10df4:	00100593          	li	a1,1
   10df8:	0001c7b7          	lui	a5,0x1c
   10dfc:	97478513          	addi	a0,a5,-1676 # 1b974 <__errno+0x240>
   10e00:	2f4020ef          	jal	130f4 <printf>
   10e04:	fb440793          	addi	a5,s0,-76
   10e08:	00078593          	mv	a1,a5
   10e0c:	0001c7b7          	lui	a5,0x1c
   10e10:	c2078513          	addi	a0,a5,-992 # 1bc20 <__errno+0x4ec>
   10e14:	2e0020ef          	jal	130f4 <printf>
   10e18:	0001c7b7          	lui	a5,0x1c
   10e1c:	c3c78513          	addi	a0,a5,-964 # 1bc3c <__errno+0x508>
   10e20:	55c020ef          	jal	1337c <puts>
   10e24:	f9440793          	addi	a5,s0,-108
   10e28:	00078593          	mv	a1,a5
   10e2c:	0001c7b7          	lui	a5,0x1c
   10e30:	c7078513          	addi	a0,a5,-912 # 1bc70 <__errno+0x53c>
   10e34:	2c0020ef          	jal	130f4 <printf>
   10e38:	0001c7b7          	lui	a5,0x1c
   10e3c:	c8c78513          	addi	a0,a5,-884 # 1bc8c <__errno+0x558>
   10e40:	53c020ef          	jal	1337c <puts>
   10e44:	00a00513          	li	a0,10
   10e48:	304020ef          	jal	1314c <putchar>
   10e4c:	9001a783          	lw	a5,-1792(gp) # 1df70 <User_Time>
   10e50:	d007f053          	fcvt.s.w	ft0,a5
   10e54:	fe042783          	lw	a5,-32(s0)
   10e58:	d007f0d3          	fcvt.s.w	ft1,a5
   10e5c:	201085d3          	fmv.s	fa1,ft1
   10e60:	20000553          	fmv.s	fa0,ft0
   10e64:	189000ef          	jal	117ec <__divsf3>
   10e68:	20a50053          	fmv.s	ft0,fa0
   10e6c:	420000d3          	fcvt.d.s	ft1,ft0
   10e70:	0001c7b7          	lui	a5,0x1c
   10e74:	d207b007          	fld	ft0,-736(a5) # 1bd20 <__errno+0x5ec>
   10e78:	1200f053          	fmul.d	ft0,ft1,ft0
   10e7c:	0001c7b7          	lui	a5,0x1c
   10e80:	d287b607          	fld	fa2,-728(a5) # 1bd28 <__errno+0x5f4>
   10e84:	22000553          	fmv.d	fa0,ft0
   10e88:	0d5010ef          	jal	1275c <__divdf3>
   10e8c:	22a50053          	fmv.d	ft0,fa0
   10e90:	c2101753          	fcvt.wu.d	a4,ft0,rtz
   10e94:	8ee1ac23          	sw	a4,-1800(gp) # 1df68 <Microseconds>
   10e98:	fe042783          	lw	a5,-32(s0)
   10e9c:	d007f0d3          	fcvt.s.w	ft1,a5
   10ea0:	0001c7b7          	lui	a5,0x1c
   10ea4:	d307a007          	flw	ft0,-720(a5) # 1bd30 <__errno+0x5fc>
   10ea8:	1000f053          	fmul.s	ft0,ft1,ft0
   10eac:	9001a783          	lw	a5,-1792(gp) # 1df70 <User_Time>
   10eb0:	d007f0d3          	fcvt.s.w	ft1,a5
   10eb4:	201085d3          	fmv.s	fa1,ft1
   10eb8:	20000553          	fmv.s	fa0,ft0
   10ebc:	131000ef          	jal	117ec <__divsf3>
   10ec0:	20a50053          	fmv.s	ft0,fa0
   10ec4:	c0101753          	fcvt.wu.s	a4,ft0,rtz
   10ec8:	8ee1ae23          	sw	a4,-1796(gp) # 1df6c <Dhrystones_Per_Second>
   10ecc:	8f81a783          	lw	a5,-1800(gp) # 1df68 <Microseconds>
   10ed0:	00078593          	mv	a1,a5
   10ed4:	0001c7b7          	lui	a5,0x1c
   10ed8:	cc078513          	addi	a0,a5,-832 # 1bcc0 <__errno+0x58c>
   10edc:	218020ef          	jal	130f4 <printf>
   10ee0:	8fc1a783          	lw	a5,-1796(gp) # 1df6c <Dhrystones_Per_Second>
   10ee4:	00078593          	mv	a1,a5
   10ee8:	0001c7b7          	lui	a5,0x1c
   10eec:	cf078513          	addi	a0,a5,-784 # 1bcf0 <__errno+0x5bc>
   10ef0:	204020ef          	jal	130f4 <printf>
   10ef4:	00000793          	li	a5,0
   10ef8:	00078513          	mv	a0,a5
   10efc:	f8040113          	addi	sp,s0,-128
   10f00:	07c12083          	lw	ra,124(sp)
   10f04:	07812403          	lw	s0,120(sp)
   10f08:	08010113          	addi	sp,sp,128
   10f0c:	00008067          	ret

00010f10 <Proc_1>:
   10f10:	fd010113          	addi	sp,sp,-48
   10f14:	02112623          	sw	ra,44(sp)
   10f18:	02812423          	sw	s0,40(sp)
   10f1c:	03010413          	addi	s0,sp,48
   10f20:	fca42e23          	sw	a0,-36(s0)
   10f24:	fdc42783          	lw	a5,-36(s0)
   10f28:	0007a783          	lw	a5,0(a5)
   10f2c:	fef42623          	sw	a5,-20(s0)
   10f30:	fdc42783          	lw	a5,-36(s0)
   10f34:	0007a703          	lw	a4,0(a5)
   10f38:	000207b7          	lui	a5,0x20
   10f3c:	6987a783          	lw	a5,1688(a5) # 20698 <Ptr_Glob>
   10f40:	00078693          	mv	a3,a5
   10f44:	03000793          	li	a5,48
   10f48:	00078613          	mv	a2,a5
   10f4c:	00068593          	mv	a1,a3
   10f50:	00070513          	mv	a0,a4
   10f54:	03c020ef          	jal	12f90 <memcpy>
   10f58:	fdc42783          	lw	a5,-36(s0)
   10f5c:	00500713          	li	a4,5
   10f60:	00e7a623          	sw	a4,12(a5)
   10f64:	fdc42783          	lw	a5,-36(s0)
   10f68:	00c7a703          	lw	a4,12(a5)
   10f6c:	fec42783          	lw	a5,-20(s0)
   10f70:	00e7a623          	sw	a4,12(a5)
   10f74:	fdc42783          	lw	a5,-36(s0)
   10f78:	0007a703          	lw	a4,0(a5)
   10f7c:	fec42783          	lw	a5,-20(s0)
   10f80:	00e7a023          	sw	a4,0(a5)
   10f84:	fec42783          	lw	a5,-20(s0)
   10f88:	00078513          	mv	a0,a5
   10f8c:	120000ef          	jal	110ac <Proc_3>
   10f90:	fec42783          	lw	a5,-20(s0)
   10f94:	0047a783          	lw	a5,4(a5)
   10f98:	06079263          	bnez	a5,10ffc <Proc_1+0xec>
   10f9c:	fec42783          	lw	a5,-20(s0)
   10fa0:	00600713          	li	a4,6
   10fa4:	00e7a623          	sw	a4,12(a5)
   10fa8:	fdc42783          	lw	a5,-36(s0)
   10fac:	0087a703          	lw	a4,8(a5)
   10fb0:	fec42783          	lw	a5,-20(s0)
   10fb4:	00878793          	addi	a5,a5,8
   10fb8:	00078593          	mv	a1,a5
   10fbc:	00070513          	mv	a0,a4
   10fc0:	980ff0ef          	jal	10140 <Proc_6>
   10fc4:	000207b7          	lui	a5,0x20
   10fc8:	6987a783          	lw	a5,1688(a5) # 20698 <Ptr_Glob>
   10fcc:	0007a703          	lw	a4,0(a5)
   10fd0:	fec42783          	lw	a5,-20(s0)
   10fd4:	00e7a023          	sw	a4,0(a5)
   10fd8:	fec42783          	lw	a5,-20(s0)
   10fdc:	00c7a703          	lw	a4,12(a5)
   10fe0:	fec42783          	lw	a5,-20(s0)
   10fe4:	00c78793          	addi	a5,a5,12
   10fe8:	00078613          	mv	a2,a5
   10fec:	00a00593          	li	a1,10
   10ff0:	00070513          	mv	a0,a4
   10ff4:	a28ff0ef          	jal	1021c <Proc_7>
   10ff8:	0280006f          	j	11020 <Proc_1+0x110>
   10ffc:	fdc42783          	lw	a5,-36(s0)
   11000:	0007a783          	lw	a5,0(a5)
   11004:	fdc42703          	lw	a4,-36(s0)
   11008:	00078693          	mv	a3,a5
   1100c:	03000793          	li	a5,48
   11010:	00078613          	mv	a2,a5
   11014:	00068593          	mv	a1,a3
   11018:	00070513          	mv	a0,a4
   1101c:	775010ef          	jal	12f90 <memcpy>
   11020:	00000013          	nop
   11024:	00078513          	mv	a0,a5
   11028:	02c12083          	lw	ra,44(sp)
   1102c:	02812403          	lw	s0,40(sp)
   11030:	03010113          	addi	sp,sp,48
   11034:	00008067          	ret

00011038 <Proc_2>:
   11038:	fd010113          	addi	sp,sp,-48
   1103c:	02812623          	sw	s0,44(sp)
   11040:	03010413          	addi	s0,sp,48
   11044:	fca42e23          	sw	a0,-36(s0)
   11048:	fdc42783          	lw	a5,-36(s0)
   1104c:	0007a783          	lw	a5,0(a5)
   11050:	00a78793          	addi	a5,a5,10
   11054:	fef42623          	sw	a5,-20(s0)
   11058:	000207b7          	lui	a5,0x20
   1105c:	6947c703          	lbu	a4,1684(a5) # 20694 <Ch_1_Glob>
   11060:	04100793          	li	a5,65
   11064:	02f71663          	bne	a4,a5,11090 <Proc_2+0x58>
   11068:	fec42783          	lw	a5,-20(s0)
   1106c:	fff78793          	addi	a5,a5,-1
   11070:	fef42623          	sw	a5,-20(s0)
   11074:	000207b7          	lui	a5,0x20
   11078:	6907a783          	lw	a5,1680(a5) # 20690 <Int_Glob>
   1107c:	fec42703          	lw	a4,-20(s0)
   11080:	40f70733          	sub	a4,a4,a5
   11084:	fdc42783          	lw	a5,-36(s0)
   11088:	00e7a023          	sw	a4,0(a5)
   1108c:	fe042423          	sw	zero,-24(s0)
   11090:	fe842783          	lw	a5,-24(s0)
   11094:	fc0792e3          	bnez	a5,11058 <Proc_2+0x20>
   11098:	00000013          	nop
   1109c:	00078513          	mv	a0,a5
   110a0:	02c12403          	lw	s0,44(sp)
   110a4:	03010113          	addi	sp,sp,48
   110a8:	00008067          	ret

000110ac <Proc_3>:
   110ac:	fe010113          	addi	sp,sp,-32
   110b0:	00112e23          	sw	ra,28(sp)
   110b4:	00812c23          	sw	s0,24(sp)
   110b8:	02010413          	addi	s0,sp,32
   110bc:	fea42623          	sw	a0,-20(s0)
   110c0:	000207b7          	lui	a5,0x20
   110c4:	6987a783          	lw	a5,1688(a5) # 20698 <Ptr_Glob>
   110c8:	00078c63          	beqz	a5,110e0 <Proc_3+0x34>
   110cc:	000207b7          	lui	a5,0x20
   110d0:	6987a783          	lw	a5,1688(a5) # 20698 <Ptr_Glob>
   110d4:	0007a703          	lw	a4,0(a5)
   110d8:	fec42783          	lw	a5,-20(s0)
   110dc:	00e7a023          	sw	a4,0(a5)
   110e0:	000207b7          	lui	a5,0x20
   110e4:	6907a703          	lw	a4,1680(a5) # 20690 <Int_Glob>
   110e8:	000207b7          	lui	a5,0x20
   110ec:	6987a783          	lw	a5,1688(a5) # 20698 <Ptr_Glob>
   110f0:	00c78793          	addi	a5,a5,12
   110f4:	00078613          	mv	a2,a5
   110f8:	00070593          	mv	a1,a4
   110fc:	00a00513          	li	a0,10
   11100:	91cff0ef          	jal	1021c <Proc_7>
   11104:	00000013          	nop
   11108:	00078513          	mv	a0,a5
   1110c:	01c12083          	lw	ra,28(sp)
   11110:	01812403          	lw	s0,24(sp)
   11114:	02010113          	addi	sp,sp,32
   11118:	00008067          	ret

0001111c <Proc_4>:
   1111c:	fe010113          	addi	sp,sp,-32
   11120:	00812e23          	sw	s0,28(sp)
   11124:	02010413          	addi	s0,sp,32
   11128:	000207b7          	lui	a5,0x20
   1112c:	6947c783          	lbu	a5,1684(a5) # 20694 <Ch_1_Glob>
   11130:	fbf78793          	addi	a5,a5,-65
   11134:	0017b793          	seqz	a5,a5
   11138:	0ff7f793          	andi	a5,a5,255
   1113c:	fef42623          	sw	a5,-20(s0)
   11140:	000207b7          	lui	a5,0x20
   11144:	7687a703          	lw	a4,1896(a5) # 20768 <Bool_Glob>
   11148:	fec42783          	lw	a5,-20(s0)
   1114c:	00f76733          	or	a4,a4,a5
   11150:	000207b7          	lui	a5,0x20
   11154:	76e7a423          	sw	a4,1896(a5) # 20768 <Bool_Glob>
   11158:	000207b7          	lui	a5,0x20
   1115c:	04200713          	li	a4,66
   11160:	68e78aa3          	sb	a4,1685(a5) # 20695 <Ch_2_Glob>
   11164:	00000013          	nop
   11168:	00078513          	mv	a0,a5
   1116c:	01c12403          	lw	s0,28(sp)
   11170:	02010113          	addi	sp,sp,32
   11174:	00008067          	ret

00011178 <Proc_5>:
   11178:	ff010113          	addi	sp,sp,-16
   1117c:	00812623          	sw	s0,12(sp)
   11180:	01010413          	addi	s0,sp,16
   11184:	000207b7          	lui	a5,0x20
   11188:	04100713          	li	a4,65
   1118c:	68e78a23          	sb	a4,1684(a5) # 20694 <Ch_1_Glob>
   11190:	000207b7          	lui	a5,0x20
   11194:	7607a423          	sw	zero,1896(a5) # 20768 <Bool_Glob>
   11198:	00000013          	nop
   1119c:	00078513          	mv	a0,a5
   111a0:	00c12403          	lw	s0,12(sp)
   111a4:	01010113          	addi	sp,sp,16
   111a8:	00008067          	ret

000111ac <_fpadd_parts>:
   111ac:	00052783          	lw	a5,0(a0)
   111b0:	00100713          	li	a4,1
   111b4:	0ef77463          	bleu	a5,a4,1129c <_fpadd_parts+0xf0>
   111b8:	0005a683          	lw	a3,0(a1)
   111bc:	0cd77e63          	bleu	a3,a4,11298 <_fpadd_parts+0xec>
   111c0:	00400813          	li	a6,4
   111c4:	15078c63          	beq	a5,a6,1131c <_fpadd_parts+0x170>
   111c8:	0d068863          	beq	a3,a6,11298 <_fpadd_parts+0xec>
   111cc:	00200813          	li	a6,2
   111d0:	11068663          	beq	a3,a6,112dc <_fpadd_parts+0x130>
   111d4:	0d078263          	beq	a5,a6,11298 <_fpadd_parts+0xec>
   111d8:	00852303          	lw	t1,8(a0)
   111dc:	0085a783          	lw	a5,8(a1)
   111e0:	01f00693          	li	a3,31
   111e4:	00c52383          	lw	t2,12(a0)
   111e8:	40f30833          	sub	a6,t1,a5
   111ec:	41f85293          	srai	t0,a6,0x1f
   111f0:	0102c8b3          	xor	a7,t0,a6
   111f4:	405888b3          	sub	a7,a7,t0
   111f8:	00c5a283          	lw	t0,12(a1)
   111fc:	0b16d263          	ble	a7,a3,112a0 <_fpadd_parts+0xf4>
   11200:	1067ca63          	blt	a5,t1,11314 <_fpadd_parts+0x168>
   11204:	00078313          	mv	t1,a5
   11208:	00000393          	li	t2,0
   1120c:	00452703          	lw	a4,4(a0)
   11210:	0045a783          	lw	a5,4(a1)
   11214:	0af70a63          	beq	a4,a5,112c8 <_fpadd_parts+0x11c>
   11218:	405387b3          	sub	a5,t2,t0
   1121c:	00070463          	beqz	a4,11224 <_fpadd_parts+0x78>
   11220:	407287b3          	sub	a5,t0,t2
   11224:	1007ca63          	bltz	a5,11338 <_fpadd_parts+0x18c>
   11228:	00062223          	sw	zero,4(a2)
   1122c:	00662423          	sw	t1,8(a2)
   11230:	00f62623          	sw	a5,12(a2)
   11234:	400005b7          	lui	a1,0x40000
   11238:	fff78713          	addi	a4,a5,-1
   1123c:	ffe58593          	addi	a1,a1,-2 # 3ffffffe <_end+0x3ffdf88e>
   11240:	02e5e463          	bltu	a1,a4,11268 <_fpadd_parts+0xbc>
   11244:	00862703          	lw	a4,8(a2)
   11248:	fff70713          	addi	a4,a4,-1
   1124c:	00179793          	slli	a5,a5,0x1
   11250:	fff78693          	addi	a3,a5,-1
   11254:	00070513          	mv	a0,a4
   11258:	fff70713          	addi	a4,a4,-1
   1125c:	fed5f8e3          	bleu	a3,a1,1124c <_fpadd_parts+0xa0>
   11260:	00f62623          	sw	a5,12(a2)
   11264:	00a62423          	sw	a0,8(a2)
   11268:	00300713          	li	a4,3
   1126c:	00e62023          	sw	a4,0(a2)
   11270:	00060513          	mv	a0,a2
   11274:	0207d463          	bgez	a5,1129c <_fpadd_parts+0xf0>
   11278:	00862703          	lw	a4,8(a2)
   1127c:	0017d693          	srli	a3,a5,0x1
   11280:	0017f793          	andi	a5,a5,1
   11284:	00f6e7b3          	or	a5,a3,a5
   11288:	00170713          	addi	a4,a4,1
   1128c:	00f62623          	sw	a5,12(a2)
   11290:	00e62423          	sw	a4,8(a2)
   11294:	00008067          	ret
   11298:	00058513          	mv	a0,a1
   1129c:	00008067          	ret
   112a0:	0b005863          	blez	a6,11350 <_fpadd_parts+0x1a4>
   112a4:	011716b3          	sll	a3,a4,a7
   112a8:	fff68693          	addi	a3,a3,-1
   112ac:	0056f6b3          	and	a3,a3,t0
   112b0:	00d03733          	snez	a4,a3
   112b4:	0112d2b3          	srl	t0,t0,a7
   112b8:	00e2e2b3          	or	t0,t0,a4
   112bc:	0045a783          	lw	a5,4(a1)
   112c0:	00452703          	lw	a4,4(a0)
   112c4:	f4f71ae3          	bne	a4,a5,11218 <_fpadd_parts+0x6c>
   112c8:	005387b3          	add	a5,t2,t0
   112cc:	00e62223          	sw	a4,4(a2)
   112d0:	00662423          	sw	t1,8(a2)
   112d4:	00f62623          	sw	a5,12(a2)
   112d8:	f91ff06f          	j	11268 <_fpadd_parts+0xbc>
   112dc:	fcd790e3          	bne	a5,a3,1129c <_fpadd_parts+0xf0>
   112e0:	00f62023          	sw	a5,0(a2)
   112e4:	00452783          	lw	a5,4(a0)
   112e8:	00f62223          	sw	a5,4(a2)
   112ec:	00852703          	lw	a4,8(a0)
   112f0:	00452683          	lw	a3,4(a0)
   112f4:	0045a783          	lw	a5,4(a1)
   112f8:	00e62423          	sw	a4,8(a2)
   112fc:	00c52703          	lw	a4,12(a0)
   11300:	00f6f7b3          	and	a5,a3,a5
   11304:	00f62223          	sw	a5,4(a2)
   11308:	00e62623          	sw	a4,12(a2)
   1130c:	00060513          	mv	a0,a2
   11310:	00008067          	ret
   11314:	00000293          	li	t0,0
   11318:	ef5ff06f          	j	1120c <_fpadd_parts+0x60>
   1131c:	f8f690e3          	bne	a3,a5,1129c <_fpadd_parts+0xf0>
   11320:	00452703          	lw	a4,4(a0)
   11324:	0045a783          	lw	a5,4(a1)
   11328:	f6f70ae3          	beq	a4,a5,1129c <_fpadd_parts+0xf0>
   1132c:	0001c537          	lui	a0,0x1c
   11330:	d3450513          	addi	a0,a0,-716 # 1bd34 <__thenan_sf>
   11334:	00008067          	ret
   11338:	40f007b3          	neg	a5,a5
   1133c:	00100713          	li	a4,1
   11340:	00e62223          	sw	a4,4(a2)
   11344:	00662423          	sw	t1,8(a2)
   11348:	00f62623          	sw	a5,12(a2)
   1134c:	ee9ff06f          	j	11234 <_fpadd_parts+0x88>
   11350:	ea080ee3          	beqz	a6,1120c <_fpadd_parts+0x60>
   11354:	01171833          	sll	a6,a4,a7
   11358:	fff80813          	addi	a6,a6,-1
   1135c:	00787833          	and	a6,a6,t2
   11360:	0113d7b3          	srl	a5,t2,a7
   11364:	010036b3          	snez	a3,a6
   11368:	01130333          	add	t1,t1,a7
   1136c:	00d7e3b3          	or	t2,a5,a3
   11370:	e9dff06f          	j	1120c <_fpadd_parts+0x60>

00011374 <__pack_f>:
   11374:	00052703          	lw	a4,0(a0)
   11378:	00100613          	li	a2,1
   1137c:	00c52683          	lw	a3,12(a0)
   11380:	00452783          	lw	a5,4(a0)
   11384:	08e67c63          	bleu	a4,a2,1141c <__pack_f+0xa8>
   11388:	00400593          	li	a1,4
   1138c:	08b70263          	beq	a4,a1,11410 <__pack_f+0x9c>
   11390:	00200593          	li	a1,2
   11394:	04b70263          	beq	a4,a1,113d8 <__pack_f+0x64>
   11398:	04068063          	beqz	a3,113d8 <__pack_f+0x64>
   1139c:	00852703          	lw	a4,8(a0)
   113a0:	f8200593          	li	a1,-126
   113a4:	0ab74e63          	blt	a4,a1,11460 <__pack_f+0xec>
   113a8:	07f00613          	li	a2,127
   113ac:	06e64263          	blt	a2,a4,11410 <__pack_f+0x9c>
   113b0:	00c6f633          	and	a2,a3,a2
   113b4:	04000593          	li	a1,64
   113b8:	08b60663          	beq	a2,a1,11444 <__pack_f+0xd0>
   113bc:	03f68693          	addi	a3,a3,63
   113c0:	0806ca63          	bltz	a3,11454 <__pack_f+0xe0>
   113c4:	07f70713          	addi	a4,a4,127
   113c8:	00269693          	slli	a3,a3,0x2
   113cc:	0096d693          	srli	a3,a3,0x9
   113d0:	0ff77713          	andi	a4,a4,255
   113d4:	00c0006f          	j	113e0 <__pack_f+0x6c>
   113d8:	00000713          	li	a4,0
   113dc:	00000693          	li	a3,0
   113e0:	00800637          	lui	a2,0x800
   113e4:	fff60613          	addi	a2,a2,-1 # 7fffff <_end+0x7df88f>
   113e8:	00c6f6b3          	and	a3,a3,a2
   113ec:	80800637          	lui	a2,0x80800
   113f0:	fff60613          	addi	a2,a2,-1 # 807fffff <_end+0x807df88f>
   113f4:	00c6f6b3          	and	a3,a3,a2
   113f8:	01771713          	slli	a4,a4,0x17
   113fc:	01f79613          	slli	a2,a5,0x1f
   11400:	00e6e7b3          	or	a5,a3,a4
   11404:	00c7e7b3          	or	a5,a5,a2
   11408:	f0078553          	fmv.s.x	fa0,a5
   1140c:	00008067          	ret
   11410:	0ff00713          	li	a4,255
   11414:	00000693          	li	a3,0
   11418:	fc9ff06f          	j	113e0 <__pack_f+0x6c>
   1141c:	00400637          	lui	a2,0x400
   11420:	0076d713          	srli	a4,a3,0x7
   11424:	fff60693          	addi	a3,a2,-1 # 3fffff <_end+0x3df88f>
   11428:	00d776b3          	and	a3,a4,a3
   1142c:	00800737          	lui	a4,0x800
   11430:	fff70713          	addi	a4,a4,-1 # 7fffff <_end+0x7df88f>
   11434:	00c6e6b3          	or	a3,a3,a2
   11438:	00e6f6b3          	and	a3,a3,a4
   1143c:	0ff00713          	li	a4,255
   11440:	fa1ff06f          	j	113e0 <__pack_f+0x6c>
   11444:	0806f613          	andi	a2,a3,128
   11448:	f6060ce3          	beqz	a2,113c0 <__pack_f+0x4c>
   1144c:	00b686b3          	add	a3,a3,a1
   11450:	f71ff06f          	j	113c0 <__pack_f+0x4c>
   11454:	0016d693          	srli	a3,a3,0x1
   11458:	08070713          	addi	a4,a4,128
   1145c:	f6dff06f          	j	113c8 <__pack_f+0x54>
   11460:	40e58733          	sub	a4,a1,a4
   11464:	01900593          	li	a1,25
   11468:	f6e5c8e3          	blt	a1,a4,113d8 <__pack_f+0x64>
   1146c:	00e61633          	sll	a2,a2,a4
   11470:	fff60613          	addi	a2,a2,-1
   11474:	00d67633          	and	a2,a2,a3
   11478:	00e6d6b3          	srl	a3,a3,a4
   1147c:	00c03733          	snez	a4,a2
   11480:	00e6e6b3          	or	a3,a3,a4
   11484:	07f6f613          	andi	a2,a3,127
   11488:	04000713          	li	a4,64
   1148c:	02e61263          	bne	a2,a4,114b0 <__pack_f+0x13c>
   11490:	0806f713          	andi	a4,a3,128
   11494:	02071c63          	bnez	a4,114cc <__pack_f+0x158>
   11498:	40000737          	lui	a4,0x40000
   1149c:	00e6b733          	sltu	a4,a3,a4
   114a0:	00269613          	slli	a2,a3,0x2
   114a4:	00965693          	srli	a3,a2,0x9
   114a8:	00174713          	xori	a4,a4,1
   114ac:	f35ff06f          	j	113e0 <__pack_f+0x6c>
   114b0:	03f68713          	addi	a4,a3,63
   114b4:	40000637          	lui	a2,0x40000
   114b8:	00271693          	slli	a3,a4,0x2
   114bc:	00c73733          	sltu	a4,a4,a2
   114c0:	0096d693          	srli	a3,a3,0x9
   114c4:	00174713          	xori	a4,a4,1
   114c8:	f19ff06f          	j	113e0 <__pack_f+0x6c>
   114cc:	04068713          	addi	a4,a3,64
   114d0:	fe5ff06f          	j	114b4 <__pack_f+0x140>

000114d4 <__unpack_f>:
   114d4:	00255703          	lhu	a4,2(a0)
   114d8:	00354683          	lbu	a3,3(a0)
   114dc:	00052603          	lw	a2,0(a0)
   114e0:	00775713          	srli	a4,a4,0x7
   114e4:	008007b7          	lui	a5,0x800
   114e8:	0076d693          	srli	a3,a3,0x7
   114ec:	fff78793          	addi	a5,a5,-1 # 7fffff <_end+0x7df88f>
   114f0:	0ff77713          	andi	a4,a4,255
   114f4:	00f677b3          	and	a5,a2,a5
   114f8:	00d5a223          	sw	a3,4(a1)
   114fc:	02071c63          	bnez	a4,11534 <__unpack_f+0x60>
   11500:	06078063          	beqz	a5,11560 <__unpack_f+0x8c>
   11504:	00300713          	li	a4,3
   11508:	00e5a023          	sw	a4,0(a1)
   1150c:	00779793          	slli	a5,a5,0x7
   11510:	f8100713          	li	a4,-127
   11514:	40000637          	lui	a2,0x40000
   11518:	00179793          	slli	a5,a5,0x1
   1151c:	00070693          	mv	a3,a4
   11520:	fff70713          	addi	a4,a4,-1 # 3fffffff <_end+0x3ffdf88f>
   11524:	fec7eae3          	bltu	a5,a2,11518 <__unpack_f+0x44>
   11528:	00d5a423          	sw	a3,8(a1)
   1152c:	00f5a623          	sw	a5,12(a1)
   11530:	00008067          	ret
   11534:	0ff00693          	li	a3,255
   11538:	02d70a63          	beq	a4,a3,1156c <__unpack_f+0x98>
   1153c:	f8170713          	addi	a4,a4,-127
   11540:	00779793          	slli	a5,a5,0x7
   11544:	400006b7          	lui	a3,0x40000
   11548:	00d7e7b3          	or	a5,a5,a3
   1154c:	00e5a423          	sw	a4,8(a1)
   11550:	00300713          	li	a4,3
   11554:	00e5a023          	sw	a4,0(a1)
   11558:	00f5a623          	sw	a5,12(a1)
   1155c:	00008067          	ret
   11560:	00200793          	li	a5,2
   11564:	00f5a023          	sw	a5,0(a1)
   11568:	00008067          	ret
   1156c:	02078663          	beqz	a5,11598 <__unpack_f+0xc4>
   11570:	00979713          	slli	a4,a5,0x9
   11574:	02075863          	bgez	a4,115a4 <__unpack_f+0xd0>
   11578:	00100713          	li	a4,1
   1157c:	00e5a023          	sw	a4,0(a1)
   11580:	ffc00737          	lui	a4,0xffc00
   11584:	fff70713          	addi	a4,a4,-1 # ffbfffff <_end+0xffbdf88f>
   11588:	00e7f7b3          	and	a5,a5,a4
   1158c:	00779793          	slli	a5,a5,0x7
   11590:	00f5a623          	sw	a5,12(a1)
   11594:	00008067          	ret
   11598:	00400793          	li	a5,4
   1159c:	00f5a023          	sw	a5,0(a1)
   115a0:	00008067          	ret
   115a4:	0005a023          	sw	zero,0(a1)
   115a8:	fd9ff06f          	j	11580 <__unpack_f+0xac>

000115ac <__addsf3>:
   115ac:	fb010113          	addi	sp,sp,-80
   115b0:	01010593          	addi	a1,sp,16
   115b4:	00810513          	addi	a0,sp,8
   115b8:	04112623          	sw	ra,76(sp)
   115bc:	00a12427          	fsw	fa0,8(sp)
   115c0:	00b12627          	fsw	fa1,12(sp)
   115c4:	f11ff0ef          	jal	114d4 <__unpack_f>
   115c8:	02010593          	addi	a1,sp,32
   115cc:	00c10513          	addi	a0,sp,12
   115d0:	f05ff0ef          	jal	114d4 <__unpack_f>
   115d4:	03010613          	addi	a2,sp,48
   115d8:	02010593          	addi	a1,sp,32
   115dc:	01010513          	addi	a0,sp,16
   115e0:	bcdff0ef          	jal	111ac <_fpadd_parts>
   115e4:	d91ff0ef          	jal	11374 <__pack_f>
   115e8:	04c12083          	lw	ra,76(sp)
   115ec:	05010113          	addi	sp,sp,80
   115f0:	00008067          	ret

000115f4 <__subsf3>:
   115f4:	fb010113          	addi	sp,sp,-80
   115f8:	01010593          	addi	a1,sp,16
   115fc:	00810513          	addi	a0,sp,8
   11600:	04112623          	sw	ra,76(sp)
   11604:	00a12427          	fsw	fa0,8(sp)
   11608:	00b12627          	fsw	fa1,12(sp)
   1160c:	ec9ff0ef          	jal	114d4 <__unpack_f>
   11610:	02010593          	addi	a1,sp,32
   11614:	00c10513          	addi	a0,sp,12
   11618:	ebdff0ef          	jal	114d4 <__unpack_f>
   1161c:	02412783          	lw	a5,36(sp)
   11620:	03010613          	addi	a2,sp,48
   11624:	02010593          	addi	a1,sp,32
   11628:	0017c793          	xori	a5,a5,1
   1162c:	01010513          	addi	a0,sp,16
   11630:	02f12223          	sw	a5,36(sp)
   11634:	b79ff0ef          	jal	111ac <_fpadd_parts>
   11638:	d3dff0ef          	jal	11374 <__pack_f>
   1163c:	04c12083          	lw	ra,76(sp)
   11640:	05010113          	addi	sp,sp,80
   11644:	00008067          	ret

00011648 <__mulsf3>:
   11648:	fb010113          	addi	sp,sp,-80
   1164c:	01010593          	addi	a1,sp,16
   11650:	00810513          	addi	a0,sp,8
   11654:	04112623          	sw	ra,76(sp)
   11658:	00a12427          	fsw	fa0,8(sp)
   1165c:	00b12627          	fsw	fa1,12(sp)
   11660:	e75ff0ef          	jal	114d4 <__unpack_f>
   11664:	02010593          	addi	a1,sp,32
   11668:	00c10513          	addi	a0,sp,12
   1166c:	e69ff0ef          	jal	114d4 <__unpack_f>
   11670:	01012783          	lw	a5,16(sp)
   11674:	00100693          	li	a3,1
   11678:	0ef6f463          	bleu	a5,a3,11760 <__mulsf3+0x118>
   1167c:	02012703          	lw	a4,32(sp)
   11680:	0ae6f863          	bleu	a4,a3,11730 <__mulsf3+0xe8>
   11684:	00400693          	li	a3,4
   11688:	0cd78863          	beq	a5,a3,11758 <__mulsf3+0x110>
   1168c:	08d70e63          	beq	a4,a3,11728 <__mulsf3+0xe0>
   11690:	00200693          	li	a3,2
   11694:	0cd78663          	beq	a5,a3,11760 <__mulsf3+0x118>
   11698:	08d70c63          	beq	a4,a3,11730 <__mulsf3+0xe8>
   1169c:	01c12703          	lw	a4,28(sp)
   116a0:	02c12583          	lw	a1,44(sp)
   116a4:	02812683          	lw	a3,40(sp)
   116a8:	01812783          	lw	a5,24(sp)
   116ac:	02b73633          	mulhu	a2,a4,a1
   116b0:	02412803          	lw	a6,36(sp)
   116b4:	00d787b3          	add	a5,a5,a3
   116b8:	01412683          	lw	a3,20(sp)
   116bc:	00278513          	addi	a0,a5,2
   116c0:	02a12c23          	sw	a0,56(sp)
   116c4:	410686b3          	sub	a3,a3,a6
   116c8:	00d036b3          	snez	a3,a3
   116cc:	02d12a23          	sw	a3,52(sp)
   116d0:	02b70733          	mul	a4,a4,a1
   116d4:	00060693          	mv	a3,a2
   116d8:	0c065a63          	bgez	a2,117ac <__mulsf3+0x164>
   116dc:	00167693          	andi	a3,a2,1
   116e0:	00378793          	addi	a5,a5,3
   116e4:	00068863          	beqz	a3,116f4 <__mulsf3+0xac>
   116e8:	00175713          	srli	a4,a4,0x1
   116ec:	800006b7          	lui	a3,0x80000
   116f0:	00d76733          	or	a4,a4,a3
   116f4:	00165693          	srli	a3,a2,0x1
   116f8:	02f12c23          	sw	a5,56(sp)
   116fc:	07f6f793          	andi	a5,a3,127
   11700:	04000613          	li	a2,64
   11704:	08c78263          	beq	a5,a2,11788 <__mulsf3+0x140>
   11708:	00300793          	li	a5,3
   1170c:	02d12e23          	sw	a3,60(sp)
   11710:	02f12823          	sw	a5,48(sp)
   11714:	03010513          	addi	a0,sp,48
   11718:	c5dff0ef          	jal	11374 <__pack_f>
   1171c:	04c12083          	lw	ra,76(sp)
   11720:	05010113          	addi	sp,sp,80
   11724:	00008067          	ret
   11728:	00200713          	li	a4,2
   1172c:	06e78a63          	beq	a5,a4,117a0 <__mulsf3+0x158>
   11730:	02412703          	lw	a4,36(sp)
   11734:	01412783          	lw	a5,20(sp)
   11738:	02010513          	addi	a0,sp,32
   1173c:	40e787b3          	sub	a5,a5,a4
   11740:	00f037b3          	snez	a5,a5
   11744:	02f12223          	sw	a5,36(sp)
   11748:	c2dff0ef          	jal	11374 <__pack_f>
   1174c:	04c12083          	lw	ra,76(sp)
   11750:	05010113          	addi	sp,sp,80
   11754:	00008067          	ret
   11758:	00200793          	li	a5,2
   1175c:	04f70263          	beq	a4,a5,117a0 <__mulsf3+0x158>
   11760:	02412703          	lw	a4,36(sp)
   11764:	01412783          	lw	a5,20(sp)
   11768:	01010513          	addi	a0,sp,16
   1176c:	40e787b3          	sub	a5,a5,a4
   11770:	00f037b3          	snez	a5,a5
   11774:	00f12a23          	sw	a5,20(sp)
   11778:	bfdff0ef          	jal	11374 <__pack_f>
   1177c:	04c12083          	lw	ra,76(sp)
   11780:	05010113          	addi	sp,sp,80
   11784:	00008067          	ret
   11788:	0806f793          	andi	a5,a3,128
   1178c:	f6079ee3          	bnez	a5,11708 <__mulsf3+0xc0>
   11790:	f6070ce3          	beqz	a4,11708 <__mulsf3+0xc0>
   11794:	00c686b3          	add	a3,a3,a2
   11798:	f806f693          	andi	a3,a3,-128
   1179c:	f6dff06f          	j	11708 <__mulsf3+0xc0>
   117a0:	0001c537          	lui	a0,0x1c
   117a4:	d3450513          	addi	a0,a0,-716 # 1bd34 <__thenan_sf>
   117a8:	f71ff06f          	j	11718 <__mulsf3+0xd0>
   117ac:	40000637          	lui	a2,0x40000
   117b0:	f4c6f6e3          	bleu	a2,a3,116fc <__mulsf3+0xb4>
   117b4:	00178793          	addi	a5,a5,1
   117b8:	0100006f          	j	117c8 <__mulsf3+0x180>
   117bc:	00171713          	slli	a4,a4,0x1
   117c0:	fff78793          	addi	a5,a5,-1
   117c4:	02c6f063          	bleu	a2,a3,117e4 <__mulsf3+0x19c>
   117c8:	00169693          	slli	a3,a3,0x1
   117cc:	00078593          	mv	a1,a5
   117d0:	fe0756e3          	bgez	a4,117bc <__mulsf3+0x174>
   117d4:	0016e693          	ori	a3,a3,1
   117d8:	00171713          	slli	a4,a4,0x1
   117dc:	fff78793          	addi	a5,a5,-1
   117e0:	fec6e4e3          	bltu	a3,a2,117c8 <__mulsf3+0x180>
   117e4:	02b12c23          	sw	a1,56(sp)
   117e8:	f15ff06f          	j	116fc <__mulsf3+0xb4>

000117ec <__divsf3>:
   117ec:	fc010113          	addi	sp,sp,-64
   117f0:	01010593          	addi	a1,sp,16
   117f4:	00810513          	addi	a0,sp,8
   117f8:	02112e23          	sw	ra,60(sp)
   117fc:	00a12427          	fsw	fa0,8(sp)
   11800:	00b12627          	fsw	fa1,12(sp)
   11804:	cd1ff0ef          	jal	114d4 <__unpack_f>
   11808:	02010593          	addi	a1,sp,32
   1180c:	00c10513          	addi	a0,sp,12
   11810:	cc5ff0ef          	jal	114d4 <__unpack_f>
   11814:	01012683          	lw	a3,16(sp)
   11818:	00100793          	li	a5,1
   1181c:	08d7f663          	bleu	a3,a5,118a8 <__divsf3+0xbc>
   11820:	02012603          	lw	a2,32(sp)
   11824:	0ec7f663          	bleu	a2,a5,11910 <__divsf3+0x124>
   11828:	01412583          	lw	a1,20(sp)
   1182c:	02412703          	lw	a4,36(sp)
   11830:	ffe68793          	addi	a5,a3,-2 # 7ffffffe <_end+0x7ffdf88e>
   11834:	ffd7f793          	andi	a5,a5,-3
   11838:	00e5c733          	xor	a4,a1,a4
   1183c:	00e12a23          	sw	a4,20(sp)
   11840:	06078e63          	beqz	a5,118bc <__divsf3+0xd0>
   11844:	00400793          	li	a5,4
   11848:	08f60a63          	beq	a2,a5,118dc <__divsf3+0xf0>
   1184c:	00200713          	li	a4,2
   11850:	0ae60a63          	beq	a2,a4,11904 <__divsf3+0x118>
   11854:	01812703          	lw	a4,24(sp)
   11858:	02812683          	lw	a3,40(sp)
   1185c:	01c12783          	lw	a5,28(sp)
   11860:	02c12603          	lw	a2,44(sp)
   11864:	40d70733          	sub	a4,a4,a3
   11868:	00e12c23          	sw	a4,24(sp)
   1186c:	06c7e063          	bltu	a5,a2,118cc <__divsf3+0xe0>
   11870:	01f00713          	li	a4,31
   11874:	00000593          	li	a1,0
   11878:	400006b7          	lui	a3,0x40000
   1187c:	fff70713          	addi	a4,a4,-1
   11880:	00c7e663          	bltu	a5,a2,1188c <__divsf3+0xa0>
   11884:	00d5e5b3          	or	a1,a1,a3
   11888:	40c787b3          	sub	a5,a5,a2
   1188c:	0016d693          	srli	a3,a3,0x1
   11890:	00179793          	slli	a5,a5,0x1
   11894:	fe0714e3          	bnez	a4,1187c <__divsf3+0x90>
   11898:	07f5f713          	andi	a4,a1,127
   1189c:	04000693          	li	a3,64
   118a0:	04d70663          	beq	a4,a3,118ec <__divsf3+0x100>
   118a4:	00b12e23          	sw	a1,28(sp)
   118a8:	01010513          	addi	a0,sp,16
   118ac:	ac9ff0ef          	jal	11374 <__pack_f>
   118b0:	03c12083          	lw	ra,60(sp)
   118b4:	04010113          	addi	sp,sp,64
   118b8:	00008067          	ret
   118bc:	fec696e3          	bne	a3,a2,118a8 <__divsf3+0xbc>
   118c0:	0001c537          	lui	a0,0x1c
   118c4:	d3450513          	addi	a0,a0,-716 # 1bd34 <__thenan_sf>
   118c8:	fe5ff06f          	j	118ac <__divsf3+0xc0>
   118cc:	fff70713          	addi	a4,a4,-1
   118d0:	00179793          	slli	a5,a5,0x1
   118d4:	00e12c23          	sw	a4,24(sp)
   118d8:	f99ff06f          	j	11870 <__divsf3+0x84>
   118dc:	00012e23          	sw	zero,28(sp)
   118e0:	00012c23          	sw	zero,24(sp)
   118e4:	01010513          	addi	a0,sp,16
   118e8:	fc5ff06f          	j	118ac <__divsf3+0xc0>
   118ec:	0805f713          	andi	a4,a1,128
   118f0:	fa071ae3          	bnez	a4,118a4 <__divsf3+0xb8>
   118f4:	fa0788e3          	beqz	a5,118a4 <__divsf3+0xb8>
   118f8:	00d585b3          	add	a1,a1,a3
   118fc:	f805f593          	andi	a1,a1,-128
   11900:	fa5ff06f          	j	118a4 <__divsf3+0xb8>
   11904:	00f12823          	sw	a5,16(sp)
   11908:	01010513          	addi	a0,sp,16
   1190c:	fa1ff06f          	j	118ac <__divsf3+0xc0>
   11910:	02010513          	addi	a0,sp,32
   11914:	f99ff06f          	j	118ac <__divsf3+0xc0>

00011918 <__fpcmp_parts_f>:
   11918:	00052703          	lw	a4,0(a0)
   1191c:	00100793          	li	a5,1
   11920:	00050613          	mv	a2,a0
   11924:	06e7fe63          	bleu	a4,a5,119a0 <__fpcmp_parts_f+0x88>
   11928:	0005a683          	lw	a3,0(a1)
   1192c:	00078513          	mv	a0,a5
   11930:	04d7f063          	bleu	a3,a5,11970 <__fpcmp_parts_f+0x58>
   11934:	00400793          	li	a5,4
   11938:	04f70863          	beq	a4,a5,11988 <__fpcmp_parts_f+0x70>
   1193c:	02f68c63          	beq	a3,a5,11974 <__fpcmp_parts_f+0x5c>
   11940:	00200793          	li	a5,2
   11944:	02f70263          	beq	a4,a5,11968 <__fpcmp_parts_f+0x50>
   11948:	04f68263          	beq	a3,a5,1198c <__fpcmp_parts_f+0x74>
   1194c:	00462783          	lw	a5,4(a2) # 40000004 <_end+0x3ffdf894>
   11950:	0045a703          	lw	a4,4(a1)
   11954:	04e78a63          	beq	a5,a4,119a8 <__fpcmp_parts_f+0x90>
   11958:	00f03533          	snez	a0,a5
   1195c:	40a00533          	neg	a0,a0
   11960:	00156513          	ori	a0,a0,1
   11964:	00008067          	ret
   11968:	00e69663          	bne	a3,a4,11974 <__fpcmp_parts_f+0x5c>
   1196c:	00000513          	li	a0,0
   11970:	00008067          	ret
   11974:	0045a503          	lw	a0,4(a1)
   11978:	00153513          	seqz	a0,a0
   1197c:	40a00533          	neg	a0,a0
   11980:	00156513          	ori	a0,a0,1
   11984:	00008067          	ret
   11988:	04e68a63          	beq	a3,a4,119dc <__fpcmp_parts_f+0xc4>
   1198c:	00462503          	lw	a0,4(a2)
   11990:	00a03533          	snez	a0,a0
   11994:	40a00533          	neg	a0,a0
   11998:	00156513          	ori	a0,a0,1
   1199c:	00008067          	ret
   119a0:	00078513          	mv	a0,a5
   119a4:	00008067          	ret
   119a8:	00862683          	lw	a3,8(a2)
   119ac:	0085a703          	lw	a4,8(a1)
   119b0:	fad744e3          	blt	a4,a3,11958 <__fpcmp_parts_f+0x40>
   119b4:	00e6cc63          	blt	a3,a4,119cc <__fpcmp_parts_f+0xb4>
   119b8:	00c62683          	lw	a3,12(a2)
   119bc:	00c5a703          	lw	a4,12(a1)
   119c0:	f8d76ce3          	bltu	a4,a3,11958 <__fpcmp_parts_f+0x40>
   119c4:	00000513          	li	a0,0
   119c8:	fae6f4e3          	bleu	a4,a3,11970 <__fpcmp_parts_f+0x58>
   119cc:	0017b513          	seqz	a0,a5
   119d0:	40a00533          	neg	a0,a0
   119d4:	00156513          	ori	a0,a0,1
   119d8:	00008067          	ret
   119dc:	0045a783          	lw	a5,4(a1)
   119e0:	00462503          	lw	a0,4(a2)
   119e4:	40a78533          	sub	a0,a5,a0
   119e8:	00008067          	ret

000119ec <__cmpsf2>:
   119ec:	fc010113          	addi	sp,sp,-64
   119f0:	01010593          	addi	a1,sp,16
   119f4:	00810513          	addi	a0,sp,8
   119f8:	02112e23          	sw	ra,60(sp)
   119fc:	00a12427          	fsw	fa0,8(sp)
   11a00:	00b12627          	fsw	fa1,12(sp)
   11a04:	ad1ff0ef          	jal	114d4 <__unpack_f>
   11a08:	02010593          	addi	a1,sp,32
   11a0c:	00c10513          	addi	a0,sp,12
   11a10:	ac5ff0ef          	jal	114d4 <__unpack_f>
   11a14:	02010593          	addi	a1,sp,32
   11a18:	01010513          	addi	a0,sp,16
   11a1c:	efdff0ef          	jal	11918 <__fpcmp_parts_f>
   11a20:	03c12083          	lw	ra,60(sp)
   11a24:	04010113          	addi	sp,sp,64
   11a28:	00008067          	ret

00011a2c <__gesf2>:
   11a2c:	fc010113          	addi	sp,sp,-64
   11a30:	01010593          	addi	a1,sp,16
   11a34:	00810513          	addi	a0,sp,8
   11a38:	02112e23          	sw	ra,60(sp)
   11a3c:	00a12427          	fsw	fa0,8(sp)
   11a40:	00b12627          	fsw	fa1,12(sp)
   11a44:	a91ff0ef          	jal	114d4 <__unpack_f>
   11a48:	00c10513          	addi	a0,sp,12
   11a4c:	02010593          	addi	a1,sp,32
   11a50:	a85ff0ef          	jal	114d4 <__unpack_f>
   11a54:	01012703          	lw	a4,16(sp)
   11a58:	00100793          	li	a5,1
   11a5c:	fff00513          	li	a0,-1
   11a60:	00e7fc63          	bleu	a4,a5,11a78 <__gesf2+0x4c>
   11a64:	02012703          	lw	a4,32(sp)
   11a68:	00e7f863          	bleu	a4,a5,11a78 <__gesf2+0x4c>
   11a6c:	02010593          	addi	a1,sp,32
   11a70:	01010513          	addi	a0,sp,16
   11a74:	ea5ff0ef          	jal	11918 <__fpcmp_parts_f>
   11a78:	03c12083          	lw	ra,60(sp)
   11a7c:	04010113          	addi	sp,sp,64
   11a80:	00008067          	ret

00011a84 <__gtsf2>:
   11a84:	fa9ff06f          	j	11a2c <__gesf2>

00011a88 <__lesf2>:
   11a88:	fc010113          	addi	sp,sp,-64
   11a8c:	01010593          	addi	a1,sp,16
   11a90:	00810513          	addi	a0,sp,8
   11a94:	02112e23          	sw	ra,60(sp)
   11a98:	00a12427          	fsw	fa0,8(sp)
   11a9c:	00b12627          	fsw	fa1,12(sp)
   11aa0:	a35ff0ef          	jal	114d4 <__unpack_f>
   11aa4:	00c10513          	addi	a0,sp,12
   11aa8:	02010593          	addi	a1,sp,32
   11aac:	a29ff0ef          	jal	114d4 <__unpack_f>
   11ab0:	01012783          	lw	a5,16(sp)
   11ab4:	00100513          	li	a0,1
   11ab8:	00f57c63          	bleu	a5,a0,11ad0 <__lesf2+0x48>
   11abc:	02012783          	lw	a5,32(sp)
   11ac0:	00f57863          	bleu	a5,a0,11ad0 <__lesf2+0x48>
   11ac4:	02010593          	addi	a1,sp,32
   11ac8:	01010513          	addi	a0,sp,16
   11acc:	e4dff0ef          	jal	11918 <__fpcmp_parts_f>
   11ad0:	03c12083          	lw	ra,60(sp)
   11ad4:	04010113          	addi	sp,sp,64
   11ad8:	00008067          	ret

00011adc <__ltsf2>:
   11adc:	fadff06f          	j	11a88 <__lesf2>

00011ae0 <__nesf2>:
   11ae0:	fa9ff06f          	j	11a88 <__lesf2>

00011ae4 <__eqsf2>:
   11ae4:	fa5ff06f          	j	11a88 <__lesf2>

00011ae8 <__unordsf2>:
   11ae8:	fc010113          	addi	sp,sp,-64
   11aec:	01010593          	addi	a1,sp,16
   11af0:	00810513          	addi	a0,sp,8
   11af4:	02112e23          	sw	ra,60(sp)
   11af8:	00a12427          	fsw	fa0,8(sp)
   11afc:	00b12627          	fsw	fa1,12(sp)
   11b00:	9d5ff0ef          	jal	114d4 <__unpack_f>
   11b04:	00c10513          	addi	a0,sp,12
   11b08:	02010593          	addi	a1,sp,32
   11b0c:	9c9ff0ef          	jal	114d4 <__unpack_f>
   11b10:	01012783          	lw	a5,16(sp)
   11b14:	00100513          	li	a0,1
   11b18:	00f57663          	bleu	a5,a0,11b24 <__unordsf2+0x3c>
   11b1c:	02012503          	lw	a0,32(sp)
   11b20:	00253513          	sltiu	a0,a0,2
   11b24:	03c12083          	lw	ra,60(sp)
   11b28:	04010113          	addi	sp,sp,64
   11b2c:	00008067          	ret

00011b30 <__floatsisf>:
   11b30:	fe010113          	addi	sp,sp,-32
   11b34:	01f55793          	srli	a5,a0,0x1f
   11b38:	00300713          	li	a4,3
   11b3c:	00112e23          	sw	ra,28(sp)
   11b40:	00812c23          	sw	s0,24(sp)
   11b44:	00e12023          	sw	a4,0(sp)
   11b48:	00f12223          	sw	a5,4(sp)
   11b4c:	02051263          	bnez	a0,11b70 <__floatsisf+0x40>
   11b50:	00200793          	li	a5,2
   11b54:	00f12023          	sw	a5,0(sp)
   11b58:	00010513          	mv	a0,sp
   11b5c:	819ff0ef          	jal	11374 <__pack_f>
   11b60:	01c12083          	lw	ra,28(sp)
   11b64:	01812403          	lw	s0,24(sp)
   11b68:	02010113          	addi	sp,sp,32
   11b6c:	00008067          	ret
   11b70:	01e00793          	li	a5,30
   11b74:	00f12423          	sw	a5,8(sp)
   11b78:	02054863          	bltz	a0,11ba8 <__floatsisf+0x78>
   11b7c:	00050413          	mv	s0,a0
   11b80:	00040513          	mv	a0,s0
   11b84:	258010ef          	jal	12ddc <__clzsi2>
   11b88:	fff50793          	addi	a5,a0,-1
   11b8c:	02078c63          	beqz	a5,11bc4 <__floatsisf+0x94>
   11b90:	01e00713          	li	a4,30
   11b94:	00f41533          	sll	a0,s0,a5
   11b98:	40f707b3          	sub	a5,a4,a5
   11b9c:	00a12623          	sw	a0,12(sp)
   11ba0:	00f12423          	sw	a5,8(sp)
   11ba4:	fb5ff06f          	j	11b58 <__floatsisf+0x28>
   11ba8:	800007b7          	lui	a5,0x80000
   11bac:	02f50063          	beq	a0,a5,11bcc <__floatsisf+0x9c>
   11bb0:	40a00433          	neg	s0,a0
   11bb4:	00040513          	mv	a0,s0
   11bb8:	224010ef          	jal	12ddc <__clzsi2>
   11bbc:	fff50793          	addi	a5,a0,-1
   11bc0:	fc0798e3          	bnez	a5,11b90 <__floatsisf+0x60>
   11bc4:	00812623          	sw	s0,12(sp)
   11bc8:	f91ff06f          	j	11b58 <__floatsisf+0x28>
   11bcc:	81c1a507          	flw	fa0,-2020(gp) # 1de8c <__wctomb+0x4>
   11bd0:	f91ff06f          	j	11b60 <__floatsisf+0x30>

00011bd4 <__floatunsisf>:
   11bd4:	fe010113          	addi	sp,sp,-32
   11bd8:	00112e23          	sw	ra,28(sp)
   11bdc:	00812c23          	sw	s0,24(sp)
   11be0:	00912a23          	sw	s1,20(sp)
   11be4:	00012223          	sw	zero,4(sp)
   11be8:	04050a63          	beqz	a0,11c3c <__floatunsisf+0x68>
   11bec:	00300793          	li	a5,3
   11bf0:	01e00493          	li	s1,30
   11bf4:	00f12023          	sw	a5,0(sp)
   11bf8:	00050413          	mv	s0,a0
   11bfc:	00912423          	sw	s1,8(sp)
   11c00:	1dc010ef          	jal	12ddc <__clzsi2>
   11c04:	fff50793          	addi	a5,a0,-1
   11c08:	04050063          	beqz	a0,11c48 <__floatunsisf+0x74>
   11c0c:	04078c63          	beqz	a5,11c64 <__floatunsisf+0x90>
   11c10:	00f41433          	sll	s0,s0,a5
   11c14:	40f484b3          	sub	s1,s1,a5
   11c18:	00812623          	sw	s0,12(sp)
   11c1c:	00912423          	sw	s1,8(sp)
   11c20:	00010513          	mv	a0,sp
   11c24:	f50ff0ef          	jal	11374 <__pack_f>
   11c28:	01c12083          	lw	ra,28(sp)
   11c2c:	01812403          	lw	s0,24(sp)
   11c30:	01412483          	lw	s1,20(sp)
   11c34:	02010113          	addi	sp,sp,32
   11c38:	00008067          	ret
   11c3c:	00200793          	li	a5,2
   11c40:	00f12023          	sw	a5,0(sp)
   11c44:	fddff06f          	j	11c20 <__floatunsisf+0x4c>
   11c48:	00147793          	andi	a5,s0,1
   11c4c:	00145413          	srli	s0,s0,0x1
   11c50:	0087e433          	or	s0,a5,s0
   11c54:	01f00793          	li	a5,31
   11c58:	00812623          	sw	s0,12(sp)
   11c5c:	00f12423          	sw	a5,8(sp)
   11c60:	fc1ff06f          	j	11c20 <__floatunsisf+0x4c>
   11c64:	00812623          	sw	s0,12(sp)
   11c68:	fb9ff06f          	j	11c20 <__floatunsisf+0x4c>

00011c6c <__fixsfsi>:
   11c6c:	fd010113          	addi	sp,sp,-48
   11c70:	01010593          	addi	a1,sp,16
   11c74:	00c10513          	addi	a0,sp,12
   11c78:	02112623          	sw	ra,44(sp)
   11c7c:	00a12627          	fsw	fa0,12(sp)
   11c80:	855ff0ef          	jal	114d4 <__unpack_f>
   11c84:	01012783          	lw	a5,16(sp)
   11c88:	00200713          	li	a4,2
   11c8c:	04f77e63          	bleu	a5,a4,11ce8 <__fixsfsi+0x7c>
   11c90:	00400713          	li	a4,4
   11c94:	00e78a63          	beq	a5,a4,11ca8 <__fixsfsi+0x3c>
   11c98:	01812783          	lw	a5,24(sp)
   11c9c:	0407c663          	bltz	a5,11ce8 <__fixsfsi+0x7c>
   11ca0:	01e00513          	li	a0,30
   11ca4:	02f55063          	ble	a5,a0,11cc4 <__fixsfsi+0x58>
   11ca8:	01412783          	lw	a5,20(sp)
   11cac:	80000537          	lui	a0,0x80000
   11cb0:	00079463          	bnez	a5,11cb8 <__fixsfsi+0x4c>
   11cb4:	fff54513          	not	a0,a0
   11cb8:	02c12083          	lw	ra,44(sp)
   11cbc:	03010113          	addi	sp,sp,48
   11cc0:	00008067          	ret
   11cc4:	40f50533          	sub	a0,a0,a5
   11cc8:	01c12783          	lw	a5,28(sp)
   11ccc:	00a7d533          	srl	a0,a5,a0
   11cd0:	01412783          	lw	a5,20(sp)
   11cd4:	fe0782e3          	beqz	a5,11cb8 <__fixsfsi+0x4c>
   11cd8:	02c12083          	lw	ra,44(sp)
   11cdc:	40a00533          	neg	a0,a0
   11ce0:	03010113          	addi	sp,sp,48
   11ce4:	00008067          	ret
   11ce8:	02c12083          	lw	ra,44(sp)
   11cec:	00000513          	li	a0,0
   11cf0:	03010113          	addi	sp,sp,48
   11cf4:	00008067          	ret

00011cf8 <__negsf2>:
   11cf8:	fd010113          	addi	sp,sp,-48
   11cfc:	00c10513          	addi	a0,sp,12
   11d00:	01010593          	addi	a1,sp,16
   11d04:	02112623          	sw	ra,44(sp)
   11d08:	00a12627          	fsw	fa0,12(sp)
   11d0c:	fc8ff0ef          	jal	114d4 <__unpack_f>
   11d10:	01412783          	lw	a5,20(sp)
   11d14:	01010513          	addi	a0,sp,16
   11d18:	0017b793          	seqz	a5,a5
   11d1c:	00f12a23          	sw	a5,20(sp)
   11d20:	e54ff0ef          	jal	11374 <__pack_f>
   11d24:	02c12083          	lw	ra,44(sp)
   11d28:	03010113          	addi	sp,sp,48
   11d2c:	00008067          	ret

00011d30 <__make_fp>:
   11d30:	fe010113          	addi	sp,sp,-32
   11d34:	00a12023          	sw	a0,0(sp)
   11d38:	00010513          	mv	a0,sp
   11d3c:	00112e23          	sw	ra,28(sp)
   11d40:	00b12223          	sw	a1,4(sp)
   11d44:	00c12423          	sw	a2,8(sp)
   11d48:	00d12623          	sw	a3,12(sp)
   11d4c:	e28ff0ef          	jal	11374 <__pack_f>
   11d50:	01c12083          	lw	ra,28(sp)
   11d54:	02010113          	addi	sp,sp,32
   11d58:	00008067          	ret

00011d5c <__extendsfdf2>:
   11d5c:	fd010113          	addi	sp,sp,-48
   11d60:	01010593          	addi	a1,sp,16
   11d64:	00c10513          	addi	a0,sp,12
   11d68:	02112623          	sw	ra,44(sp)
   11d6c:	00a12627          	fsw	fa0,12(sp)
   11d70:	f64ff0ef          	jal	114d4 <__unpack_f>
   11d74:	01c12783          	lw	a5,28(sp)
   11d78:	01812603          	lw	a2,24(sp)
   11d7c:	01412583          	lw	a1,20(sp)
   11d80:	01012503          	lw	a0,16(sp)
   11d84:	01e79713          	slli	a4,a5,0x1e
   11d88:	0027d793          	srli	a5,a5,0x2
   11d8c:	7cd000ef          	jal	12d58 <__make_dp>
   11d90:	02c12083          	lw	ra,44(sp)
   11d94:	03010113          	addi	sp,sp,48
   11d98:	00008067          	ret

00011d9c <_fpadd_parts>:
   11d9c:	00052783          	lw	a5,0(a0) # 80000000 <_end+0x7ffdf890>
   11da0:	00100693          	li	a3,1
   11da4:	12f6f263          	bleu	a5,a3,11ec8 <_fpadd_parts+0x12c>
   11da8:	0005a703          	lw	a4,0(a1)
   11dac:	10e6fc63          	bleu	a4,a3,11ec4 <_fpadd_parts+0x128>
   11db0:	00400693          	li	a3,4
   11db4:	24d78063          	beq	a5,a3,11ff4 <_fpadd_parts+0x258>
   11db8:	10d70663          	beq	a4,a3,11ec4 <_fpadd_parts+0x128>
   11dbc:	00200693          	li	a3,2
   11dc0:	1cd70263          	beq	a4,a3,11f84 <_fpadd_parts+0x1e8>
   11dc4:	10d78063          	beq	a5,a3,11ec4 <_fpadd_parts+0x128>
   11dc8:	00852303          	lw	t1,8(a0)
   11dcc:	0085a683          	lw	a3,8(a1)
   11dd0:	01052883          	lw	a7,16(a0)
   11dd4:	01452e03          	lw	t3,20(a0)
   11dd8:	40d30833          	sub	a6,t1,a3
   11ddc:	41f85793          	srai	a5,a6,0x1f
   11de0:	0107c733          	xor	a4,a5,a6
   11de4:	40f70733          	sub	a4,a4,a5
   11de8:	03f00793          	li	a5,63
   11dec:	0105a283          	lw	t0,16(a1)
   11df0:	0145a383          	lw	t2,20(a1)
   11df4:	0ce7dc63          	ble	a4,a5,11ecc <_fpadd_parts+0x130>
   11df8:	1e66c863          	blt	a3,t1,11fe8 <_fpadd_parts+0x24c>
   11dfc:	00068313          	mv	t1,a3
   11e00:	00000893          	li	a7,0
   11e04:	00000e13          	li	t3,0
   11e08:	00452503          	lw	a0,4(a0)
   11e0c:	0045a783          	lw	a5,4(a1)
   11e10:	10f50863          	beq	a0,a5,11f20 <_fpadd_parts+0x184>
   11e14:	1c050063          	beqz	a0,11fd4 <_fpadd_parts+0x238>
   11e18:	411287b3          	sub	a5,t0,a7
   11e1c:	00f2b6b3          	sltu	a3,t0,a5
   11e20:	41c38733          	sub	a4,t2,t3
   11e24:	40d706b3          	sub	a3,a4,a3
   11e28:	1e06c463          	bltz	a3,12010 <_fpadd_parts+0x274>
   11e2c:	00062223          	sw	zero,4(a2)
   11e30:	00662423          	sw	t1,8(a2)
   11e34:	00f62823          	sw	a5,16(a2)
   11e38:	00d62a23          	sw	a3,20(a2)
   11e3c:	fff78513          	addi	a0,a5,-1 # 7fffffff <_end+0x7ffdf88f>
   11e40:	fff68593          	addi	a1,a3,-1 # 3fffffff <_end+0x3ffdf88f>
   11e44:	00f53733          	sltu	a4,a0,a5
   11e48:	00b70733          	add	a4,a4,a1
   11e4c:	100005b7          	lui	a1,0x10000
   11e50:	0eb77863          	bleu	a1,a4,11f40 <_fpadd_parts+0x1a4>
   11e54:	fff58593          	addi	a1,a1,-1 # fffffff <_end+0xffdf88f>
   11e58:	24b70e63          	beq	a4,a1,120b4 <_fpadd_parts+0x318>
   11e5c:	00862503          	lw	a0,8(a2)
   11e60:	100002b7          	lui	t0,0x10000
   11e64:	fff28313          	addi	t1,t0,-1 # fffffff <_end+0xffdf88f>
   11e68:	fff50513          	addi	a0,a0,-1
   11e6c:	ffe00393          	li	t2,-2
   11e70:	0080006f          	j	11e78 <_fpadd_parts+0xdc>
   11e74:	14670c63          	beq	a4,t1,11fcc <_fpadd_parts+0x230>
   11e78:	01f7d713          	srli	a4,a5,0x1f
   11e7c:	00169593          	slli	a1,a3,0x1
   11e80:	00179793          	slli	a5,a5,0x1
   11e84:	00b765b3          	or	a1,a4,a1
   11e88:	fff78813          	addi	a6,a5,-1
   11e8c:	fff58893          	addi	a7,a1,-1
   11e90:	00f83733          	sltu	a4,a6,a5
   11e94:	01170733          	add	a4,a4,a7
   11e98:	00058693          	mv	a3,a1
   11e9c:	00050893          	mv	a7,a0
   11ea0:	fff50513          	addi	a0,a0,-1
   11ea4:	fc5768e3          	bltu	a4,t0,11e74 <_fpadd_parts+0xd8>
   11ea8:	00f62823          	sw	a5,16(a2)
   11eac:	00300793          	li	a5,3
   11eb0:	00b62a23          	sw	a1,20(a2)
   11eb4:	01162423          	sw	a7,8(a2)
   11eb8:	00f62023          	sw	a5,0(a2)
   11ebc:	00060513          	mv	a0,a2
   11ec0:	00008067          	ret
   11ec4:	00058513          	mv	a0,a1
   11ec8:	00008067          	ret
   11ecc:	19005a63          	blez	a6,12060 <_fpadd_parts+0x2c4>
   11ed0:	02077793          	andi	a5,a4,32
   11ed4:	16078263          	beqz	a5,12038 <_fpadd_parts+0x29c>
   11ed8:	00100793          	li	a5,1
   11edc:	00e3deb3          	srl	t4,t2,a4
   11ee0:	00e797b3          	sll	a5,a5,a4
   11ee4:	00000f13          	li	t5,0
   11ee8:	00000713          	li	a4,0
   11eec:	fff70693          	addi	a3,a4,-1
   11ef0:	fff78793          	addi	a5,a5,-1
   11ef4:	00e6b733          	sltu	a4,a3,a4
   11ef8:	00f70733          	add	a4,a4,a5
   11efc:	00777733          	and	a4,a4,t2
   11f00:	0056f7b3          	and	a5,a3,t0
   11f04:	00e7e7b3          	or	a5,a5,a4
   11f08:	00f037b3          	snez	a5,a5
   11f0c:	00fee2b3          	or	t0,t4,a5
   11f10:	00452503          	lw	a0,4(a0)
   11f14:	0045a783          	lw	a5,4(a1)
   11f18:	000f0393          	mv	t2,t5
   11f1c:	eef51ce3          	bne	a0,a5,11e14 <_fpadd_parts+0x78>
   11f20:	005887b3          	add	a5,a7,t0
   11f24:	0117b8b3          	sltu	a7,a5,a7
   11f28:	007e0733          	add	a4,t3,t2
   11f2c:	00e886b3          	add	a3,a7,a4
   11f30:	00a62223          	sw	a0,4(a2)
   11f34:	00662423          	sw	t1,8(a2)
   11f38:	00f62823          	sw	a5,16(a2)
   11f3c:	00d62a23          	sw	a3,20(a2)
   11f40:	00300713          	li	a4,3
   11f44:	00e62023          	sw	a4,0(a2)
   11f48:	20000737          	lui	a4,0x20000
   11f4c:	02e6e863          	bltu	a3,a4,11f7c <_fpadd_parts+0x1e0>
   11f50:	00862703          	lw	a4,8(a2)
   11f54:	01f69513          	slli	a0,a3,0x1f
   11f58:	0017d593          	srli	a1,a5,0x1
   11f5c:	00b565b3          	or	a1,a0,a1
   11f60:	0017f793          	andi	a5,a5,1
   11f64:	0016d693          	srli	a3,a3,0x1
   11f68:	00f5e7b3          	or	a5,a1,a5
   11f6c:	00170713          	addi	a4,a4,1 # 20000001 <_end+0x1ffdf891>
   11f70:	00f62823          	sw	a5,16(a2)
   11f74:	00d62a23          	sw	a3,20(a2)
   11f78:	00e62423          	sw	a4,8(a2)
   11f7c:	00060513          	mv	a0,a2
   11f80:	00008067          	ret
   11f84:	f4e792e3          	bne	a5,a4,11ec8 <_fpadd_parts+0x12c>
   11f88:	00f62023          	sw	a5,0(a2)
   11f8c:	00452783          	lw	a5,4(a0)
   11f90:	00f62223          	sw	a5,4(a2)
   11f94:	00852703          	lw	a4,8(a0)
   11f98:	00452683          	lw	a3,4(a0)
   11f9c:	0045a783          	lw	a5,4(a1)
   11fa0:	00e62423          	sw	a4,8(a2)
   11fa4:	00c52703          	lw	a4,12(a0)
   11fa8:	00f6f7b3          	and	a5,a3,a5
   11fac:	00e62623          	sw	a4,12(a2)
   11fb0:	01052703          	lw	a4,16(a0)
   11fb4:	00e62823          	sw	a4,16(a2)
   11fb8:	01452703          	lw	a4,20(a0)
   11fbc:	00f62223          	sw	a5,4(a2)
   11fc0:	00060513          	mv	a0,a2
   11fc4:	00e62a23          	sw	a4,20(a2)
   11fc8:	00008067          	ret
   11fcc:	eb03f6e3          	bleu	a6,t2,11e78 <_fpadd_parts+0xdc>
   11fd0:	ed9ff06f          	j	11ea8 <_fpadd_parts+0x10c>
   11fd4:	405887b3          	sub	a5,a7,t0
   11fd8:	00f8b6b3          	sltu	a3,a7,a5
   11fdc:	407e0733          	sub	a4,t3,t2
   11fe0:	40d706b3          	sub	a3,a4,a3
   11fe4:	e45ff06f          	j	11e28 <_fpadd_parts+0x8c>
   11fe8:	00000293          	li	t0,0
   11fec:	00000393          	li	t2,0
   11ff0:	e19ff06f          	j	11e08 <_fpadd_parts+0x6c>
   11ff4:	ecf71ae3          	bne	a4,a5,11ec8 <_fpadd_parts+0x12c>
   11ff8:	00452703          	lw	a4,4(a0)
   11ffc:	0045a783          	lw	a5,4(a1)
   12000:	ecf704e3          	beq	a4,a5,11ec8 <_fpadd_parts+0x12c>
   12004:	0001c537          	lui	a0,0x1c
   12008:	d4850513          	addi	a0,a0,-696 # 1bd48 <__thenan_df>
   1200c:	00008067          	ret
   12010:	40f007b3          	neg	a5,a5
   12014:	00f03733          	snez	a4,a5
   12018:	40d006b3          	neg	a3,a3
   1201c:	40e686b3          	sub	a3,a3,a4
   12020:	00100713          	li	a4,1
   12024:	00e62223          	sw	a4,4(a2)
   12028:	00662423          	sw	t1,8(a2)
   1202c:	00f62823          	sw	a5,16(a2)
   12030:	00d62a23          	sw	a3,20(a2)
   12034:	e09ff06f          	j	11e3c <_fpadd_parts+0xa0>
   12038:	fff74693          	not	a3,a4
   1203c:	00139793          	slli	a5,t2,0x1
   12040:	00d797b3          	sll	a5,a5,a3
   12044:	00e2deb3          	srl	t4,t0,a4
   12048:	00100813          	li	a6,1
   1204c:	01d7eeb3          	or	t4,a5,t4
   12050:	00e3df33          	srl	t5,t2,a4
   12054:	00000793          	li	a5,0
   12058:	00e81733          	sll	a4,a6,a4
   1205c:	e91ff06f          	j	11eec <_fpadd_parts+0x150>
   12060:	da0804e3          	beqz	a6,11e08 <_fpadd_parts+0x6c>
   12064:	02077793          	andi	a5,a4,32
   12068:	00e30333          	add	t1,t1,a4
   1206c:	06078263          	beqz	a5,120d0 <_fpadd_parts+0x334>
   12070:	00ee5833          	srl	a6,t3,a4
   12074:	00000e93          	li	t4,0
   12078:	04079463          	bnez	a5,120c0 <_fpadd_parts+0x324>
   1207c:	00100793          	li	a5,1
   12080:	00000693          	li	a3,0
   12084:	00e79733          	sll	a4,a5,a4
   12088:	fff70793          	addi	a5,a4,-1
   1208c:	00e7b733          	sltu	a4,a5,a4
   12090:	fff68693          	addi	a3,a3,-1
   12094:	00d70733          	add	a4,a4,a3
   12098:	0117f7b3          	and	a5,a5,a7
   1209c:	01c77733          	and	a4,a4,t3
   120a0:	00e7e7b3          	or	a5,a5,a4
   120a4:	00f037b3          	snez	a5,a5
   120a8:	00f868b3          	or	a7,a6,a5
   120ac:	000e8e13          	mv	t3,t4
   120b0:	d59ff06f          	j	11e08 <_fpadd_parts+0x6c>
   120b4:	ffe00713          	li	a4,-2
   120b8:	daa772e3          	bleu	a0,a4,11e5c <_fpadd_parts+0xc0>
   120bc:	e85ff06f          	j	11f40 <_fpadd_parts+0x1a4>
   120c0:	00100693          	li	a3,1
   120c4:	00e696b3          	sll	a3,a3,a4
   120c8:	00000713          	li	a4,0
   120cc:	fbdff06f          	j	12088 <_fpadd_parts+0x2ec>
   120d0:	001e1793          	slli	a5,t3,0x1
   120d4:	fff74693          	not	a3,a4
   120d8:	00d797b3          	sll	a5,a5,a3
   120dc:	00e8d833          	srl	a6,a7,a4
   120e0:	0107e833          	or	a6,a5,a6
   120e4:	00ee5eb3          	srl	t4,t3,a4
   120e8:	f95ff06f          	j	1207c <_fpadd_parts+0x2e0>

000120ec <__pack_d>:
   120ec:	00052783          	lw	a5,0(a0)
   120f0:	00100613          	li	a2,1
   120f4:	ff010113          	addi	sp,sp,-16
   120f8:	01052683          	lw	a3,16(a0)
   120fc:	01452583          	lw	a1,20(a0)
   12100:	00452803          	lw	a6,4(a0)
   12104:	10f67263          	bleu	a5,a2,12208 <__pack_d+0x11c>
   12108:	00400893          	li	a7,4
   1210c:	0f178663          	beq	a5,a7,121f8 <__pack_d+0x10c>
   12110:	00200893          	li	a7,2
   12114:	07178263          	beq	a5,a7,12178 <__pack_d+0x8c>
   12118:	00b6e7b3          	or	a5,a3,a1
   1211c:	04078e63          	beqz	a5,12178 <__pack_d+0x8c>
   12120:	00852783          	lw	a5,8(a0)
   12124:	c0200513          	li	a0,-1022
   12128:	12a7c863          	blt	a5,a0,12258 <__pack_d+0x16c>
   1212c:	3ff00613          	li	a2,1023
   12130:	0cf64463          	blt	a2,a5,121f8 <__pack_d+0x10c>
   12134:	0ff6f613          	andi	a2,a3,255
   12138:	08000513          	li	a0,128
   1213c:	10a60063          	beq	a2,a0,1223c <__pack_d+0x150>
   12140:	07f68613          	addi	a2,a3,127
   12144:	00d636b3          	sltu	a3,a2,a3
   12148:	00b685b3          	add	a1,a3,a1
   1214c:	00060693          	mv	a3,a2
   12150:	20000637          	lui	a2,0x20000
   12154:	08c5f663          	bleu	a2,a1,121e0 <__pack_d+0xf4>
   12158:	3ff78793          	addi	a5,a5,1023
   1215c:	01859613          	slli	a2,a1,0x18
   12160:	0086d713          	srli	a4,a3,0x8
   12164:	00459593          	slli	a1,a1,0x4
   12168:	00e66733          	or	a4,a2,a4
   1216c:	00c5d593          	srli	a1,a1,0xc
   12170:	7ff7f793          	andi	a5,a5,2047
   12174:	0100006f          	j	12184 <__pack_d+0x98>
   12178:	00000793          	li	a5,0
   1217c:	00000713          	li	a4,0
   12180:	00000593          	li	a1,0
   12184:	00070613          	mv	a2,a4
   12188:	00100737          	lui	a4,0x100
   1218c:	00000693          	li	a3,0
   12190:	fff70713          	addi	a4,a4,-1 # fffff <_end+0xdf88f>
   12194:	fff00537          	lui	a0,0xfff00
   12198:	00d57533          	and	a0,a0,a3
   1219c:	00e5f5b3          	and	a1,a1,a4
   121a0:	01479713          	slli	a4,a5,0x14
   121a4:	801007b7          	lui	a5,0x80100
   121a8:	00b565b3          	or	a1,a0,a1
   121ac:	fff78793          	addi	a5,a5,-1 # 800fffff <_end+0x800df88f>
   121b0:	00f5f7b3          	and	a5,a1,a5
   121b4:	00e7e7b3          	or	a5,a5,a4
   121b8:	80000737          	lui	a4,0x80000
   121bc:	fff74713          	not	a4,a4
   121c0:	01f81813          	slli	a6,a6,0x1f
   121c4:	00e7f7b3          	and	a5,a5,a4
   121c8:	0107e6b3          	or	a3,a5,a6
   121cc:	00c12423          	sw	a2,8(sp)
   121d0:	00d12623          	sw	a3,12(sp)
   121d4:	00813507          	fld	fa0,8(sp)
   121d8:	01010113          	addi	sp,sp,16
   121dc:	00008067          	ret
   121e0:	01f59713          	slli	a4,a1,0x1f
   121e4:	0016d693          	srli	a3,a3,0x1
   121e8:	00d766b3          	or	a3,a4,a3
   121ec:	0015d593          	srli	a1,a1,0x1
   121f0:	40078793          	addi	a5,a5,1024
   121f4:	f69ff06f          	j	1215c <__pack_d+0x70>
   121f8:	7ff00793          	li	a5,2047
   121fc:	00000713          	li	a4,0
   12200:	00000593          	li	a1,0
   12204:	f81ff06f          	j	12184 <__pack_d+0x98>
   12208:	00080637          	lui	a2,0x80
   1220c:	0085d713          	srli	a4,a1,0x8
   12210:	fff60793          	addi	a5,a2,-1 # 7ffff <_end+0x5f88f>
   12214:	00f777b3          	and	a5,a4,a5
   12218:	01859713          	slli	a4,a1,0x18
   1221c:	00c7e5b3          	or	a1,a5,a2
   12220:	001007b7          	lui	a5,0x100
   12224:	fff78793          	addi	a5,a5,-1 # fffff <_end+0xdf88f>
   12228:	0086d693          	srli	a3,a3,0x8
   1222c:	00f5f5b3          	and	a1,a1,a5
   12230:	00d76733          	or	a4,a4,a3
   12234:	7ff00793          	li	a5,2047
   12238:	f4dff06f          	j	12184 <__pack_d+0x98>
   1223c:	1006f713          	andi	a4,a3,256
   12240:	f00708e3          	beqz	a4,12150 <__pack_d+0x64>
   12244:	00a68733          	add	a4,a3,a0
   12248:	00d736b3          	sltu	a3,a4,a3
   1224c:	00b685b3          	add	a1,a3,a1
   12250:	00070693          	mv	a3,a4
   12254:	efdff06f          	j	12150 <__pack_d+0x64>
   12258:	40f507b3          	sub	a5,a0,a5
   1225c:	03800713          	li	a4,56
   12260:	f0f74ce3          	blt	a4,a5,12178 <__pack_d+0x8c>
   12264:	0207f713          	andi	a4,a5,32
   12268:	0a070663          	beqz	a4,12314 <__pack_d+0x228>
   1226c:	00f5d733          	srl	a4,a1,a5
   12270:	00f61633          	sll	a2,a2,a5
   12274:	00000893          	li	a7,0
   12278:	00000793          	li	a5,0
   1227c:	fff78513          	addi	a0,a5,-1
   12280:	00f537b3          	sltu	a5,a0,a5
   12284:	fff60613          	addi	a2,a2,-1
   12288:	00c78633          	add	a2,a5,a2
   1228c:	00b675b3          	and	a1,a2,a1
   12290:	00d577b3          	and	a5,a0,a3
   12294:	00b7e7b3          	or	a5,a5,a1
   12298:	00f037b3          	snez	a5,a5
   1229c:	00f766b3          	or	a3,a4,a5
   122a0:	0ff6f713          	andi	a4,a3,255
   122a4:	08000793          	li	a5,128
   122a8:	02f71a63          	bne	a4,a5,122dc <__pack_d+0x1f0>
   122ac:	1006f793          	andi	a5,a3,256
   122b0:	08079663          	bnez	a5,1233c <__pack_d+0x250>
   122b4:	01889793          	slli	a5,a7,0x18
   122b8:	0086d713          	srli	a4,a3,0x8
   122bc:	00489593          	slli	a1,a7,0x4
   122c0:	100006b7          	lui	a3,0x10000
   122c4:	00e7e733          	or	a4,a5,a4
   122c8:	00c5d593          	srli	a1,a1,0xc
   122cc:	00100793          	li	a5,1
   122d0:	02d8ec63          	bltu	a7,a3,12308 <__pack_d+0x21c>
   122d4:	0017f793          	andi	a5,a5,1
   122d8:	eadff06f          	j	12184 <__pack_d+0x98>
   122dc:	07f68793          	addi	a5,a3,127 # 1000007f <_end+0xffdf90f>
   122e0:	00d7b733          	sltu	a4,a5,a3
   122e4:	011706b3          	add	a3,a4,a7
   122e8:	01869613          	slli	a2,a3,0x18
   122ec:	0087d713          	srli	a4,a5,0x8
   122f0:	00469593          	slli	a1,a3,0x4
   122f4:	00e66733          	or	a4,a2,a4
   122f8:	10000637          	lui	a2,0x10000
   122fc:	00c5d593          	srli	a1,a1,0xc
   12300:	00100793          	li	a5,1
   12304:	fcc6f8e3          	bleu	a2,a3,122d4 <__pack_d+0x1e8>
   12308:	00000793          	li	a5,0
   1230c:	0017f793          	andi	a5,a5,1
   12310:	e75ff06f          	j	12184 <__pack_d+0x98>
   12314:	fff7c713          	not	a4,a5
   12318:	00159613          	slli	a2,a1,0x1
   1231c:	00e61633          	sll	a2,a2,a4
   12320:	00100513          	li	a0,1
   12324:	00f6d733          	srl	a4,a3,a5
   12328:	00e66733          	or	a4,a2,a4
   1232c:	00f5d8b3          	srl	a7,a1,a5
   12330:	00000613          	li	a2,0
   12334:	00f517b3          	sll	a5,a0,a5
   12338:	f45ff06f          	j	1227c <__pack_d+0x190>
   1233c:	08068793          	addi	a5,a3,128
   12340:	fa1ff06f          	j	122e0 <__pack_d+0x1f4>

00012344 <__unpack_d>:
   12344:	00655683          	lhu	a3,6(a0) # fff00006 <_end+0xffedf896>
   12348:	00754703          	lbu	a4,7(a0)
   1234c:	00452803          	lw	a6,4(a0)
   12350:	0046d693          	srli	a3,a3,0x4
   12354:	001007b7          	lui	a5,0x100
   12358:	00775613          	srli	a2,a4,0x7
   1235c:	fff78793          	addi	a5,a5,-1 # fffff <_end+0xdf88f>
   12360:	7ff6f693          	andi	a3,a3,2047
   12364:	00052703          	lw	a4,0(a0)
   12368:	00f877b3          	and	a5,a6,a5
   1236c:	00c5a223          	sw	a2,4(a1)
   12370:	04069c63          	bnez	a3,123c8 <__unpack_d+0x84>
   12374:	00f766b3          	or	a3,a4,a5
   12378:	08068663          	beqz	a3,12404 <__unpack_d+0xc0>
   1237c:	01875693          	srli	a3,a4,0x18
   12380:	00879793          	slli	a5,a5,0x8
   12384:	00f6e7b3          	or	a5,a3,a5
   12388:	00300693          	li	a3,3
   1238c:	00d5a023          	sw	a3,0(a1)
   12390:	00871713          	slli	a4,a4,0x8
   12394:	c0100693          	li	a3,-1023
   12398:	10000537          	lui	a0,0x10000
   1239c:	01f75613          	srli	a2,a4,0x1f
   123a0:	00179793          	slli	a5,a5,0x1
   123a4:	00f667b3          	or	a5,a2,a5
   123a8:	00171713          	slli	a4,a4,0x1
   123ac:	00068613          	mv	a2,a3
   123b0:	fff68693          	addi	a3,a3,-1
   123b4:	fea7e4e3          	bltu	a5,a0,1239c <__unpack_d+0x58>
   123b8:	00c5a423          	sw	a2,8(a1)
   123bc:	00e5a823          	sw	a4,16(a1)
   123c0:	00f5aa23          	sw	a5,20(a1)
   123c4:	00008067          	ret
   123c8:	7ff00613          	li	a2,2047
   123cc:	04c68263          	beq	a3,a2,12410 <__unpack_d+0xcc>
   123d0:	01875613          	srli	a2,a4,0x18
   123d4:	00879793          	slli	a5,a5,0x8
   123d8:	00f667b3          	or	a5,a2,a5
   123dc:	c0168693          	addi	a3,a3,-1023
   123e0:	10000637          	lui	a2,0x10000
   123e4:	00871713          	slli	a4,a4,0x8
   123e8:	00c7e7b3          	or	a5,a5,a2
   123ec:	00d5a423          	sw	a3,8(a1)
   123f0:	00300693          	li	a3,3
   123f4:	00d5a023          	sw	a3,0(a1)
   123f8:	00e5a823          	sw	a4,16(a1)
   123fc:	00f5aa23          	sw	a5,20(a1)
   12400:	00008067          	ret
   12404:	00200793          	li	a5,2
   12408:	00f5a023          	sw	a5,0(a1)
   1240c:	00008067          	ret
   12410:	00f766b3          	or	a3,a4,a5
   12414:	02068e63          	beqz	a3,12450 <__unpack_d+0x10c>
   12418:	00c79693          	slli	a3,a5,0xc
   1241c:	0406d063          	bgez	a3,1245c <__unpack_d+0x118>
   12420:	00100693          	li	a3,1
   12424:	00d5a023          	sw	a3,0(a1)
   12428:	fff806b7          	lui	a3,0xfff80
   1242c:	fff68693          	addi	a3,a3,-1 # fff7ffff <_end+0xfff5f88f>
   12430:	00d7f7b3          	and	a5,a5,a3
   12434:	00879793          	slli	a5,a5,0x8
   12438:	01875693          	srli	a3,a4,0x18
   1243c:	00d7e7b3          	or	a5,a5,a3
   12440:	00871713          	slli	a4,a4,0x8
   12444:	00f5aa23          	sw	a5,20(a1)
   12448:	00e5a823          	sw	a4,16(a1)
   1244c:	00008067          	ret
   12450:	00400793          	li	a5,4
   12454:	00f5a023          	sw	a5,0(a1)
   12458:	00008067          	ret
   1245c:	0005a023          	sw	zero,0(a1)
   12460:	fc9ff06f          	j	12428 <__unpack_d+0xe4>

00012464 <__adddf3>:
   12464:	f9010113          	addi	sp,sp,-112
   12468:	01810593          	addi	a1,sp,24
   1246c:	00810513          	addi	a0,sp,8
   12470:	06112623          	sw	ra,108(sp)
   12474:	00a13427          	fsd	fa0,8(sp)
   12478:	00c13827          	fsd	fa2,16(sp)
   1247c:	ec9ff0ef          	jal	12344 <__unpack_d>
   12480:	03010593          	addi	a1,sp,48
   12484:	01010513          	addi	a0,sp,16
   12488:	ebdff0ef          	jal	12344 <__unpack_d>
   1248c:	04810613          	addi	a2,sp,72
   12490:	03010593          	addi	a1,sp,48
   12494:	01810513          	addi	a0,sp,24
   12498:	905ff0ef          	jal	11d9c <_fpadd_parts>
   1249c:	c51ff0ef          	jal	120ec <__pack_d>
   124a0:	06c12083          	lw	ra,108(sp)
   124a4:	07010113          	addi	sp,sp,112
   124a8:	00008067          	ret

000124ac <__subdf3>:
   124ac:	f9010113          	addi	sp,sp,-112
   124b0:	01810593          	addi	a1,sp,24
   124b4:	00810513          	addi	a0,sp,8
   124b8:	06112623          	sw	ra,108(sp)
   124bc:	00a13427          	fsd	fa0,8(sp)
   124c0:	00c13827          	fsd	fa2,16(sp)
   124c4:	e81ff0ef          	jal	12344 <__unpack_d>
   124c8:	03010593          	addi	a1,sp,48
   124cc:	01010513          	addi	a0,sp,16
   124d0:	e75ff0ef          	jal	12344 <__unpack_d>
   124d4:	03412783          	lw	a5,52(sp)
   124d8:	04810613          	addi	a2,sp,72
   124dc:	03010593          	addi	a1,sp,48
   124e0:	0017c793          	xori	a5,a5,1
   124e4:	01810513          	addi	a0,sp,24
   124e8:	02f12a23          	sw	a5,52(sp)
   124ec:	8b1ff0ef          	jal	11d9c <_fpadd_parts>
   124f0:	bfdff0ef          	jal	120ec <__pack_d>
   124f4:	06c12083          	lw	ra,108(sp)
   124f8:	07010113          	addi	sp,sp,112
   124fc:	00008067          	ret

00012500 <__muldf3>:
   12500:	f9010113          	addi	sp,sp,-112
   12504:	01810593          	addi	a1,sp,24
   12508:	00810513          	addi	a0,sp,8
   1250c:	06112623          	sw	ra,108(sp)
   12510:	00a13427          	fsd	fa0,8(sp)
   12514:	00c13827          	fsd	fa2,16(sp)
   12518:	e2dff0ef          	jal	12344 <__unpack_d>
   1251c:	03010593          	addi	a1,sp,48
   12520:	01010513          	addi	a0,sp,16
   12524:	e21ff0ef          	jal	12344 <__unpack_d>
   12528:	01812783          	lw	a5,24(sp)
   1252c:	00100693          	li	a3,1
   12530:	16f6fc63          	bleu	a5,a3,126a8 <__muldf3+0x1a8>
   12534:	03012703          	lw	a4,48(sp)
   12538:	14e6f063          	bleu	a4,a3,12678 <__muldf3+0x178>
   1253c:	00400693          	li	a3,4
   12540:	16d78063          	beq	a5,a3,126a0 <__muldf3+0x1a0>
   12544:	12d70663          	beq	a4,a3,12670 <__muldf3+0x170>
   12548:	00200693          	li	a3,2
   1254c:	14d78e63          	beq	a5,a3,126a8 <__muldf3+0x1a8>
   12550:	12d70463          	beq	a4,a3,12678 <__muldf3+0x178>
   12554:	02812503          	lw	a0,40(sp)
   12558:	02c12703          	lw	a4,44(sp)
   1255c:	04012783          	lw	a5,64(sp)
   12560:	04412803          	lw	a6,68(sp)
   12564:	02f70633          	mul	a2,a4,a5
   12568:	02a803b3          	mul	t2,a6,a0
   1256c:	02a832b3          	mulhu	t0,a6,a0
   12570:	00760333          	add	t1,a2,t2
   12574:	00c33633          	sltu	a2,t1,a2
   12578:	02f735b3          	mulhu	a1,a4,a5
   1257c:	005585b3          	add	a1,a1,t0
   12580:	00b60633          	add	a2,a2,a1
   12584:	030708b3          	mul	a7,a4,a6
   12588:	02a785b3          	mul	a1,a5,a0
   1258c:	03073833          	mulhu	a6,a4,a6
   12590:	02a7b533          	mulhu	a0,a5,a0
   12594:	14566063          	bltu	a2,t0,126d4 <__muldf3+0x1d4>
   12598:	12c28c63          	beq	t0,a2,126d0 <__muldf3+0x1d0>
   1259c:	00000793          	li	a5,0
   125a0:	00000713          	li	a4,0
   125a4:	00a306b3          	add	a3,t1,a0
   125a8:	00a6f463          	bleu	a0,a3,125b0 <__muldf3+0xb0>
   125ac:	00100793          	li	a5,1
   125b0:	011608b3          	add	a7,a2,a7
   125b4:	00c8b533          	sltu	a0,a7,a2
   125b8:	01050833          	add	a6,a0,a6
   125bc:	02012603          	lw	a2,32(sp)
   125c0:	03812503          	lw	a0,56(sp)
   125c4:	00f887b3          	add	a5,a7,a5
   125c8:	0117b8b3          	sltu	a7,a5,a7
   125cc:	00a60533          	add	a0,a2,a0
   125d0:	00e80633          	add	a2,a6,a4
   125d4:	01c12703          	lw	a4,28(sp)
   125d8:	03412803          	lw	a6,52(sp)
   125dc:	00450293          	addi	t0,a0,4 # 10000004 <_end+0xffdf894>
   125e0:	200003b7          	lui	t2,0x20000
   125e4:	41070833          	sub	a6,a4,a6
   125e8:	01003833          	snez	a6,a6
   125ec:	00c88733          	add	a4,a7,a2
   125f0:	04512823          	sw	t0,80(sp)
   125f4:	05012623          	sw	a6,76(sp)
   125f8:	00550613          	addi	a2,a0,5
   125fc:	80000eb7          	lui	t4,0x80000
   12600:	10776863          	bltu	a4,t2,12710 <__muldf3+0x210>
   12604:	0017f813          	andi	a6,a5,1
   12608:	01f71513          	slli	a0,a4,0x1f
   1260c:	0017d793          	srli	a5,a5,0x1
   12610:	00175713          	srli	a4,a4,0x1
   12614:	01f69313          	slli	t1,a3,0x1f
   12618:	0015d293          	srli	t0,a1,0x1
   1261c:	0016d893          	srli	a7,a3,0x1
   12620:	00060e13          	mv	t3,a2
   12624:	00080663          	beqz	a6,12630 <__muldf3+0x130>
   12628:	005365b3          	or	a1,t1,t0
   1262c:	01d8e6b3          	or	a3,a7,t4
   12630:	00f567b3          	or	a5,a0,a5
   12634:	00160613          	addi	a2,a2,1 # 10000001 <_end+0xffdf891>
   12638:	fc7776e3          	bleu	t2,a4,12604 <__muldf3+0x104>
   1263c:	05c12823          	sw	t3,80(sp)
   12640:	0ff7f613          	andi	a2,a5,255
   12644:	08000513          	li	a0,128
   12648:	08a60c63          	beq	a2,a0,126e0 <__muldf3+0x1e0>
   1264c:	04f12c23          	sw	a5,88(sp)
   12650:	00300793          	li	a5,3
   12654:	04e12e23          	sw	a4,92(sp)
   12658:	04f12423          	sw	a5,72(sp)
   1265c:	04810513          	addi	a0,sp,72
   12660:	a8dff0ef          	jal	120ec <__pack_d>
   12664:	06c12083          	lw	ra,108(sp)
   12668:	07010113          	addi	sp,sp,112
   1266c:	00008067          	ret
   12670:	00200713          	li	a4,2
   12674:	08e78863          	beq	a5,a4,12704 <__muldf3+0x204>
   12678:	03412703          	lw	a4,52(sp)
   1267c:	01c12783          	lw	a5,28(sp)
   12680:	03010513          	addi	a0,sp,48
   12684:	40e787b3          	sub	a5,a5,a4
   12688:	00f037b3          	snez	a5,a5
   1268c:	02f12a23          	sw	a5,52(sp)
   12690:	a5dff0ef          	jal	120ec <__pack_d>
   12694:	06c12083          	lw	ra,108(sp)
   12698:	07010113          	addi	sp,sp,112
   1269c:	00008067          	ret
   126a0:	00200793          	li	a5,2
   126a4:	06f70063          	beq	a4,a5,12704 <__muldf3+0x204>
   126a8:	03412703          	lw	a4,52(sp)
   126ac:	01c12783          	lw	a5,28(sp)
   126b0:	01810513          	addi	a0,sp,24
   126b4:	40e787b3          	sub	a5,a5,a4
   126b8:	00f037b3          	snez	a5,a5
   126bc:	00f12e23          	sw	a5,28(sp)
   126c0:	a2dff0ef          	jal	120ec <__pack_d>
   126c4:	06c12083          	lw	ra,108(sp)
   126c8:	07010113          	addi	sp,sp,112
   126cc:	00008067          	ret
   126d0:	ec7376e3          	bleu	t2,t1,1259c <__muldf3+0x9c>
   126d4:	00000793          	li	a5,0
   126d8:	00100713          	li	a4,1
   126dc:	ec9ff06f          	j	125a4 <__muldf3+0xa4>
   126e0:	1007f613          	andi	a2,a5,256
   126e4:	f60614e3          	bnez	a2,1264c <__muldf3+0x14c>
   126e8:	00d5e6b3          	or	a3,a1,a3
   126ec:	f60680e3          	beqz	a3,1264c <__muldf3+0x14c>
   126f0:	00a786b3          	add	a3,a5,a0
   126f4:	00f6b7b3          	sltu	a5,a3,a5
   126f8:	00e78733          	add	a4,a5,a4
   126fc:	f006f793          	andi	a5,a3,-256
   12700:	f4dff06f          	j	1264c <__muldf3+0x14c>
   12704:	0001c537          	lui	a0,0x1c
   12708:	d4850513          	addi	a0,a0,-696 # 1bd48 <__thenan_df>
   1270c:	f55ff06f          	j	12660 <__muldf3+0x160>
   12710:	10000337          	lui	t1,0x10000
   12714:	00350513          	addi	a0,a0,3
   12718:	f26774e3          	bleu	t1,a4,12640 <__muldf3+0x140>
   1271c:	01f7d813          	srli	a6,a5,0x1f
   12720:	00171613          	slli	a2,a4,0x1
   12724:	00c86633          	or	a2,a6,a2
   12728:	01f5d893          	srli	a7,a1,0x1f
   1272c:	00169813          	slli	a6,a3,0x1
   12730:	00050293          	mv	t0,a0
   12734:	00179793          	slli	a5,a5,0x1
   12738:	00060713          	mv	a4,a2
   1273c:	0006d463          	bgez	a3,12744 <__muldf3+0x244>
   12740:	0017e793          	ori	a5,a5,1
   12744:	00159593          	slli	a1,a1,0x1
   12748:	0108e6b3          	or	a3,a7,a6
   1274c:	fff50513          	addi	a0,a0,-1
   12750:	fc6666e3          	bltu	a2,t1,1271c <__muldf3+0x21c>
   12754:	04512823          	sw	t0,80(sp)
   12758:	ee9ff06f          	j	12640 <__muldf3+0x140>

0001275c <__divdf3>:
   1275c:	fb010113          	addi	sp,sp,-80
   12760:	01010593          	addi	a1,sp,16
   12764:	00010513          	mv	a0,sp
   12768:	04112623          	sw	ra,76(sp)
   1276c:	00a13027          	fsd	fa0,0(sp)
   12770:	00c13427          	fsd	fa2,8(sp)
   12774:	bd1ff0ef          	jal	12344 <__unpack_d>
   12778:	02810593          	addi	a1,sp,40
   1277c:	00810513          	addi	a0,sp,8
   12780:	bc5ff0ef          	jal	12344 <__unpack_d>
   12784:	01012603          	lw	a2,16(sp)
   12788:	00100793          	li	a5,1
   1278c:	0ec7fa63          	bleu	a2,a5,12880 <__divdf3+0x124>
   12790:	02812683          	lw	a3,40(sp)
   12794:	14d7fe63          	bleu	a3,a5,128f0 <__divdf3+0x194>
   12798:	01412583          	lw	a1,20(sp)
   1279c:	02c12703          	lw	a4,44(sp)
   127a0:	ffe60793          	addi	a5,a2,-2
   127a4:	ffd7f793          	andi	a5,a5,-3
   127a8:	00e5c733          	xor	a4,a1,a4
   127ac:	00e12a23          	sw	a4,20(sp)
   127b0:	0e078263          	beqz	a5,12894 <__divdf3+0x138>
   127b4:	00400793          	li	a5,4
   127b8:	0ef68663          	beq	a3,a5,128a4 <__divdf3+0x148>
   127bc:	00200713          	li	a4,2
   127c0:	12e68263          	beq	a3,a4,128e4 <__divdf3+0x188>
   127c4:	01812703          	lw	a4,24(sp)
   127c8:	03012603          	lw	a2,48(sp)
   127cc:	02412783          	lw	a5,36(sp)
   127d0:	03c12883          	lw	a7,60(sp)
   127d4:	40c70633          	sub	a2,a4,a2
   127d8:	00c12c23          	sw	a2,24(sp)
   127dc:	02012683          	lw	a3,32(sp)
   127e0:	03812f03          	lw	t5,56(sp)
   127e4:	0117e663          	bltu	a5,a7,127f0 <__divdf3+0x94>
   127e8:	02f89063          	bne	a7,a5,12808 <__divdf3+0xac>
   127ec:	01e6fe63          	bleu	t5,a3,12808 <__divdf3+0xac>
   127f0:	01f6d593          	srli	a1,a3,0x1f
   127f4:	00179713          	slli	a4,a5,0x1
   127f8:	fff60613          	addi	a2,a2,-1
   127fc:	00e5e7b3          	or	a5,a1,a4
   12800:	00169693          	slli	a3,a3,0x1
   12804:	00c12c23          	sw	a2,24(sp)
   12808:	03d00513          	li	a0,61
   1280c:	00000393          	li	t2,0
   12810:	00000e13          	li	t3,0
   12814:	00000813          	li	a6,0
   12818:	100005b7          	lui	a1,0x10000
   1281c:	01f59313          	slli	t1,a1,0x1f
   12820:	00185293          	srli	t0,a6,0x1
   12824:	fff50513          	addi	a0,a0,-1
   12828:	0317e463          	bltu	a5,a7,12850 <__divdf3+0xf4>
   1282c:	41e68733          	sub	a4,a3,t5
   12830:	00e6b633          	sltu	a2,a3,a4
   12834:	41178eb3          	sub	t4,a5,a7
   12838:	00f89463          	bne	a7,a5,12840 <__divdf3+0xe4>
   1283c:	01e6ea63          	bltu	a3,t5,12850 <__divdf3+0xf4>
   12840:	00070693          	mv	a3,a4
   12844:	40ce87b3          	sub	a5,t4,a2
   12848:	0103e3b3          	or	t2,t2,a6
   1284c:	00be6e33          	or	t3,t3,a1
   12850:	01f6d613          	srli	a2,a3,0x1f
   12854:	00179713          	slli	a4,a5,0x1
   12858:	00536833          	or	a6,t1,t0
   1285c:	0015d593          	srli	a1,a1,0x1
   12860:	00e667b3          	or	a5,a2,a4
   12864:	00169693          	slli	a3,a3,0x1
   12868:	fa051ae3          	bnez	a0,1281c <__divdf3+0xc0>
   1286c:	0ff3f713          	andi	a4,t2,255
   12870:	08000613          	li	a2,128
   12874:	04c70663          	beq	a4,a2,128c0 <__divdf3+0x164>
   12878:	02712023          	sw	t2,32(sp)
   1287c:	03c12223          	sw	t3,36(sp)
   12880:	01010513          	addi	a0,sp,16
   12884:	869ff0ef          	jal	120ec <__pack_d>
   12888:	04c12083          	lw	ra,76(sp)
   1288c:	05010113          	addi	sp,sp,80
   12890:	00008067          	ret
   12894:	fed616e3          	bne	a2,a3,12880 <__divdf3+0x124>
   12898:	0001c537          	lui	a0,0x1c
   1289c:	d4850513          	addi	a0,a0,-696 # 1bd48 <__thenan_df>
   128a0:	fe5ff06f          	j	12884 <__divdf3+0x128>
   128a4:	00000713          	li	a4,0
   128a8:	00000793          	li	a5,0
   128ac:	02e12023          	sw	a4,32(sp)
   128b0:	02f12223          	sw	a5,36(sp)
   128b4:	00012c23          	sw	zero,24(sp)
   128b8:	01010513          	addi	a0,sp,16
   128bc:	fc9ff06f          	j	12884 <__divdf3+0x128>
   128c0:	1003f713          	andi	a4,t2,256
   128c4:	fa071ae3          	bnez	a4,12878 <__divdf3+0x11c>
   128c8:	00f6e7b3          	or	a5,a3,a5
   128cc:	fa0786e3          	beqz	a5,12878 <__divdf3+0x11c>
   128d0:	00c387b3          	add	a5,t2,a2
   128d4:	0077b3b3          	sltu	t2,a5,t2
   128d8:	01c38e33          	add	t3,t2,t3
   128dc:	f007f393          	andi	t2,a5,-256
   128e0:	f99ff06f          	j	12878 <__divdf3+0x11c>
   128e4:	00f12823          	sw	a5,16(sp)
   128e8:	01010513          	addi	a0,sp,16
   128ec:	f99ff06f          	j	12884 <__divdf3+0x128>
   128f0:	02810513          	addi	a0,sp,40
   128f4:	f91ff06f          	j	12884 <__divdf3+0x128>

000128f8 <__fpcmp_parts_d>:
   128f8:	00052703          	lw	a4,0(a0)
   128fc:	00100793          	li	a5,1
   12900:	00050613          	mv	a2,a0
   12904:	08e7f263          	bleu	a4,a5,12988 <__fpcmp_parts_d+0x90>
   12908:	0005a683          	lw	a3,0(a1) # 10000000 <_end+0xffdf890>
   1290c:	00078513          	mv	a0,a5
   12910:	04d7f263          	bleu	a3,a5,12954 <__fpcmp_parts_d+0x5c>
   12914:	00400793          	li	a5,4
   12918:	04f70c63          	beq	a4,a5,12970 <__fpcmp_parts_d+0x78>
   1291c:	04f68063          	beq	a3,a5,1295c <__fpcmp_parts_d+0x64>
   12920:	00200793          	li	a5,2
   12924:	02f70a63          	beq	a4,a5,12958 <__fpcmp_parts_d+0x60>
   12928:	04f68663          	beq	a3,a5,12974 <__fpcmp_parts_d+0x7c>
   1292c:	00462783          	lw	a5,4(a2)
   12930:	0045a703          	lw	a4,4(a1)
   12934:	04e78e63          	beq	a5,a4,12990 <__fpcmp_parts_d+0x98>
   12938:	00f03533          	snez	a0,a5
   1293c:	40a00533          	neg	a0,a0
   12940:	00156513          	ori	a0,a0,1
   12944:	00008067          	ret
   12948:	00e69463          	bne	a3,a4,12950 <__fpcmp_parts_d+0x58>
   1294c:	06b66a63          	bltu	a2,a1,129c0 <__fpcmp_parts_d+0xc8>
   12950:	00000513          	li	a0,0
   12954:	00008067          	ret
   12958:	fee68ce3          	beq	a3,a4,12950 <__fpcmp_parts_d+0x58>
   1295c:	0045a503          	lw	a0,4(a1)
   12960:	00153513          	seqz	a0,a0
   12964:	40a00533          	neg	a0,a0
   12968:	00156513          	ori	a0,a0,1
   1296c:	00008067          	ret
   12970:	06e68063          	beq	a3,a4,129d0 <__fpcmp_parts_d+0xd8>
   12974:	00462503          	lw	a0,4(a2)
   12978:	00a03533          	snez	a0,a0
   1297c:	40a00533          	neg	a0,a0
   12980:	00156513          	ori	a0,a0,1
   12984:	00008067          	ret
   12988:	00078513          	mv	a0,a5
   1298c:	00008067          	ret
   12990:	00862683          	lw	a3,8(a2)
   12994:	0085a703          	lw	a4,8(a1)
   12998:	fad740e3          	blt	a4,a3,12938 <__fpcmp_parts_d+0x40>
   1299c:	02e6c263          	blt	a3,a4,129c0 <__fpcmp_parts_d+0xc8>
   129a0:	01462703          	lw	a4,20(a2)
   129a4:	0145a683          	lw	a3,20(a1)
   129a8:	01062603          	lw	a2,16(a2)
   129ac:	0105a583          	lw	a1,16(a1)
   129b0:	f8e6e4e3          	bltu	a3,a4,12938 <__fpcmp_parts_d+0x40>
   129b4:	00d71463          	bne	a4,a3,129bc <__fpcmp_parts_d+0xc4>
   129b8:	f8c5e0e3          	bltu	a1,a2,12938 <__fpcmp_parts_d+0x40>
   129bc:	f8d776e3          	bleu	a3,a4,12948 <__fpcmp_parts_d+0x50>
   129c0:	0017b513          	seqz	a0,a5
   129c4:	40a00533          	neg	a0,a0
   129c8:	00156513          	ori	a0,a0,1
   129cc:	00008067          	ret
   129d0:	0045a783          	lw	a5,4(a1)
   129d4:	00462503          	lw	a0,4(a2)
   129d8:	40a78533          	sub	a0,a5,a0
   129dc:	00008067          	ret

000129e0 <__cmpdf2>:
   129e0:	fb010113          	addi	sp,sp,-80
   129e4:	01010593          	addi	a1,sp,16
   129e8:	00010513          	mv	a0,sp
   129ec:	04112623          	sw	ra,76(sp)
   129f0:	00a13027          	fsd	fa0,0(sp)
   129f4:	00c13427          	fsd	fa2,8(sp)
   129f8:	94dff0ef          	jal	12344 <__unpack_d>
   129fc:	02810593          	addi	a1,sp,40
   12a00:	00810513          	addi	a0,sp,8
   12a04:	941ff0ef          	jal	12344 <__unpack_d>
   12a08:	02810593          	addi	a1,sp,40
   12a0c:	01010513          	addi	a0,sp,16
   12a10:	ee9ff0ef          	jal	128f8 <__fpcmp_parts_d>
   12a14:	04c12083          	lw	ra,76(sp)
   12a18:	05010113          	addi	sp,sp,80
   12a1c:	00008067          	ret

00012a20 <__gedf2>:
   12a20:	fb010113          	addi	sp,sp,-80
   12a24:	01010593          	addi	a1,sp,16
   12a28:	00010513          	mv	a0,sp
   12a2c:	04112623          	sw	ra,76(sp)
   12a30:	00a13027          	fsd	fa0,0(sp)
   12a34:	00c13427          	fsd	fa2,8(sp)
   12a38:	90dff0ef          	jal	12344 <__unpack_d>
   12a3c:	00810513          	addi	a0,sp,8
   12a40:	02810593          	addi	a1,sp,40
   12a44:	901ff0ef          	jal	12344 <__unpack_d>
   12a48:	01012703          	lw	a4,16(sp)
   12a4c:	00100793          	li	a5,1
   12a50:	fff00513          	li	a0,-1
   12a54:	00e7fc63          	bleu	a4,a5,12a6c <__gedf2+0x4c>
   12a58:	02812703          	lw	a4,40(sp)
   12a5c:	00e7f863          	bleu	a4,a5,12a6c <__gedf2+0x4c>
   12a60:	02810593          	addi	a1,sp,40
   12a64:	01010513          	addi	a0,sp,16
   12a68:	e91ff0ef          	jal	128f8 <__fpcmp_parts_d>
   12a6c:	04c12083          	lw	ra,76(sp)
   12a70:	05010113          	addi	sp,sp,80
   12a74:	00008067          	ret

00012a78 <__gtdf2>:
   12a78:	fa9ff06f          	j	12a20 <__gedf2>

00012a7c <__ledf2>:
   12a7c:	fb010113          	addi	sp,sp,-80
   12a80:	01010593          	addi	a1,sp,16
   12a84:	00010513          	mv	a0,sp
   12a88:	04112623          	sw	ra,76(sp)
   12a8c:	00a13027          	fsd	fa0,0(sp)
   12a90:	00c13427          	fsd	fa2,8(sp)
   12a94:	8b1ff0ef          	jal	12344 <__unpack_d>
   12a98:	00810513          	addi	a0,sp,8
   12a9c:	02810593          	addi	a1,sp,40
   12aa0:	8a5ff0ef          	jal	12344 <__unpack_d>
   12aa4:	01012783          	lw	a5,16(sp)
   12aa8:	00100513          	li	a0,1
   12aac:	00f57c63          	bleu	a5,a0,12ac4 <__ledf2+0x48>
   12ab0:	02812783          	lw	a5,40(sp)
   12ab4:	00f57863          	bleu	a5,a0,12ac4 <__ledf2+0x48>
   12ab8:	02810593          	addi	a1,sp,40
   12abc:	01010513          	addi	a0,sp,16
   12ac0:	e39ff0ef          	jal	128f8 <__fpcmp_parts_d>
   12ac4:	04c12083          	lw	ra,76(sp)
   12ac8:	05010113          	addi	sp,sp,80
   12acc:	00008067          	ret

00012ad0 <__ltdf2>:
   12ad0:	fadff06f          	j	12a7c <__ledf2>

00012ad4 <__nedf2>:
   12ad4:	fa9ff06f          	j	12a7c <__ledf2>

00012ad8 <__eqdf2>:
   12ad8:	fa5ff06f          	j	12a7c <__ledf2>

00012adc <__unorddf2>:
   12adc:	fb010113          	addi	sp,sp,-80
   12ae0:	01010593          	addi	a1,sp,16
   12ae4:	00010513          	mv	a0,sp
   12ae8:	04112623          	sw	ra,76(sp)
   12aec:	00a13027          	fsd	fa0,0(sp)
   12af0:	00c13427          	fsd	fa2,8(sp)
   12af4:	851ff0ef          	jal	12344 <__unpack_d>
   12af8:	00810513          	addi	a0,sp,8
   12afc:	02810593          	addi	a1,sp,40
   12b00:	845ff0ef          	jal	12344 <__unpack_d>
   12b04:	01012783          	lw	a5,16(sp)
   12b08:	00100513          	li	a0,1
   12b0c:	00f57663          	bleu	a5,a0,12b18 <__unorddf2+0x3c>
   12b10:	02812503          	lw	a0,40(sp)
   12b14:	00253513          	sltiu	a0,a0,2
   12b18:	04c12083          	lw	ra,76(sp)
   12b1c:	05010113          	addi	sp,sp,80
   12b20:	00008067          	ret

00012b24 <__floatsidf>:
   12b24:	fd010113          	addi	sp,sp,-48
   12b28:	01f55793          	srli	a5,a0,0x1f
   12b2c:	00300713          	li	a4,3
   12b30:	02112623          	sw	ra,44(sp)
   12b34:	02812423          	sw	s0,40(sp)
   12b38:	00e12423          	sw	a4,8(sp)
   12b3c:	00f12623          	sw	a5,12(sp)
   12b40:	02051263          	bnez	a0,12b64 <__floatsidf+0x40>
   12b44:	00200793          	li	a5,2
   12b48:	00f12423          	sw	a5,8(sp)
   12b4c:	00810513          	addi	a0,sp,8
   12b50:	d9cff0ef          	jal	120ec <__pack_d>
   12b54:	02c12083          	lw	ra,44(sp)
   12b58:	02812403          	lw	s0,40(sp)
   12b5c:	03010113          	addi	sp,sp,48
   12b60:	00008067          	ret
   12b64:	02054c63          	bltz	a0,12b9c <__floatsidf+0x78>
   12b68:	00050413          	mv	s0,a0
   12b6c:	00040513          	mv	a0,s0
   12b70:	26c000ef          	jal	12ddc <__clzsi2>
   12b74:	01d50513          	addi	a0,a0,29
   12b78:	02057793          	andi	a5,a0,32
   12b7c:	04078063          	beqz	a5,12bbc <__floatsidf+0x98>
   12b80:	00a41433          	sll	s0,s0,a0
   12b84:	00812e23          	sw	s0,28(sp)
   12b88:	00012c23          	sw	zero,24(sp)
   12b8c:	03c00793          	li	a5,60
   12b90:	40a78533          	sub	a0,a5,a0
   12b94:	00a12823          	sw	a0,16(sp)
   12b98:	fb5ff06f          	j	12b4c <__floatsidf+0x28>
   12b9c:	800007b7          	lui	a5,0x80000
   12ba0:	02f50c63          	beq	a0,a5,12bd8 <__floatsidf+0xb4>
   12ba4:	40a00433          	neg	s0,a0
   12ba8:	00040513          	mv	a0,s0
   12bac:	230000ef          	jal	12ddc <__clzsi2>
   12bb0:	01d50513          	addi	a0,a0,29
   12bb4:	02057793          	andi	a5,a0,32
   12bb8:	fc0794e3          	bnez	a5,12b80 <__floatsidf+0x5c>
   12bbc:	00145793          	srli	a5,s0,0x1
   12bc0:	fff54713          	not	a4,a0
   12bc4:	00e7d7b3          	srl	a5,a5,a4
   12bc8:	00a41433          	sll	s0,s0,a0
   12bcc:	00f12e23          	sw	a5,28(sp)
   12bd0:	00812c23          	sw	s0,24(sp)
   12bd4:	fb9ff06f          	j	12b8c <__floatsidf+0x68>
   12bd8:	8201b507          	fld	fa0,-2016(gp) # 1de90 <__wctomb+0x8>
   12bdc:	f79ff06f          	j	12b54 <__floatsidf+0x30>

00012be0 <__floatunsidf>:
   12be0:	fd010113          	addi	sp,sp,-48
   12be4:	02112623          	sw	ra,44(sp)
   12be8:	02812423          	sw	s0,40(sp)
   12bec:	00012623          	sw	zero,12(sp)
   12bf0:	06050663          	beqz	a0,12c5c <__floatunsidf+0x7c>
   12bf4:	00300793          	li	a5,3
   12bf8:	00f12423          	sw	a5,8(sp)
   12bfc:	00050413          	mv	s0,a0
   12c00:	1dc000ef          	jal	12ddc <__clzsi2>
   12c04:	01d50513          	addi	a0,a0,29
   12c08:	02057793          	andi	a5,a0,32
   12c0c:	02078a63          	beqz	a5,12c40 <__floatunsidf+0x60>
   12c10:	00a41433          	sll	s0,s0,a0
   12c14:	00812e23          	sw	s0,28(sp)
   12c18:	00012c23          	sw	zero,24(sp)
   12c1c:	03c00793          	li	a5,60
   12c20:	40a78533          	sub	a0,a5,a0
   12c24:	00a12823          	sw	a0,16(sp)
   12c28:	00810513          	addi	a0,sp,8
   12c2c:	cc0ff0ef          	jal	120ec <__pack_d>
   12c30:	02c12083          	lw	ra,44(sp)
   12c34:	02812403          	lw	s0,40(sp)
   12c38:	03010113          	addi	sp,sp,48
   12c3c:	00008067          	ret
   12c40:	00145793          	srli	a5,s0,0x1
   12c44:	fff54713          	not	a4,a0
   12c48:	00e7d7b3          	srl	a5,a5,a4
   12c4c:	00a41433          	sll	s0,s0,a0
   12c50:	00f12e23          	sw	a5,28(sp)
   12c54:	00812c23          	sw	s0,24(sp)
   12c58:	fc5ff06f          	j	12c1c <__floatunsidf+0x3c>
   12c5c:	00200793          	li	a5,2
   12c60:	00f12423          	sw	a5,8(sp)
   12c64:	fc5ff06f          	j	12c28 <__floatunsidf+0x48>

00012c68 <__fixdfsi>:
   12c68:	fd010113          	addi	sp,sp,-48
   12c6c:	00810593          	addi	a1,sp,8
   12c70:	00010513          	mv	a0,sp
   12c74:	02112623          	sw	ra,44(sp)
   12c78:	00a13027          	fsd	fa0,0(sp)
   12c7c:	ec8ff0ef          	jal	12344 <__unpack_d>
   12c80:	00812783          	lw	a5,8(sp)
   12c84:	00200713          	li	a4,2
   12c88:	06f77463          	bleu	a5,a4,12cf0 <__fixdfsi+0x88>
   12c8c:	00400713          	li	a4,4
   12c90:	00e78a63          	beq	a5,a4,12ca4 <__fixdfsi+0x3c>
   12c94:	01012503          	lw	a0,16(sp)
   12c98:	04054c63          	bltz	a0,12cf0 <__fixdfsi+0x88>
   12c9c:	01e00793          	li	a5,30
   12ca0:	02a7d063          	ble	a0,a5,12cc0 <__fixdfsi+0x58>
   12ca4:	00c12783          	lw	a5,12(sp)
   12ca8:	80000537          	lui	a0,0x80000
   12cac:	00079463          	bnez	a5,12cb4 <__fixdfsi+0x4c>
   12cb0:	fff54513          	not	a0,a0
   12cb4:	02c12083          	lw	ra,44(sp)
   12cb8:	03010113          	addi	sp,sp,48
   12cbc:	00008067          	ret
   12cc0:	03c00793          	li	a5,60
   12cc4:	40a78533          	sub	a0,a5,a0
   12cc8:	02057793          	andi	a5,a0,32
   12ccc:	02078a63          	beqz	a5,12d00 <__fixdfsi+0x98>
   12cd0:	01c12783          	lw	a5,28(sp)
   12cd4:	00a7d533          	srl	a0,a5,a0
   12cd8:	00c12783          	lw	a5,12(sp)
   12cdc:	fc078ce3          	beqz	a5,12cb4 <__fixdfsi+0x4c>
   12ce0:	02c12083          	lw	ra,44(sp)
   12ce4:	40a00533          	neg	a0,a0
   12ce8:	03010113          	addi	sp,sp,48
   12cec:	00008067          	ret
   12cf0:	02c12083          	lw	ra,44(sp)
   12cf4:	00000513          	li	a0,0
   12cf8:	03010113          	addi	sp,sp,48
   12cfc:	00008067          	ret
   12d00:	01c12783          	lw	a5,28(sp)
   12d04:	fff54713          	not	a4,a0
   12d08:	00179793          	slli	a5,a5,0x1
   12d0c:	00e797b3          	sll	a5,a5,a4
   12d10:	01812703          	lw	a4,24(sp)
   12d14:	00a75533          	srl	a0,a4,a0
   12d18:	00a7e533          	or	a0,a5,a0
   12d1c:	fbdff06f          	j	12cd8 <__fixdfsi+0x70>

00012d20 <__negdf2>:
   12d20:	fd010113          	addi	sp,sp,-48
   12d24:	00010513          	mv	a0,sp
   12d28:	00810593          	addi	a1,sp,8
   12d2c:	02112623          	sw	ra,44(sp)
   12d30:	00a13027          	fsd	fa0,0(sp)
   12d34:	e10ff0ef          	jal	12344 <__unpack_d>
   12d38:	00c12783          	lw	a5,12(sp)
   12d3c:	00810513          	addi	a0,sp,8
   12d40:	0017b793          	seqz	a5,a5
   12d44:	00f12623          	sw	a5,12(sp)
   12d48:	ba4ff0ef          	jal	120ec <__pack_d>
   12d4c:	02c12083          	lw	ra,44(sp)
   12d50:	03010113          	addi	sp,sp,48
   12d54:	00008067          	ret

00012d58 <__make_dp>:
   12d58:	fd010113          	addi	sp,sp,-48
   12d5c:	00a12423          	sw	a0,8(sp)
   12d60:	00810513          	addi	a0,sp,8
   12d64:	02112623          	sw	ra,44(sp)
   12d68:	00b12623          	sw	a1,12(sp)
   12d6c:	00c12823          	sw	a2,16(sp)
   12d70:	00e12c23          	sw	a4,24(sp)
   12d74:	00f12e23          	sw	a5,28(sp)
   12d78:	b74ff0ef          	jal	120ec <__pack_d>
   12d7c:	02c12083          	lw	ra,44(sp)
   12d80:	03010113          	addi	sp,sp,48
   12d84:	00008067          	ret

00012d88 <__truncdfsf2>:
   12d88:	fd010113          	addi	sp,sp,-48
   12d8c:	00810593          	addi	a1,sp,8
   12d90:	00010513          	mv	a0,sp
   12d94:	02112623          	sw	ra,44(sp)
   12d98:	00a13027          	fsd	fa0,0(sp)
   12d9c:	da8ff0ef          	jal	12344 <__unpack_d>
   12da0:	01812703          	lw	a4,24(sp)
   12da4:	01c12683          	lw	a3,28(sp)
   12da8:	01e75793          	srli	a5,a4,0x1e
   12dac:	00269693          	slli	a3,a3,0x2
   12db0:	00f6e6b3          	or	a3,a3,a5
   12db4:	00271793          	slli	a5,a4,0x2
   12db8:	00078463          	beqz	a5,12dc0 <__truncdfsf2+0x38>
   12dbc:	0016e693          	ori	a3,a3,1
   12dc0:	01012603          	lw	a2,16(sp)
   12dc4:	00c12583          	lw	a1,12(sp)
   12dc8:	00812503          	lw	a0,8(sp)
   12dcc:	f65fe0ef          	jal	11d30 <__make_fp>
   12dd0:	02c12083          	lw	ra,44(sp)
   12dd4:	03010113          	addi	sp,sp,48
   12dd8:	00008067          	ret

00012ddc <__clzsi2>:
   12ddc:	000107b7          	lui	a5,0x10
   12de0:	02f57c63          	bleu	a5,a0,12e18 <__clzsi2+0x3c>
   12de4:	0ff00693          	li	a3,255
   12de8:	01800713          	li	a4,24
   12dec:	00800793          	li	a5,8
   12df0:	00a6e663          	bltu	a3,a0,12dfc <__clzsi2+0x20>
   12df4:	02000713          	li	a4,32
   12df8:	00000793          	li	a5,0
   12dfc:	00f55533          	srl	a0,a0,a5
   12e00:	0001c7b7          	lui	a5,0x1c
   12e04:	d6078793          	addi	a5,a5,-672 # 1bd60 <__clz_tab>
   12e08:	00f507b3          	add	a5,a0,a5
   12e0c:	0007c503          	lbu	a0,0(a5)
   12e10:	40a70533          	sub	a0,a4,a0
   12e14:	00008067          	ret
   12e18:	010006b7          	lui	a3,0x1000
   12e1c:	00800713          	li	a4,8
   12e20:	01800793          	li	a5,24
   12e24:	fcd57ce3          	bleu	a3,a0,12dfc <__clzsi2+0x20>
   12e28:	01000713          	li	a4,16
   12e2c:	00070793          	mv	a5,a4
   12e30:	00f55533          	srl	a0,a0,a5
   12e34:	0001c7b7          	lui	a5,0x1c
   12e38:	d6078793          	addi	a5,a5,-672 # 1bd60 <__clz_tab>
   12e3c:	00f507b3          	add	a5,a0,a5
   12e40:	0007c503          	lbu	a0,0(a5)
   12e44:	40a70533          	sub	a0,a4,a0
   12e48:	00008067          	ret

00012e4c <atexit>:
   12e4c:	00050593          	mv	a1,a0
   12e50:	00000693          	li	a3,0
   12e54:	00000613          	li	a2,0
   12e58:	00000513          	li	a0,0
   12e5c:	5380206f          	j	15394 <__register_exitproc>

00012e60 <exit>:
   12e60:	ff010113          	addi	sp,sp,-16
   12e64:	00000593          	li	a1,0
   12e68:	00812423          	sw	s0,8(sp)
   12e6c:	00112623          	sw	ra,12(sp)
   12e70:	00050413          	mv	s0,a0
   12e74:	614020ef          	jal	15488 <__call_exitprocs>
   12e78:	8041a503          	lw	a0,-2044(gp) # 1de74 <_global_impure_ptr>
   12e7c:	03c52783          	lw	a5,60(a0) # 8000003c <_end+0x7ffdf8cc>
   12e80:	00078463          	beqz	a5,12e88 <exit+0x28>
   12e84:	000780e7          	jalr	a5
   12e88:	00040513          	mv	a0,s0
   12e8c:	08d080ef          	jal	1b718 <_exit>

00012e90 <__libc_init_array>:
   12e90:	ff010113          	addi	sp,sp,-16
   12e94:	00812423          	sw	s0,8(sp)
   12e98:	0001c7b7          	lui	a5,0x1c
   12e9c:	0001c437          	lui	s0,0x1c
   12ea0:	01212023          	sw	s2,0(sp)
   12ea4:	33478793          	addi	a5,a5,820 # 1c334 <_etext>
   12ea8:	33440913          	addi	s2,s0,820 # 1c334 <_etext>
   12eac:	41278933          	sub	s2,a5,s2
   12eb0:	40295913          	srai	s2,s2,0x2
   12eb4:	00912223          	sw	s1,4(sp)
   12eb8:	00112623          	sw	ra,12(sp)
   12ebc:	33440413          	addi	s0,s0,820
   12ec0:	00000493          	li	s1,0
   12ec4:	00090c63          	beqz	s2,12edc <__libc_init_array+0x4c>
   12ec8:	00042783          	lw	a5,0(s0)
   12ecc:	00148493          	addi	s1,s1,1
   12ed0:	00440413          	addi	s0,s0,4
   12ed4:	000780e7          	jalr	a5
   12ed8:	fe9918e3          	bne	s2,s1,12ec8 <__libc_init_array+0x38>
   12edc:	0001c437          	lui	s0,0x1c
   12ee0:	968fd0ef          	jal	10048 <_fini>
   12ee4:	0001c7b7          	lui	a5,0x1c
   12ee8:	33440913          	addi	s2,s0,820 # 1c334 <_etext>
   12eec:	33878793          	addi	a5,a5,824 # 1c338 <__init_array_end>
   12ef0:	41278933          	sub	s2,a5,s2
   12ef4:	40295913          	srai	s2,s2,0x2
   12ef8:	33440413          	addi	s0,s0,820
   12efc:	00000493          	li	s1,0
   12f00:	00090c63          	beqz	s2,12f18 <__libc_init_array+0x88>
   12f04:	00042783          	lw	a5,0(s0)
   12f08:	00148493          	addi	s1,s1,1
   12f0c:	00440413          	addi	s0,s0,4
   12f10:	000780e7          	jalr	a5
   12f14:	fe9918e3          	bne	s2,s1,12f04 <__libc_init_array+0x74>
   12f18:	00c12083          	lw	ra,12(sp)
   12f1c:	00812403          	lw	s0,8(sp)
   12f20:	00412483          	lw	s1,4(sp)
   12f24:	00012903          	lw	s2,0(sp)
   12f28:	01010113          	addi	sp,sp,16
   12f2c:	00008067          	ret

00012f30 <__libc_fini_array>:
   12f30:	ff010113          	addi	sp,sp,-16
   12f34:	00812423          	sw	s0,8(sp)
   12f38:	00912223          	sw	s1,4(sp)
   12f3c:	0001c437          	lui	s0,0x1c
   12f40:	0001c4b7          	lui	s1,0x1c
   12f44:	33848493          	addi	s1,s1,824 # 1c338 <__init_array_end>
   12f48:	33c40413          	addi	s0,s0,828 # 1c33c <__fini_array_end>
   12f4c:	40940433          	sub	s0,s0,s1
   12f50:	40245413          	srai	s0,s0,0x2
   12f54:	00241793          	slli	a5,s0,0x2
   12f58:	ffc78793          	addi	a5,a5,-4
   12f5c:	00112623          	sw	ra,12(sp)
   12f60:	009784b3          	add	s1,a5,s1
   12f64:	00040c63          	beqz	s0,12f7c <__libc_fini_array+0x4c>
   12f68:	0004a783          	lw	a5,0(s1)
   12f6c:	fff40413          	addi	s0,s0,-1
   12f70:	ffc48493          	addi	s1,s1,-4
   12f74:	000780e7          	jalr	a5
   12f78:	fe0418e3          	bnez	s0,12f68 <__libc_fini_array+0x38>
   12f7c:	00c12083          	lw	ra,12(sp)
   12f80:	00812403          	lw	s0,8(sp)
   12f84:	00412483          	lw	s1,4(sp)
   12f88:	01010113          	addi	sp,sp,16
   12f8c:	8bcfd06f          	j	10048 <_fini>

00012f90 <memcpy>:
   12f90:	00a5c7b3          	xor	a5,a1,a0
   12f94:	0037f793          	andi	a5,a5,3
   12f98:	00c508b3          	add	a7,a0,a2
   12f9c:	0e079263          	bnez	a5,13080 <memcpy+0xf0>
   12fa0:	00300793          	li	a5,3
   12fa4:	0ec7fe63          	bleu	a2,a5,130a0 <memcpy+0x110>
   12fa8:	00357793          	andi	a5,a0,3
   12fac:	04079a63          	bnez	a5,13000 <memcpy+0x70>
   12fb0:	ffc8f813          	andi	a6,a7,-4
   12fb4:	fe080793          	addi	a5,a6,-32
   12fb8:	00050713          	mv	a4,a0
   12fbc:	06f56663          	bltu	a0,a5,13028 <memcpy+0x98>
   12fc0:	00058693          	mv	a3,a1
   12fc4:	00070793          	mv	a5,a4
   12fc8:	03077863          	bleu	a6,a4,12ff8 <memcpy+0x68>
   12fcc:	0006a603          	lw	a2,0(a3) # 1000000 <_end+0xfdf890>
   12fd0:	00478793          	addi	a5,a5,4
   12fd4:	00468693          	addi	a3,a3,4
   12fd8:	fec7ae23          	sw	a2,-4(a5)
   12fdc:	ff07e8e3          	bltu	a5,a6,12fcc <memcpy+0x3c>
   12fe0:	fff74793          	not	a5,a4
   12fe4:	01078833          	add	a6,a5,a6
   12fe8:	ffc87813          	andi	a6,a6,-4
   12fec:	00480813          	addi	a6,a6,4
   12ff0:	01070733          	add	a4,a4,a6
   12ff4:	010585b3          	add	a1,a1,a6
   12ff8:	09176863          	bltu	a4,a7,13088 <memcpy+0xf8>
   12ffc:	00008067          	ret
   13000:	00050713          	mv	a4,a0
   13004:	0005c683          	lbu	a3,0(a1)
   13008:	00170713          	addi	a4,a4,1 # 80000001 <_end+0x7ffdf891>
   1300c:	00377793          	andi	a5,a4,3
   13010:	00158593          	addi	a1,a1,1
   13014:	fed70fa3          	sb	a3,-1(a4)
   13018:	fe0796e3          	bnez	a5,13004 <memcpy+0x74>
   1301c:	ffc8f813          	andi	a6,a7,-4
   13020:	fe080793          	addi	a5,a6,-32
   13024:	f8f77ee3          	bleu	a5,a4,12fc0 <memcpy+0x30>
   13028:	0005af83          	lw	t6,0(a1)
   1302c:	0045af03          	lw	t5,4(a1)
   13030:	0085ae83          	lw	t4,8(a1)
   13034:	00c5ae03          	lw	t3,12(a1)
   13038:	0105a383          	lw	t2,16(a1)
   1303c:	0145a303          	lw	t1,20(a1)
   13040:	0185a283          	lw	t0,24(a1)
   13044:	01c5a603          	lw	a2,28(a1)
   13048:	02458593          	addi	a1,a1,36
   1304c:	02470713          	addi	a4,a4,36
   13050:	ffc5a683          	lw	a3,-4(a1)
   13054:	fdf72e23          	sw	t6,-36(a4)
   13058:	ffe72023          	sw	t5,-32(a4)
   1305c:	ffd72223          	sw	t4,-28(a4)
   13060:	ffc72423          	sw	t3,-24(a4)
   13064:	fe772623          	sw	t2,-20(a4)
   13068:	fe672823          	sw	t1,-16(a4)
   1306c:	fe572a23          	sw	t0,-12(a4)
   13070:	fec72c23          	sw	a2,-8(a4)
   13074:	fed72e23          	sw	a3,-4(a4)
   13078:	faf768e3          	bltu	a4,a5,13028 <memcpy+0x98>
   1307c:	f45ff06f          	j	12fc0 <memcpy+0x30>
   13080:	00050713          	mv	a4,a0
   13084:	03157463          	bleu	a7,a0,130ac <memcpy+0x11c>
   13088:	0005c783          	lbu	a5,0(a1)
   1308c:	00170713          	addi	a4,a4,1
   13090:	00158593          	addi	a1,a1,1
   13094:	fef70fa3          	sb	a5,-1(a4)
   13098:	ff1768e3          	bltu	a4,a7,13088 <memcpy+0xf8>
   1309c:	00008067          	ret
   130a0:	00050713          	mv	a4,a0
   130a4:	ff1562e3          	bltu	a0,a7,13088 <memcpy+0xf8>
   130a8:	f55ff06f          	j	12ffc <memcpy+0x6c>
   130ac:	00008067          	ret

000130b0 <_printf_r>:
   130b0:	fc010113          	addi	sp,sp,-64
   130b4:	02c12423          	sw	a2,40(sp)
   130b8:	02d12623          	sw	a3,44(sp)
   130bc:	02f12a23          	sw	a5,52(sp)
   130c0:	02e12823          	sw	a4,48(sp)
   130c4:	03012c23          	sw	a6,56(sp)
   130c8:	03112e23          	sw	a7,60(sp)
   130cc:	00058613          	mv	a2,a1
   130d0:	00852583          	lw	a1,8(a0)
   130d4:	02810793          	addi	a5,sp,40
   130d8:	00078693          	mv	a3,a5
   130dc:	00112e23          	sw	ra,28(sp)
   130e0:	00f12623          	sw	a5,12(sp)
   130e4:	448000ef          	jal	1352c <_vfprintf_r>
   130e8:	01c12083          	lw	ra,28(sp)
   130ec:	04010113          	addi	sp,sp,64
   130f0:	00008067          	ret

000130f4 <printf>:
   130f4:	8081a283          	lw	t0,-2040(gp) # 1de78 <_impure_ptr>
   130f8:	fc010113          	addi	sp,sp,-64
   130fc:	02c12423          	sw	a2,40(sp)
   13100:	02d12623          	sw	a3,44(sp)
   13104:	02f12a23          	sw	a5,52(sp)
   13108:	02b12223          	sw	a1,36(sp)
   1310c:	02e12823          	sw	a4,48(sp)
   13110:	03012c23          	sw	a6,56(sp)
   13114:	03112e23          	sw	a7,60(sp)
   13118:	0082a583          	lw	a1,8(t0)
   1311c:	02410793          	addi	a5,sp,36
   13120:	00050613          	mv	a2,a0
   13124:	00078693          	mv	a3,a5
   13128:	00028513          	mv	a0,t0
   1312c:	00112e23          	sw	ra,28(sp)
   13130:	00f12623          	sw	a5,12(sp)
   13134:	3f8000ef          	jal	1352c <_vfprintf_r>
   13138:	01c12083          	lw	ra,28(sp)
   1313c:	04010113          	addi	sp,sp,64
   13140:	00008067          	ret

00013144 <_putchar_r>:
   13144:	00852603          	lw	a2,8(a0)
   13148:	0180006f          	j	13160 <_putc_r>

0001314c <putchar>:
   1314c:	8081a783          	lw	a5,-2040(gp) # 1de78 <_impure_ptr>
   13150:	00050593          	mv	a1,a0
   13154:	0087a603          	lw	a2,8(a5)
   13158:	00078513          	mv	a0,a5
   1315c:	0040006f          	j	13160 <_putc_r>

00013160 <_putc_r>:
   13160:	fe010113          	addi	sp,sp,-32
   13164:	00812c23          	sw	s0,24(sp)
   13168:	00112e23          	sw	ra,28(sp)
   1316c:	00050413          	mv	s0,a0
   13170:	00050663          	beqz	a0,1317c <_putc_r+0x1c>
   13174:	03852783          	lw	a5,56(a0)
   13178:	06078863          	beqz	a5,131e8 <_putc_r+0x88>
   1317c:	00862783          	lw	a5,8(a2)
   13180:	fff78793          	addi	a5,a5,-1
   13184:	00f62423          	sw	a5,8(a2)
   13188:	0207c663          	bltz	a5,131b4 <_putc_r+0x54>
   1318c:	00062783          	lw	a5,0(a2)
   13190:	00b78023          	sb	a1,0(a5)
   13194:	00062783          	lw	a5,0(a2)
   13198:	01c12083          	lw	ra,28(sp)
   1319c:	00178713          	addi	a4,a5,1
   131a0:	00e62023          	sw	a4,0(a2)
   131a4:	0007c503          	lbu	a0,0(a5)
   131a8:	01812403          	lw	s0,24(sp)
   131ac:	02010113          	addi	sp,sp,32
   131b0:	00008067          	ret
   131b4:	01862703          	lw	a4,24(a2)
   131b8:	00e7ce63          	blt	a5,a4,131d4 <_putc_r+0x74>
   131bc:	00062783          	lw	a5,0(a2)
   131c0:	00a00713          	li	a4,10
   131c4:	00b78023          	sb	a1,0(a5)
   131c8:	00062783          	lw	a5,0(a2)
   131cc:	0007c583          	lbu	a1,0(a5)
   131d0:	fce594e3          	bne	a1,a4,13198 <_putc_r+0x38>
   131d4:	00040513          	mv	a0,s0
   131d8:	01c12083          	lw	ra,28(sp)
   131dc:	01812403          	lw	s0,24(sp)
   131e0:	02010113          	addi	sp,sp,32
   131e4:	6d90106f          	j	150bc <__swbuf_r>
   131e8:	00b12623          	sw	a1,12(sp)
   131ec:	00c12423          	sw	a2,8(sp)
   131f0:	455030ef          	jal	16e44 <__sinit>
   131f4:	00812603          	lw	a2,8(sp)
   131f8:	00c12583          	lw	a1,12(sp)
   131fc:	f81ff06f          	j	1317c <_putc_r+0x1c>

00013200 <putc>:
   13200:	fe010113          	addi	sp,sp,-32
   13204:	00812c23          	sw	s0,24(sp)
   13208:	8081a783          	lw	a5,-2040(gp) # 1de78 <_impure_ptr>
   1320c:	00912a23          	sw	s1,20(sp)
   13210:	00112e23          	sw	ra,28(sp)
   13214:	00050493          	mv	s1,a0
   13218:	00078663          	beqz	a5,13224 <putc+0x24>
   1321c:	0387a703          	lw	a4,56(a5)
   13220:	06070863          	beqz	a4,13290 <putc+0x90>
   13224:	0085a783          	lw	a5,8(a1)
   13228:	fff78793          	addi	a5,a5,-1
   1322c:	00f5a423          	sw	a5,8(a1)
   13230:	0207c863          	bltz	a5,13260 <putc+0x60>
   13234:	0005a783          	lw	a5,0(a1)
   13238:	00978023          	sb	s1,0(a5)
   1323c:	0005a783          	lw	a5,0(a1)
   13240:	01c12083          	lw	ra,28(sp)
   13244:	00178713          	addi	a4,a5,1
   13248:	00e5a023          	sw	a4,0(a1)
   1324c:	0007c503          	lbu	a0,0(a5)
   13250:	01812403          	lw	s0,24(sp)
   13254:	01412483          	lw	s1,20(sp)
   13258:	02010113          	addi	sp,sp,32
   1325c:	00008067          	ret
   13260:	0185a703          	lw	a4,24(a1)
   13264:	04e7c063          	blt	a5,a4,132a4 <putc+0xa4>
   13268:	0005a783          	lw	a5,0(a1)
   1326c:	00a00693          	li	a3,10
   13270:	00978023          	sb	s1,0(a5)
   13274:	0005a783          	lw	a5,0(a1)
   13278:	0007c703          	lbu	a4,0(a5)
   1327c:	fcd712e3          	bne	a4,a3,13240 <putc+0x40>
   13280:	00058613          	mv	a2,a1
   13284:	8081a503          	lw	a0,-2040(gp) # 1de78 <_impure_ptr>
   13288:	00070593          	mv	a1,a4
   1328c:	0240006f          	j	132b0 <putc+0xb0>
   13290:	00078513          	mv	a0,a5
   13294:	00b12623          	sw	a1,12(sp)
   13298:	3ad030ef          	jal	16e44 <__sinit>
   1329c:	00c12583          	lw	a1,12(sp)
   132a0:	f85ff06f          	j	13224 <putc+0x24>
   132a4:	8081a503          	lw	a0,-2040(gp) # 1de78 <_impure_ptr>
   132a8:	00058613          	mv	a2,a1
   132ac:	00048593          	mv	a1,s1
   132b0:	01c12083          	lw	ra,28(sp)
   132b4:	01812403          	lw	s0,24(sp)
   132b8:	01412483          	lw	s1,20(sp)
   132bc:	02010113          	addi	sp,sp,32
   132c0:	5fd0106f          	j	150bc <__swbuf_r>

000132c4 <_puts_r>:
   132c4:	fd010113          	addi	sp,sp,-48
   132c8:	02812423          	sw	s0,40(sp)
   132cc:	00050413          	mv	s0,a0
   132d0:	00058513          	mv	a0,a1
   132d4:	02912223          	sw	s1,36(sp)
   132d8:	02112623          	sw	ra,44(sp)
   132dc:	00058493          	mv	s1,a1
   132e0:	1bc000ef          	jal	1349c <strlen>
   132e4:	8081a783          	lw	a5,-2040(gp) # 1de78 <_impure_ptr>
   132e8:	00150613          	addi	a2,a0,1
   132ec:	00912823          	sw	s1,16(sp)
   132f0:	0087a703          	lw	a4,8(a5)
   132f4:	0001c7b7          	lui	a5,0x1c
   132f8:	2d078793          	addi	a5,a5,720 # 1c2d0 <zeroes.3949+0x14>
   132fc:	00c71683          	lh	a3,12(a4)
   13300:	00f12c23          	sw	a5,24(sp)
   13304:	00100793          	li	a5,1
   13308:	00f12e23          	sw	a5,28(sp)
   1330c:	01010793          	addi	a5,sp,16
   13310:	00f12223          	sw	a5,4(sp)
   13314:	00200793          	li	a5,2
   13318:	00f12423          	sw	a5,8(sp)
   1331c:	01269793          	slli	a5,a3,0x12
   13320:	00a12a23          	sw	a0,20(sp)
   13324:	00c12623          	sw	a2,12(sp)
   13328:	0207c263          	bltz	a5,1334c <_puts_r+0x88>
   1332c:	06472583          	lw	a1,100(a4)
   13330:	ffffe7b7          	lui	a5,0xffffe
   13334:	00002637          	lui	a2,0x2
   13338:	fff78793          	addi	a5,a5,-1 # ffffdfff <_end+0xfffdd88f>
   1333c:	00c6e6b3          	or	a3,a3,a2
   13340:	00f5f7b3          	and	a5,a1,a5
   13344:	00d71623          	sh	a3,12(a4)
   13348:	06f72223          	sw	a5,100(a4)
   1334c:	00842583          	lw	a1,8(s0)
   13350:	00410613          	addi	a2,sp,4
   13354:	00040513          	mv	a0,s0
   13358:	709030ef          	jal	17260 <__sfvwrite_r>
   1335c:	02c12083          	lw	ra,44(sp)
   13360:	00a03533          	snez	a0,a0
   13364:	40a00533          	neg	a0,a0
   13368:	00a56513          	ori	a0,a0,10
   1336c:	02812403          	lw	s0,40(sp)
   13370:	02412483          	lw	s1,36(sp)
   13374:	03010113          	addi	sp,sp,48
   13378:	00008067          	ret

0001337c <puts>:
   1337c:	00050593          	mv	a1,a0
   13380:	8081a503          	lw	a0,-2040(gp) # 1de78 <_impure_ptr>
   13384:	f41ff06f          	j	132c4 <_puts_r>

00013388 <strcmp>:
   13388:	00b56733          	or	a4,a0,a1
   1338c:	fff00393          	li	t2,-1
   13390:	00377713          	andi	a4,a4,3
   13394:	0c071063          	bnez	a4,13454 <strcmp+0xcc>
   13398:	7f7f8e37          	lui	t3,0x7f7f8
   1339c:	f7fe0e13          	addi	t3,t3,-129 # 7f7f7f7f <_end+0x7f7d780f>
   133a0:	00052603          	lw	a2,0(a0)
   133a4:	0005a683          	lw	a3,0(a1)
   133a8:	01c672b3          	and	t0,a2,t3
   133ac:	01c66333          	or	t1,a2,t3
   133b0:	01c282b3          	add	t0,t0,t3
   133b4:	0062e2b3          	or	t0,t0,t1
   133b8:	0c729263          	bne	t0,t2,1347c <strcmp+0xf4>
   133bc:	04d61663          	bne	a2,a3,13408 <strcmp+0x80>
   133c0:	00452603          	lw	a2,4(a0)
   133c4:	0045a683          	lw	a3,4(a1)
   133c8:	01c672b3          	and	t0,a2,t3
   133cc:	01c66333          	or	t1,a2,t3
   133d0:	01c282b3          	add	t0,t0,t3
   133d4:	0062e2b3          	or	t0,t0,t1
   133d8:	08729e63          	bne	t0,t2,13474 <strcmp+0xec>
   133dc:	02d61663          	bne	a2,a3,13408 <strcmp+0x80>
   133e0:	00852603          	lw	a2,8(a0)
   133e4:	0085a683          	lw	a3,8(a1)
   133e8:	01c672b3          	and	t0,a2,t3
   133ec:	01c66333          	or	t1,a2,t3
   133f0:	01c282b3          	add	t0,t0,t3
   133f4:	0062e2b3          	or	t0,t0,t1
   133f8:	08729863          	bne	t0,t2,13488 <strcmp+0x100>
   133fc:	00c50513          	addi	a0,a0,12
   13400:	00c58593          	addi	a1,a1,12
   13404:	f8d60ee3          	beq	a2,a3,133a0 <strcmp+0x18>
   13408:	01061713          	slli	a4,a2,0x10
   1340c:	01069793          	slli	a5,a3,0x10
   13410:	00f71e63          	bne	a4,a5,1342c <strcmp+0xa4>
   13414:	01065713          	srli	a4,a2,0x10
   13418:	0106d793          	srli	a5,a3,0x10
   1341c:	40f70533          	sub	a0,a4,a5
   13420:	0ff57593          	andi	a1,a0,255
   13424:	02059063          	bnez	a1,13444 <strcmp+0xbc>
   13428:	00008067          	ret
   1342c:	01075713          	srli	a4,a4,0x10
   13430:	0107d793          	srli	a5,a5,0x10
   13434:	40f70533          	sub	a0,a4,a5
   13438:	0ff57593          	andi	a1,a0,255
   1343c:	00059463          	bnez	a1,13444 <strcmp+0xbc>
   13440:	00008067          	ret
   13444:	0ff77713          	andi	a4,a4,255
   13448:	0ff7f793          	andi	a5,a5,255
   1344c:	40f70533          	sub	a0,a4,a5
   13450:	00008067          	ret
   13454:	00054603          	lbu	a2,0(a0)
   13458:	0005c683          	lbu	a3,0(a1)
   1345c:	00150513          	addi	a0,a0,1
   13460:	00158593          	addi	a1,a1,1
   13464:	00d61463          	bne	a2,a3,1346c <strcmp+0xe4>
   13468:	fe0616e3          	bnez	a2,13454 <strcmp+0xcc>
   1346c:	40d60533          	sub	a0,a2,a3
   13470:	00008067          	ret
   13474:	00450513          	addi	a0,a0,4
   13478:	00458593          	addi	a1,a1,4
   1347c:	fcd61ce3          	bne	a2,a3,13454 <strcmp+0xcc>
   13480:	00000513          	li	a0,0
   13484:	00008067          	ret
   13488:	00850513          	addi	a0,a0,8
   1348c:	00858593          	addi	a1,a1,8
   13490:	fcd612e3          	bne	a2,a3,13454 <strcmp+0xcc>
   13494:	00000513          	li	a0,0
   13498:	00008067          	ret

0001349c <strlen>:
   1349c:	00357793          	andi	a5,a0,3
   134a0:	00050593          	mv	a1,a0
   134a4:	04079a63          	bnez	a5,134f8 <strlen+0x5c>
   134a8:	7f7f86b7          	lui	a3,0x7f7f8
   134ac:	f7f68693          	addi	a3,a3,-129 # 7f7f7f7f <_end+0x7f7d780f>
   134b0:	fff00613          	li	a2,-1
   134b4:	00450513          	addi	a0,a0,4
   134b8:	ffc52783          	lw	a5,-4(a0)
   134bc:	00d7f733          	and	a4,a5,a3
   134c0:	00d70733          	add	a4,a4,a3
   134c4:	00d7e7b3          	or	a5,a5,a3
   134c8:	00f767b3          	or	a5,a4,a5
   134cc:	fec784e3          	beq	a5,a2,134b4 <strlen+0x18>
   134d0:	ffc54703          	lbu	a4,-4(a0)
   134d4:	40b507b3          	sub	a5,a0,a1
   134d8:	ffd54683          	lbu	a3,-3(a0)
   134dc:	ffe54603          	lbu	a2,-2(a0)
   134e0:	02070e63          	beqz	a4,1351c <strlen+0x80>
   134e4:	02068863          	beqz	a3,13514 <strlen+0x78>
   134e8:	fff78513          	addi	a0,a5,-1
   134ec:	02060c63          	beqz	a2,13524 <strlen+0x88>
   134f0:	00008067          	ret
   134f4:	fa070ae3          	beqz	a4,134a8 <strlen+0xc>
   134f8:	00054783          	lbu	a5,0(a0)
   134fc:	00150513          	addi	a0,a0,1
   13500:	00357713          	andi	a4,a0,3
   13504:	fe0798e3          	bnez	a5,134f4 <strlen+0x58>
   13508:	40b50533          	sub	a0,a0,a1
   1350c:	fff50513          	addi	a0,a0,-1
   13510:	00008067          	ret
   13514:	ffd78513          	addi	a0,a5,-3
   13518:	00008067          	ret
   1351c:	ffc78513          	addi	a0,a5,-4
   13520:	00008067          	ret
   13524:	ffe78513          	addi	a0,a5,-2
   13528:	00008067          	ret

0001352c <_vfprintf_r>:
   1352c:	ab010113          	addi	sp,sp,-1360
   13530:	54112623          	sw	ra,1356(sp)
   13534:	55212023          	sw	s2,1344(sp)
   13538:	53312e23          	sw	s3,1340(sp)
   1353c:	53612823          	sw	s6,1328(sp)
   13540:	00058993          	mv	s3,a1
   13544:	00060913          	mv	s2,a2
   13548:	02d12a23          	sw	a3,52(sp)
   1354c:	54812423          	sw	s0,1352(sp)
   13550:	54912223          	sw	s1,1348(sp)
   13554:	53412c23          	sw	s4,1336(sp)
   13558:	53512a23          	sw	s5,1332(sp)
   1355c:	53712623          	sw	s7,1324(sp)
   13560:	53812423          	sw	s8,1320(sp)
   13564:	53912223          	sw	s9,1316(sp)
   13568:	53a12023          	sw	s10,1312(sp)
   1356c:	51b12e23          	sw	s11,1308(sp)
   13570:	50813427          	fsd	fs0,1288(sp)
   13574:	00050b13          	mv	s6,a0
   13578:	374040ef          	jal	178ec <_localeconv_r>
   1357c:	00052503          	lw	a0,0(a0)
   13580:	04a12023          	sw	a0,64(sp)
   13584:	f19ff0ef          	jal	1349c <strlen>
   13588:	04a12623          	sw	a0,76(sp)
   1358c:	000b0663          	beqz	s6,13598 <_vfprintf_r+0x6c>
   13590:	038b2783          	lw	a5,56(s6)
   13594:	32078663          	beqz	a5,138c0 <_vfprintf_r+0x394>
   13598:	00c99703          	lh	a4,12(s3)
   1359c:	01071793          	slli	a5,a4,0x10
   135a0:	0107d793          	srli	a5,a5,0x10
   135a4:	01279293          	slli	t0,a5,0x12
   135a8:	0202c663          	bltz	t0,135d4 <_vfprintf_r+0xa8>
   135ac:	0649a683          	lw	a3,100(s3)
   135b0:	000027b7          	lui	a5,0x2
   135b4:	00f76733          	or	a4,a4,a5
   135b8:	ffffe7b7          	lui	a5,0xffffe
   135bc:	fff78793          	addi	a5,a5,-1 # ffffdfff <_end+0xfffdd88f>
   135c0:	00f6f7b3          	and	a5,a3,a5
   135c4:	06f9a223          	sw	a5,100(s3)
   135c8:	01071793          	slli	a5,a4,0x10
   135cc:	00e99623          	sh	a4,12(s3)
   135d0:	0107d793          	srli	a5,a5,0x10
   135d4:	0087f693          	andi	a3,a5,8
   135d8:	18068e63          	beqz	a3,13774 <_vfprintf_r+0x248>
   135dc:	0109a683          	lw	a3,16(s3)
   135e0:	18068a63          	beqz	a3,13774 <_vfprintf_r+0x248>
   135e4:	01a7f793          	andi	a5,a5,26
   135e8:	00a00693          	li	a3,10
   135ec:	1ad78a63          	beq	a5,a3,137a0 <_vfprintf_r+0x274>
   135f0:	0001c7b7          	lui	a5,0x1c
   135f4:	10010b93          	addi	s7,sp,256
   135f8:	fc478c13          	addi	s8,a5,-60 # 1bfc4 <blanks.4004>
   135fc:	0001c7b7          	lui	a5,0x1c
   13600:	04012823          	sw	zero,80(sp)
   13604:	04012a23          	sw	zero,84(sp)
   13608:	09712623          	sw	s7,140(sp)
   1360c:	08012a23          	sw	zero,148(sp)
   13610:	08012823          	sw	zero,144(sp)
   13614:	04012223          	sw	zero,68(sp)
   13618:	04012c23          	sw	zero,88(sp)
   1361c:	04012e23          	sw	zero,92(sp)
   13620:	02012c23          	sw	zero,56(sp)
   13624:	000b8693          	mv	a3,s7
   13628:	fd478c93          	addi	s9,a5,-44 # 1bfd4 <zeroes.4005>
   1362c:	00094783          	lbu	a5,0(s2)
   13630:	120782e3          	beqz	a5,13f54 <_vfprintf_r+0xa28>
   13634:	02500713          	li	a4,37
   13638:	00090413          	mv	s0,s2
   1363c:	00e79663          	bne	a5,a4,13648 <_vfprintf_r+0x11c>
   13640:	0540006f          	j	13694 <_vfprintf_r+0x168>
   13644:	00e78863          	beq	a5,a4,13654 <_vfprintf_r+0x128>
   13648:	00140413          	addi	s0,s0,1
   1364c:	00044783          	lbu	a5,0(s0)
   13650:	fe079ae3          	bnez	a5,13644 <_vfprintf_r+0x118>
   13654:	412404b3          	sub	s1,s0,s2
   13658:	02048e63          	beqz	s1,13694 <_vfprintf_r+0x168>
   1365c:	09412703          	lw	a4,148(sp)
   13660:	09012783          	lw	a5,144(sp)
   13664:	0126a023          	sw	s2,0(a3)
   13668:	00970733          	add	a4,a4,s1
   1366c:	00178793          	addi	a5,a5,1
   13670:	08e12a23          	sw	a4,148(sp)
   13674:	00700713          	li	a4,7
   13678:	0096a223          	sw	s1,4(a3)
   1367c:	08f12823          	sw	a5,144(sp)
   13680:	00868693          	addi	a3,a3,8
   13684:	1af74a63          	blt	a4,a5,13838 <_vfprintf_r+0x30c>
   13688:	03812283          	lw	t0,56(sp)
   1368c:	009282b3          	add	t0,t0,s1
   13690:	02512c23          	sw	t0,56(sp)
   13694:	00044783          	lbu	a5,0(s0)
   13698:	1a078e63          	beqz	a5,13854 <_vfprintf_r+0x328>
   1369c:	00140913          	addi	s2,s0,1
   136a0:	060107a3          	sb	zero,111(sp)
   136a4:	00000593          	li	a1,0
   136a8:	00000513          	li	a0,0
   136ac:	fff00413          	li	s0,-1
   136b0:	02012423          	sw	zero,40(sp)
   136b4:	00000a93          	li	s5,0
   136b8:	05800713          	li	a4,88
   136bc:	00900613          	li	a2,9
   136c0:	02a00813          	li	a6,42
   136c4:	00000893          	li	a7,0
   136c8:	00094d03          	lbu	s10,0(s2)
   136cc:	00190913          	addi	s2,s2,1
   136d0:	fe0d0793          	addi	a5,s10,-32
   136d4:	7ef76863          	bltu	a4,a5,13ec4 <_vfprintf_r+0x998>
   136d8:	0001c2b7          	lui	t0,0x1c
   136dc:	00279793          	slli	a5,a5,0x2
   136e0:	e6028293          	addi	t0,t0,-416 # 1be60 <__clz_tab+0x100>
   136e4:	005787b3          	add	a5,a5,t0
   136e8:	0007a783          	lw	a5,0(a5)
   136ec:	00078067          	jr	a5
   136f0:	010aea93          	ori	s5,s5,16
   136f4:	fd5ff06f          	j	136c8 <_vfprintf_r+0x19c>
   136f8:	03412283          	lw	t0,52(sp)
   136fc:	0002a883          	lw	a7,0(t0)
   13700:	00428293          	addi	t0,t0,4
   13704:	02512a23          	sw	t0,52(sp)
   13708:	fc08d0e3          	bgez	a7,136c8 <_vfprintf_r+0x19c>
   1370c:	411008b3          	neg	a7,a7
   13710:	004aea93          	ori	s5,s5,4
   13714:	fb5ff06f          	j	136c8 <_vfprintf_r+0x19c>
   13718:	03412283          	lw	t0,52(sp)
   1371c:	03000613          	li	a2,48
   13720:	06c10823          	sb	a2,112(sp)
   13724:	07800613          	li	a2,120
   13728:	03112423          	sw	a7,40(sp)
   1372c:	00428713          	addi	a4,t0,4
   13730:	0002a783          	lw	a5,0(t0)
   13734:	002ae593          	ori	a1,s5,2
   13738:	06c108a3          	sb	a2,113(sp)
   1373c:	060107a3          	sb	zero,111(sp)
   13740:	7a044a63          	bltz	s0,13ef4 <_vfprintf_r+0x9c8>
   13744:	f7fafa93          	andi	s5,s5,-129
   13748:	002aea93          	ori	s5,s5,2
   1374c:	02e12a23          	sw	a4,52(sp)
   13750:	74079e63          	bnez	a5,13eac <_vfprintf_r+0x980>
   13754:	0001c7b7          	lui	a5,0x1c
   13758:	2f878793          	addi	a5,a5,760 # 1c2f8 <zeroes.3949+0x3c>
   1375c:	04f12c23          	sw	a5,88(sp)
   13760:	07800d13          	li	s10,120
   13764:	00000813          	li	a6,0
   13768:	00000793          	li	a5,0
   1376c:	64041c63          	bnez	s0,13dc4 <_vfprintf_r+0x898>
   13770:	4b40006f          	j	13c24 <_vfprintf_r+0x6f8>
   13774:	00098593          	mv	a1,s3
   13778:	000b0513          	mv	a0,s6
   1377c:	2cd010ef          	jal	15248 <__swsetup_r>
   13780:	00050463          	beqz	a0,13788 <_vfprintf_r+0x25c>
   13784:	2f40106f          	j	14a78 <_vfprintf_r+0x154c>
   13788:	00c99703          	lh	a4,12(s3)
   1378c:	00a00693          	li	a3,10
   13790:	01071793          	slli	a5,a4,0x10
   13794:	0107d793          	srli	a5,a5,0x10
   13798:	01a7f793          	andi	a5,a5,26
   1379c:	e4d79ae3          	bne	a5,a3,135f0 <_vfprintf_r+0xc4>
   137a0:	00e99783          	lh	a5,14(s3)
   137a4:	e407c6e3          	bltz	a5,135f0 <_vfprintf_r+0xc4>
   137a8:	0649a303          	lw	t1,100(s3)
   137ac:	01c9a283          	lw	t0,28(s3)
   137b0:	0249a883          	lw	a7,36(s3)
   137b4:	03412683          	lw	a3,52(sp)
   137b8:	ffd77713          	andi	a4,a4,-3
   137bc:	40000813          	li	a6,1024
   137c0:	0ae11223          	sh	a4,164(sp)
   137c4:	00090613          	mv	a2,s2
   137c8:	10010713          	addi	a4,sp,256
   137cc:	09810593          	addi	a1,sp,152
   137d0:	000b0513          	mv	a0,s6
   137d4:	0e612e23          	sw	t1,252(sp)
   137d8:	0af11323          	sh	a5,166(sp)
   137dc:	0a512a23          	sw	t0,180(sp)
   137e0:	0b112e23          	sw	a7,188(sp)
   137e4:	08e12c23          	sw	a4,152(sp)
   137e8:	0ae12423          	sw	a4,168(sp)
   137ec:	0b012023          	sw	a6,160(sp)
   137f0:	0b012623          	sw	a6,172(sp)
   137f4:	0a012823          	sw	zero,176(sp)
   137f8:	d35ff0ef          	jal	1352c <_vfprintf_r>
   137fc:	00050413          	mv	s0,a0
   13800:	00054c63          	bltz	a0,13818 <_vfprintf_r+0x2ec>
   13804:	09810593          	addi	a1,sp,152
   13808:	000b0513          	mv	a0,s6
   1380c:	048030ef          	jal	16854 <_fflush_r>
   13810:	00050463          	beqz	a0,13818 <_vfprintf_r+0x2ec>
   13814:	7bc0106f          	j	14fd0 <_vfprintf_r+0x1aa4>
   13818:	0a415783          	lhu	a5,164(sp)
   1381c:	0407f793          	andi	a5,a5,64
   13820:	00078863          	beqz	a5,13830 <_vfprintf_r+0x304>
   13824:	00c9d783          	lhu	a5,12(s3)
   13828:	0407e793          	ori	a5,a5,64
   1382c:	00f99623          	sh	a5,12(s3)
   13830:	00040513          	mv	a0,s0
   13834:	04c0006f          	j	13880 <_vfprintf_r+0x354>
   13838:	08c10613          	addi	a2,sp,140
   1383c:	00098593          	mv	a1,s3
   13840:	000b0513          	mv	a0,s6
   13844:	4ac060ef          	jal	19cf0 <__sprint_r>
   13848:	02051263          	bnez	a0,1386c <_vfprintf_r+0x340>
   1384c:	000b8693          	mv	a3,s7
   13850:	e39ff06f          	j	13688 <_vfprintf_r+0x15c>
   13854:	09412783          	lw	a5,148(sp)
   13858:	00078a63          	beqz	a5,1386c <_vfprintf_r+0x340>
   1385c:	08c10613          	addi	a2,sp,140
   13860:	00098593          	mv	a1,s3
   13864:	000b0513          	mv	a0,s6
   13868:	488060ef          	jal	19cf0 <__sprint_r>
   1386c:	00c9d783          	lhu	a5,12(s3)
   13870:	0407f793          	andi	a5,a5,64
   13874:	00078463          	beqz	a5,1387c <_vfprintf_r+0x350>
   13878:	2000106f          	j	14a78 <_vfprintf_r+0x154c>
   1387c:	03812503          	lw	a0,56(sp)
   13880:	54c12083          	lw	ra,1356(sp)
   13884:	54812403          	lw	s0,1352(sp)
   13888:	54412483          	lw	s1,1348(sp)
   1388c:	54012903          	lw	s2,1344(sp)
   13890:	53c12983          	lw	s3,1340(sp)
   13894:	53812a03          	lw	s4,1336(sp)
   13898:	53412a83          	lw	s5,1332(sp)
   1389c:	53012b03          	lw	s6,1328(sp)
   138a0:	52c12b83          	lw	s7,1324(sp)
   138a4:	52812c03          	lw	s8,1320(sp)
   138a8:	52412c83          	lw	s9,1316(sp)
   138ac:	52012d03          	lw	s10,1312(sp)
   138b0:	51c12d83          	lw	s11,1308(sp)
   138b4:	50813407          	fld	fs0,1288(sp)
   138b8:	55010113          	addi	sp,sp,1360
   138bc:	00008067          	ret
   138c0:	000b0513          	mv	a0,s6
   138c4:	580030ef          	jal	16e44 <__sinit>
   138c8:	cd1ff06f          	j	13598 <_vfprintf_r+0x6c>
   138cc:	00100593          	li	a1,1
   138d0:	02b00513          	li	a0,43
   138d4:	df5ff06f          	j	136c8 <_vfprintf_r+0x19c>
   138d8:	03112423          	sw	a7,40(sp)
   138dc:	00058463          	beqz	a1,138e4 <_vfprintf_r+0x3b8>
   138e0:	7600106f          	j	15040 <_vfprintf_r+0x1b14>
   138e4:	010af793          	andi	a5,s5,16
   138e8:	40078263          	beqz	a5,13cec <_vfprintf_r+0x7c0>
   138ec:	03412283          	lw	t0,52(sp)
   138f0:	0002a783          	lw	a5,0(t0)
   138f4:	00428713          	addi	a4,t0,4
   138f8:	060107a3          	sb	zero,111(sp)
   138fc:	40044663          	bltz	s0,13d08 <_vfprintf_r+0x7dc>
   13900:	f7fafa93          	andi	s5,s5,-129
   13904:	02e12a23          	sw	a4,52(sp)
   13908:	40079663          	bnez	a5,13d14 <_vfprintf_r+0x7e8>
   1390c:	00000813          	li	a6,0
   13910:	00000793          	li	a5,0
   13914:	00041463          	bnez	s0,1391c <_vfprintf_r+0x3f0>
   13918:	6f80106f          	j	15010 <_vfprintf_r+0x1ae4>
   1391c:	0c010893          	addi	a7,sp,192
   13920:	00088a13          	mv	s4,a7
   13924:	0077f713          	andi	a4,a5,7
   13928:	fffa0a13          	addi	s4,s4,-1
   1392c:	03070713          	addi	a4,a4,48
   13930:	0037d793          	srli	a5,a5,0x3
   13934:	00ea0023          	sb	a4,0(s4)
   13938:	fe0796e3          	bnez	a5,13924 <_vfprintf_r+0x3f8>
   1393c:	001af793          	andi	a5,s5,1
   13940:	26078663          	beqz	a5,13bac <_vfprintf_r+0x680>
   13944:	03000793          	li	a5,48
   13948:	26f70263          	beq	a4,a5,13bac <_vfprintf_r+0x680>
   1394c:	fffa0713          	addi	a4,s4,-1
   13950:	40e888b3          	sub	a7,a7,a4
   13954:	fefa0fa3          	sb	a5,-1(s4)
   13958:	03112823          	sw	a7,48(sp)
   1395c:	00070a13          	mv	s4,a4
   13960:	03012783          	lw	a5,48(sp)
   13964:	0087d463          	ble	s0,a5,1396c <_vfprintf_r+0x440>
   13968:	00040793          	mv	a5,s0
   1396c:	02f12223          	sw	a5,36(sp)
   13970:	00080863          	beqz	a6,13980 <_vfprintf_r+0x454>
   13974:	02412283          	lw	t0,36(sp)
   13978:	00128293          	addi	t0,t0,1
   1397c:	02512223          	sw	t0,36(sp)
   13980:	002af713          	andi	a4,s5,2
   13984:	02e12623          	sw	a4,44(sp)
   13988:	00070863          	beqz	a4,13998 <_vfprintf_r+0x46c>
   1398c:	02412783          	lw	a5,36(sp)
   13990:	00278793          	addi	a5,a5,2
   13994:	02f12223          	sw	a5,36(sp)
   13998:	084af293          	andi	t0,s5,132
   1399c:	02512e23          	sw	t0,60(sp)
   139a0:	5a029e63          	bnez	t0,13f5c <_vfprintf_r+0xa30>
   139a4:	02812283          	lw	t0,40(sp)
   139a8:	02412703          	lw	a4,36(sp)
   139ac:	40e284b3          	sub	s1,t0,a4
   139b0:	5a905663          	blez	s1,13f5c <_vfprintf_r+0xa30>
   139b4:	01000893          	li	a7,16
   139b8:	09412703          	lw	a4,148(sp)
   139bc:	09012783          	lw	a5,144(sp)
   139c0:	05812423          	sw	s8,72(sp)
   139c4:	0698d263          	ble	s1,a7,13a28 <_vfprintf_r+0x4fc>
   139c8:	00700d93          	li	s11,7
   139cc:	00c0006f          	j	139d8 <_vfprintf_r+0x4ac>
   139d0:	ff048493          	addi	s1,s1,-16
   139d4:	0498da63          	ble	s1,a7,13a28 <_vfprintf_r+0x4fc>
   139d8:	01070713          	addi	a4,a4,16
   139dc:	00178793          	addi	a5,a5,1
   139e0:	0186a023          	sw	s8,0(a3)
   139e4:	0116a223          	sw	a7,4(a3)
   139e8:	08e12a23          	sw	a4,148(sp)
   139ec:	08f12823          	sw	a5,144(sp)
   139f0:	00868693          	addi	a3,a3,8
   139f4:	fcfddee3          	ble	a5,s11,139d0 <_vfprintf_r+0x4a4>
   139f8:	08c10613          	addi	a2,sp,140
   139fc:	00098593          	mv	a1,s3
   13a00:	000b0513          	mv	a0,s6
   13a04:	03112023          	sw	a7,32(sp)
   13a08:	2e8060ef          	jal	19cf0 <__sprint_r>
   13a0c:	02012883          	lw	a7,32(sp)
   13a10:	e4051ee3          	bnez	a0,1386c <_vfprintf_r+0x340>
   13a14:	ff048493          	addi	s1,s1,-16
   13a18:	09412703          	lw	a4,148(sp)
   13a1c:	09012783          	lw	a5,144(sp)
   13a20:	000b8693          	mv	a3,s7
   13a24:	fa98cae3          	blt	a7,s1,139d8 <_vfprintf_r+0x4ac>
   13a28:	04812283          	lw	t0,72(sp)
   13a2c:	00e48633          	add	a2,s1,a4
   13a30:	00178793          	addi	a5,a5,1
   13a34:	00700713          	li	a4,7
   13a38:	0056a023          	sw	t0,0(a3)
   13a3c:	0096a223          	sw	s1,4(a3)
   13a40:	08c12a23          	sw	a2,148(sp)
   13a44:	08f12823          	sw	a5,144(sp)
   13a48:	00868693          	addi	a3,a3,8
   13a4c:	50f75c63          	ble	a5,a4,13f64 <_vfprintf_r+0xa38>
   13a50:	08c10613          	addi	a2,sp,140
   13a54:	00098593          	mv	a1,s3
   13a58:	000b0513          	mv	a0,s6
   13a5c:	294060ef          	jal	19cf0 <__sprint_r>
   13a60:	e00516e3          	bnez	a0,1386c <_vfprintf_r+0x340>
   13a64:	09412603          	lw	a2,148(sp)
   13a68:	09012783          	lw	a5,144(sp)
   13a6c:	000b8693          	mv	a3,s7
   13a70:	4f40006f          	j	13f64 <_vfprintf_r+0xa38>
   13a74:	00094d03          	lbu	s10,0(s2)
   13a78:	00190913          	addi	s2,s2,1
   13a7c:	010d1463          	bne	s10,a6,13a84 <_vfprintf_r+0x558>
   13a80:	5680106f          	j	14fe8 <_vfprintf_r+0x1abc>
   13a84:	fd0d0793          	addi	a5,s10,-48
   13a88:	00000413          	li	s0,0
   13a8c:	c4f662e3          	bltu	a2,a5,136d0 <_vfprintf_r+0x1a4>
   13a90:	00190913          	addi	s2,s2,1
   13a94:	fff94d03          	lbu	s10,-1(s2)
   13a98:	00141293          	slli	t0,s0,0x1
   13a9c:	00341413          	slli	s0,s0,0x3
   13aa0:	00828433          	add	s0,t0,s0
   13aa4:	00f40433          	add	s0,s0,a5
   13aa8:	fd0d0793          	addi	a5,s10,-48
   13aac:	fef672e3          	bleu	a5,a2,13a90 <_vfprintf_r+0x564>
   13ab0:	c20450e3          	bgez	s0,136d0 <_vfprintf_r+0x1a4>
   13ab4:	fff00413          	li	s0,-1
   13ab8:	c19ff06f          	j	136d0 <_vfprintf_r+0x1a4>
   13abc:	080aea93          	ori	s5,s5,128
   13ac0:	c09ff06f          	j	136c8 <_vfprintf_r+0x19c>
   13ac4:	001aea93          	ori	s5,s5,1
   13ac8:	c01ff06f          	j	136c8 <_vfprintf_r+0x19c>
   13acc:	03412283          	lw	t0,52(sp)
   13ad0:	03112423          	sw	a7,40(sp)
   13ad4:	060107a3          	sb	zero,111(sp)
   13ad8:	0002aa03          	lw	s4,0(t0)
   13adc:	00428493          	addi	s1,t0,4
   13ae0:	000a1463          	bnez	s4,13ae8 <_vfprintf_r+0x5bc>
   13ae4:	0f80106f          	j	14bdc <_vfprintf_r+0x16b0>
   13ae8:	00045463          	bgez	s0,13af0 <_vfprintf_r+0x5c4>
   13aec:	0a80106f          	j	14b94 <_vfprintf_r+0x1668>
   13af0:	00040613          	mv	a2,s0
   13af4:	00000593          	li	a1,0
   13af8:	000a0513          	mv	a0,s4
   13afc:	00d12e23          	sw	a3,28(sp)
   13b00:	71c040ef          	jal	1821c <memchr>
   13b04:	01c12683          	lw	a3,28(sp)
   13b08:	00051463          	bnez	a0,13b10 <_vfprintf_r+0x5e4>
   13b0c:	2780106f          	j	14d84 <_vfprintf_r+0x1858>
   13b10:	41450533          	sub	a0,a0,s4
   13b14:	02812823          	sw	s0,48(sp)
   13b18:	78854ae3          	blt	a0,s0,14aac <_vfprintf_r+0x1580>
   13b1c:	03012783          	lw	a5,48(sp)
   13b20:	0007d463          	bgez	a5,13b28 <_vfprintf_r+0x5fc>
   13b24:	0900106f          	j	14bb4 <_vfprintf_r+0x1688>
   13b28:	06f14803          	lbu	a6,111(sp)
   13b2c:	02f12223          	sw	a5,36(sp)
   13b30:	02912a23          	sw	s1,52(sp)
   13b34:	00000413          	li	s0,0
   13b38:	e39ff06f          	j	13970 <_vfprintf_r+0x444>
   13b3c:	03112423          	sw	a7,40(sp)
   13b40:	00058463          	beqz	a1,13b48 <_vfprintf_r+0x61c>
   13b44:	53c0106f          	j	15080 <_vfprintf_r+0x1b54>
   13b48:	010af793          	andi	a5,s5,16
   13b4c:	1e078463          	beqz	a5,13d34 <_vfprintf_r+0x808>
   13b50:	03412283          	lw	t0,52(sp)
   13b54:	0002a783          	lw	a5,0(t0)
   13b58:	00428713          	addi	a4,t0,4
   13b5c:	060107a3          	sb	zero,111(sp)
   13b60:	1e044863          	bltz	s0,13d50 <_vfprintf_r+0x824>
   13b64:	f7fafa93          	andi	s5,s5,-129
   13b68:	02e12a23          	sw	a4,52(sp)
   13b6c:	00000813          	li	a6,0
   13b70:	0a078863          	beqz	a5,13c20 <_vfprintf_r+0x6f4>
   13b74:	0c010893          	addi	a7,sp,192
   13b78:	00900513          	li	a0,9
   13b7c:	00088613          	mv	a2,a7
   13b80:	00a00593          	li	a1,10
   13b84:	00f57e63          	bleu	a5,a0,13ba0 <_vfprintf_r+0x674>
   13b88:	02b7f733          	remu	a4,a5,a1
   13b8c:	fff60613          	addi	a2,a2,-1 # 1fff <_ftext-0xe001>
   13b90:	02b7d7b3          	divu	a5,a5,a1
   13b94:	03070713          	addi	a4,a4,48
   13b98:	00e60023          	sb	a4,0(a2)
   13b9c:	fef566e3          	bltu	a0,a5,13b88 <_vfprintf_r+0x65c>
   13ba0:	03078793          	addi	a5,a5,48
   13ba4:	fff60a13          	addi	s4,a2,-1
   13ba8:	fef60fa3          	sb	a5,-1(a2)
   13bac:	414888b3          	sub	a7,a7,s4
   13bb0:	03112823          	sw	a7,48(sp)
   13bb4:	dadff06f          	j	13960 <_vfprintf_r+0x434>
   13bb8:	00000893          	li	a7,0
   13bbc:	fd0d0793          	addi	a5,s10,-48
   13bc0:	00190913          	addi	s2,s2,1
   13bc4:	fff94d03          	lbu	s10,-1(s2)
   13bc8:	00189293          	slli	t0,a7,0x1
   13bcc:	00389893          	slli	a7,a7,0x3
   13bd0:	011288b3          	add	a7,t0,a7
   13bd4:	011788b3          	add	a7,a5,a7
   13bd8:	fd0d0793          	addi	a5,s10,-48
   13bdc:	fef672e3          	bleu	a5,a2,13bc0 <_vfprintf_r+0x694>
   13be0:	af1ff06f          	j	136d0 <_vfprintf_r+0x1a4>
   13be4:	03112423          	sw	a7,40(sp)
   13be8:	00058463          	beqz	a1,13bf0 <_vfprintf_r+0x6c4>
   13bec:	48c0106f          	j	15078 <_vfprintf_r+0x1b4c>
   13bf0:	010aea93          	ori	s5,s5,16
   13bf4:	010af793          	andi	a5,s5,16
   13bf8:	1e0784e3          	beqz	a5,145e0 <_vfprintf_r+0x10b4>
   13bfc:	03412283          	lw	t0,52(sp)
   13c00:	0002a783          	lw	a5,0(t0)
   13c04:	00428293          	addi	t0,t0,4
   13c08:	02512a23          	sw	t0,52(sp)
   13c0c:	2e07c4e3          	bltz	a5,146f4 <_vfprintf_r+0x11c8>
   13c10:	06f14803          	lbu	a6,111(sp)
   13c14:	14044263          	bltz	s0,13d58 <_vfprintf_r+0x82c>
   13c18:	f7fafa93          	andi	s5,s5,-129
   13c1c:	f4079ce3          	bnez	a5,13b74 <_vfprintf_r+0x648>
   13c20:	6e0410e3          	bnez	s0,14b00 <_vfprintf_r+0x15d4>
   13c24:	00000413          	li	s0,0
   13c28:	02012823          	sw	zero,48(sp)
   13c2c:	0c010a13          	addi	s4,sp,192
   13c30:	d31ff06f          	j	13960 <_vfprintf_r+0x434>
   13c34:	03112423          	sw	a7,40(sp)
   13c38:	00058463          	beqz	a1,13c40 <_vfprintf_r+0x714>
   13c3c:	4340106f          	j	15070 <_vfprintf_r+0x1b44>
   13c40:	008af793          	andi	a5,s5,8
   13c44:	03412283          	lw	t0,52(sp)
   13c48:	400782e3          	beqz	a5,1484c <_vfprintf_r+0x1320>
   13c4c:	00728793          	addi	a5,t0,7
   13c50:	ff87f793          	andi	a5,a5,-8
   13c54:	0007b007          	fld	ft0,0(a5)
   13c58:	00878293          	addi	t0,a5,8
   13c5c:	02512a23          	sw	t0,52(sp)
   13c60:	04013827          	fsd	ft0,80(sp)
   13c64:	05013507          	fld	fa0,80(sp)
   13c68:	00d12e23          	sw	a3,28(sp)
   13c6c:	00100a13          	li	s4,1
   13c70:	5c5050ef          	jal	19a34 <__fpclassifyd>
   13c74:	01c12683          	lw	a3,28(sp)
   13c78:	29451ce3          	bne	a0,s4,14710 <_vfprintf_r+0x11e4>
   13c7c:	05013087          	fld	ft1,80(sp)
   13c80:	d2000053          	fcvt.d.w	ft0,zero
   13c84:	a20097d3          	flt.d	a5,ft1,ft0
   13c88:	00078463          	beqz	a5,13c90 <_vfprintf_r+0x764>
   13c8c:	7c50006f          	j	14c50 <_vfprintf_r+0x1724>
   13c90:	06f14803          	lbu	a6,111(sp)
   13c94:	04700793          	li	a5,71
   13c98:	61a7dee3          	ble	s10,a5,14ab4 <_vfprintf_r+0x1588>
   13c9c:	0001ca37          	lui	s4,0x1c
   13ca0:	2d8a0a13          	addi	s4,s4,728 # 1c2d8 <zeroes.3949+0x1c>
   13ca4:	00300293          	li	t0,3
   13ca8:	02512223          	sw	t0,36(sp)
   13cac:	f7fafa93          	andi	s5,s5,-129
   13cb0:	02512823          	sw	t0,48(sp)
   13cb4:	00000413          	li	s0,0
   13cb8:	cb9ff06f          	j	13970 <_vfprintf_r+0x444>
   13cbc:	008aea93          	ori	s5,s5,8
   13cc0:	a09ff06f          	j	136c8 <_vfprintf_r+0x19c>
   13cc4:	a00512e3          	bnez	a0,136c8 <_vfprintf_r+0x19c>
   13cc8:	00100593          	li	a1,1
   13ccc:	02000513          	li	a0,32
   13cd0:	9f9ff06f          	j	136c8 <_vfprintf_r+0x19c>
   13cd4:	03112423          	sw	a7,40(sp)
   13cd8:	00058463          	beqz	a1,13ce0 <_vfprintf_r+0x7b4>
   13cdc:	3b80106f          	j	15094 <_vfprintf_r+0x1b68>
   13ce0:	010aea93          	ori	s5,s5,16
   13ce4:	010af793          	andi	a5,s5,16
   13ce8:	c00792e3          	bnez	a5,138ec <_vfprintf_r+0x3c0>
   13cec:	03412283          	lw	t0,52(sp)
   13cf0:	040af793          	andi	a5,s5,64
   13cf4:	00428713          	addi	a4,t0,4
   13cf8:	1a0780e3          	beqz	a5,14698 <_vfprintf_r+0x116c>
   13cfc:	0002d783          	lhu	a5,0(t0)
   13d00:	060107a3          	sb	zero,111(sp)
   13d04:	be045ee3          	bgez	s0,13900 <_vfprintf_r+0x3d4>
   13d08:	02e12a23          	sw	a4,52(sp)
   13d0c:	00000813          	li	a6,0
   13d10:	20078463          	beqz	a5,13f18 <_vfprintf_r+0x9ec>
   13d14:	00000813          	li	a6,0
   13d18:	c05ff06f          	j	1391c <_vfprintf_r+0x3f0>
   13d1c:	03112423          	sw	a7,40(sp)
   13d20:	00058463          	beqz	a1,13d28 <_vfprintf_r+0x7fc>
   13d24:	3640106f          	j	15088 <_vfprintf_r+0x1b5c>
   13d28:	010aea93          	ori	s5,s5,16
   13d2c:	010af793          	andi	a5,s5,16
   13d30:	e20790e3          	bnez	a5,13b50 <_vfprintf_r+0x624>
   13d34:	03412283          	lw	t0,52(sp)
   13d38:	040af793          	andi	a5,s5,64
   13d3c:	00428713          	addi	a4,t0,4
   13d40:	120782e3          	beqz	a5,14664 <_vfprintf_r+0x1138>
   13d44:	0002d783          	lhu	a5,0(t0)
   13d48:	060107a3          	sb	zero,111(sp)
   13d4c:	e0045ce3          	bgez	s0,13b64 <_vfprintf_r+0x638>
   13d50:	02e12a23          	sw	a4,52(sp)
   13d54:	00000813          	li	a6,0
   13d58:	e0079ee3          	bnez	a5,13b74 <_vfprintf_r+0x648>
   13d5c:	00100793          	li	a5,1
   13d60:	1b80006f          	j	13f18 <_vfprintf_r+0x9ec>
   13d64:	03112423          	sw	a7,40(sp)
   13d68:	00058463          	beqz	a1,13d70 <_vfprintf_r+0x844>
   13d6c:	2e40106f          	j	15050 <_vfprintf_r+0x1b24>
   13d70:	0001c7b7          	lui	a5,0x1c
   13d74:	2e478793          	addi	a5,a5,740 # 1c2e4 <zeroes.3949+0x28>
   13d78:	04f12c23          	sw	a5,88(sp)
   13d7c:	010af793          	andi	a5,s5,16
   13d80:	0c078e63          	beqz	a5,13e5c <_vfprintf_r+0x930>
   13d84:	03412283          	lw	t0,52(sp)
   13d88:	0002a783          	lw	a5,0(t0)
   13d8c:	00428293          	addi	t0,t0,4
   13d90:	02512a23          	sw	t0,52(sp)
   13d94:	001af713          	andi	a4,s5,1
   13d98:	78070463          	beqz	a4,14520 <_vfprintf_r+0xff4>
   13d9c:	2e0786e3          	beqz	a5,14888 <_vfprintf_r+0x135c>
   13da0:	03000713          	li	a4,48
   13da4:	06e10823          	sb	a4,112(sp)
   13da8:	07a108a3          	sb	s10,113(sp)
   13dac:	002ae713          	ori	a4,s5,2
   13db0:	060107a3          	sb	zero,111(sp)
   13db4:	6c0440e3          	bltz	s0,14c74 <_vfprintf_r+0x1748>
   13db8:	f7fafa93          	andi	s5,s5,-129
   13dbc:	002aea93          	ori	s5,s5,2
   13dc0:	00000813          	li	a6,0
   13dc4:	05812603          	lw	a2,88(sp)
   13dc8:	0c010893          	addi	a7,sp,192
   13dcc:	00088a13          	mv	s4,a7
   13dd0:	00f7f713          	andi	a4,a5,15
   13dd4:	00e60733          	add	a4,a2,a4
   13dd8:	00074703          	lbu	a4,0(a4)
   13ddc:	fffa0a13          	addi	s4,s4,-1
   13de0:	0047d793          	srli	a5,a5,0x4
   13de4:	00ea0023          	sb	a4,0(s4)
   13de8:	fe0794e3          	bnez	a5,13dd0 <_vfprintf_r+0x8a4>
   13dec:	dc1ff06f          	j	13bac <_vfprintf_r+0x680>
   13df0:	03412283          	lw	t0,52(sp)
   13df4:	00100713          	li	a4,1
   13df8:	03112423          	sw	a7,40(sp)
   13dfc:	0002a783          	lw	a5,0(t0)
   13e00:	00428293          	addi	t0,t0,4
   13e04:	02e12223          	sw	a4,36(sp)
   13e08:	060107a3          	sb	zero,111(sp)
   13e0c:	08f10c23          	sb	a5,152(sp)
   13e10:	02512a23          	sw	t0,52(sp)
   13e14:	02e12823          	sw	a4,48(sp)
   13e18:	09810a13          	addi	s4,sp,152
   13e1c:	00000413          	li	s0,0
   13e20:	b61ff06f          	j	13980 <_vfprintf_r+0x454>
   13e24:	03112423          	sw	a7,40(sp)
   13e28:	dc0586e3          	beqz	a1,13bf4 <_vfprintf_r+0x6c8>
   13e2c:	06a107a3          	sb	a0,111(sp)
   13e30:	dc5ff06f          	j	13bf4 <_vfprintf_r+0x6c8>
   13e34:	040aea93          	ori	s5,s5,64
   13e38:	891ff06f          	j	136c8 <_vfprintf_r+0x19c>
   13e3c:	03112423          	sw	a7,40(sp)
   13e40:	00058463          	beqz	a1,13e48 <_vfprintf_r+0x91c>
   13e44:	21c0106f          	j	15060 <_vfprintf_r+0x1b34>
   13e48:	0001c7b7          	lui	a5,0x1c
   13e4c:	2f878793          	addi	a5,a5,760 # 1c2f8 <zeroes.3949+0x3c>
   13e50:	04f12c23          	sw	a5,88(sp)
   13e54:	010af793          	andi	a5,s5,16
   13e58:	f20796e3          	bnez	a5,13d84 <_vfprintf_r+0x858>
   13e5c:	040af793          	andi	a5,s5,64
   13e60:	03412283          	lw	t0,52(sp)
   13e64:	20078ae3          	beqz	a5,14878 <_vfprintf_r+0x134c>
   13e68:	0002d783          	lhu	a5,0(t0)
   13e6c:	00428293          	addi	t0,t0,4
   13e70:	02512a23          	sw	t0,52(sp)
   13e74:	f21ff06f          	j	13d94 <_vfprintf_r+0x868>
   13e78:	00058463          	beqz	a1,13e80 <_vfprintf_r+0x954>
   13e7c:	2240106f          	j	150a0 <_vfprintf_r+0x1b74>
   13e80:	010af793          	andi	a5,s5,16
   13e84:	0a079863          	bnez	a5,13f34 <_vfprintf_r+0xa08>
   13e88:	040afa93          	andi	s5,s5,64
   13e8c:	0a0a8463          	beqz	s5,13f34 <_vfprintf_r+0xa08>
   13e90:	03412283          	lw	t0,52(sp)
   13e94:	0002a783          	lw	a5,0(t0)
   13e98:	00428293          	addi	t0,t0,4
   13e9c:	02512a23          	sw	t0,52(sp)
   13ea0:	03812283          	lw	t0,56(sp)
   13ea4:	00579023          	sh	t0,0(a5)
   13ea8:	f84ff06f          	j	1362c <_vfprintf_r+0x100>
   13eac:	0001c737          	lui	a4,0x1c
   13eb0:	2f870713          	addi	a4,a4,760 # 1c2f8 <zeroes.3949+0x3c>
   13eb4:	00000813          	li	a6,0
   13eb8:	04e12c23          	sw	a4,88(sp)
   13ebc:	07800d13          	li	s10,120
   13ec0:	f05ff06f          	j	13dc4 <_vfprintf_r+0x898>
   13ec4:	03112423          	sw	a7,40(sp)
   13ec8:	00058463          	beqz	a1,13ed0 <_vfprintf_r+0x9a4>
   13ecc:	18c0106f          	j	15058 <_vfprintf_r+0x1b2c>
   13ed0:	980d02e3          	beqz	s10,13854 <_vfprintf_r+0x328>
   13ed4:	00100793          	li	a5,1
   13ed8:	02f12223          	sw	a5,36(sp)
   13edc:	09a10c23          	sb	s10,152(sp)
   13ee0:	060107a3          	sb	zero,111(sp)
   13ee4:	02f12823          	sw	a5,48(sp)
   13ee8:	09810a13          	addi	s4,sp,152
   13eec:	00000413          	li	s0,0
   13ef0:	a91ff06f          	j	13980 <_vfprintf_r+0x454>
   13ef4:	02e12a23          	sw	a4,52(sp)
   13ef8:	0001c737          	lui	a4,0x1c
   13efc:	2f870713          	addi	a4,a4,760 # 1c2f8 <zeroes.3949+0x3c>
   13f00:	00058a93          	mv	s5,a1
   13f04:	04e12c23          	sw	a4,88(sp)
   13f08:	07800d13          	li	s10,120
   13f0c:	62079263          	bnez	a5,14530 <_vfprintf_r+0x1004>
   13f10:	00000813          	li	a6,0
   13f14:	00200793          	li	a5,2
   13f18:	00100713          	li	a4,1
   13f1c:	3ee782e3          	beq	a5,a4,14b00 <_vfprintf_r+0x15d4>
   13f20:	00200713          	li	a4,2
   13f24:	00e79463          	bne	a5,a4,13f2c <_vfprintf_r+0xa00>
   13f28:	1200106f          	j	15048 <_vfprintf_r+0x1b1c>
   13f2c:	00000793          	li	a5,0
   13f30:	9edff06f          	j	1391c <_vfprintf_r+0x3f0>
   13f34:	03412283          	lw	t0,52(sp)
   13f38:	0002a783          	lw	a5,0(t0)
   13f3c:	00428293          	addi	t0,t0,4
   13f40:	02512a23          	sw	t0,52(sp)
   13f44:	03812283          	lw	t0,56(sp)
   13f48:	0057a023          	sw	t0,0(a5)
   13f4c:	00094783          	lbu	a5,0(s2)
   13f50:	ee079263          	bnez	a5,13634 <_vfprintf_r+0x108>
   13f54:	00090413          	mv	s0,s2
   13f58:	f3cff06f          	j	13694 <_vfprintf_r+0x168>
   13f5c:	09412603          	lw	a2,148(sp)
   13f60:	09012783          	lw	a5,144(sp)
   13f64:	06f14703          	lbu	a4,111(sp)
   13f68:	02070863          	beqz	a4,13f98 <_vfprintf_r+0xa6c>
   13f6c:	06f10713          	addi	a4,sp,111
   13f70:	00e6a023          	sw	a4,0(a3)
   13f74:	00100713          	li	a4,1
   13f78:	00e6a223          	sw	a4,4(a3)
   13f7c:	00160613          	addi	a2,a2,1
   13f80:	00178793          	addi	a5,a5,1
   13f84:	00700713          	li	a4,7
   13f88:	08c12a23          	sw	a2,148(sp)
   13f8c:	08f12823          	sw	a5,144(sp)
   13f90:	00868693          	addi	a3,a3,8
   13f94:	54f74263          	blt	a4,a5,144d8 <_vfprintf_r+0xfac>
   13f98:	02c12703          	lw	a4,44(sp)
   13f9c:	02070863          	beqz	a4,13fcc <_vfprintf_r+0xaa0>
   13fa0:	07010713          	addi	a4,sp,112
   13fa4:	00e6a023          	sw	a4,0(a3)
   13fa8:	00200713          	li	a4,2
   13fac:	00e6a223          	sw	a4,4(a3)
   13fb0:	00260613          	addi	a2,a2,2
   13fb4:	00178793          	addi	a5,a5,1
   13fb8:	00700713          	li	a4,7
   13fbc:	08c12a23          	sw	a2,148(sp)
   13fc0:	08f12823          	sw	a5,144(sp)
   13fc4:	00868693          	addi	a3,a3,8
   13fc8:	52f74a63          	blt	a4,a5,144fc <_vfprintf_r+0xfd0>
   13fcc:	03c12283          	lw	t0,60(sp)
   13fd0:	08000713          	li	a4,128
   13fd4:	30e28e63          	beq	t0,a4,142f0 <_vfprintf_r+0xdc4>
   13fd8:	03012703          	lw	a4,48(sp)
   13fdc:	40e40433          	sub	s0,s0,a4
   13fe0:	0a805a63          	blez	s0,14094 <_vfprintf_r+0xb68>
   13fe4:	01000713          	li	a4,16
   13fe8:	03912623          	sw	s9,44(sp)
   13fec:	06875063          	ble	s0,a4,1404c <_vfprintf_r+0xb20>
   13ff0:	00070493          	mv	s1,a4
   13ff4:	00700d93          	li	s11,7
   13ff8:	00c0006f          	j	14004 <_vfprintf_r+0xad8>
   13ffc:	ff040413          	addi	s0,s0,-16
   14000:	0484d663          	ble	s0,s1,1404c <_vfprintf_r+0xb20>
   14004:	01060613          	addi	a2,a2,16
   14008:	00178793          	addi	a5,a5,1
   1400c:	0196a023          	sw	s9,0(a3)
   14010:	0096a223          	sw	s1,4(a3)
   14014:	08c12a23          	sw	a2,148(sp)
   14018:	08f12823          	sw	a5,144(sp)
   1401c:	00868693          	addi	a3,a3,8
   14020:	fcfddee3          	ble	a5,s11,13ffc <_vfprintf_r+0xad0>
   14024:	08c10613          	addi	a2,sp,140
   14028:	00098593          	mv	a1,s3
   1402c:	000b0513          	mv	a0,s6
   14030:	4c1050ef          	jal	19cf0 <__sprint_r>
   14034:	82051ce3          	bnez	a0,1386c <_vfprintf_r+0x340>
   14038:	ff040413          	addi	s0,s0,-16
   1403c:	09412603          	lw	a2,148(sp)
   14040:	09012783          	lw	a5,144(sp)
   14044:	000b8693          	mv	a3,s7
   14048:	fa84cee3          	blt	s1,s0,14004 <_vfprintf_r+0xad8>
   1404c:	02c12283          	lw	t0,44(sp)
   14050:	00860633          	add	a2,a2,s0
   14054:	00178793          	addi	a5,a5,1
   14058:	00700713          	li	a4,7
   1405c:	0056a023          	sw	t0,0(a3)
   14060:	0086a223          	sw	s0,4(a3)
   14064:	08c12a23          	sw	a2,148(sp)
   14068:	08f12823          	sw	a5,144(sp)
   1406c:	00868693          	addi	a3,a3,8
   14070:	02f75263          	ble	a5,a4,14094 <_vfprintf_r+0xb68>
   14074:	08c10613          	addi	a2,sp,140
   14078:	00098593          	mv	a1,s3
   1407c:	000b0513          	mv	a0,s6
   14080:	471050ef          	jal	19cf0 <__sprint_r>
   14084:	fe051463          	bnez	a0,1386c <_vfprintf_r+0x340>
   14088:	09412603          	lw	a2,148(sp)
   1408c:	09012783          	lw	a5,144(sp)
   14090:	000b8693          	mv	a3,s7
   14094:	100af713          	andi	a4,s5,256
   14098:	14071c63          	bnez	a4,141f0 <_vfprintf_r+0xcc4>
   1409c:	03012283          	lw	t0,48(sp)
   140a0:	00178793          	addi	a5,a5,1
   140a4:	0146a023          	sw	s4,0(a3)
   140a8:	00560733          	add	a4,a2,t0
   140ac:	00700613          	li	a2,7
   140b0:	0056a223          	sw	t0,4(a3)
   140b4:	08e12a23          	sw	a4,148(sp)
   140b8:	08f12823          	sw	a5,144(sp)
   140bc:	10f64a63          	blt	a2,a5,141d0 <_vfprintf_r+0xca4>
   140c0:	00868693          	addi	a3,a3,8
   140c4:	004afa93          	andi	s5,s5,4
   140c8:	0a0a8c63          	beqz	s5,14180 <_vfprintf_r+0xc54>
   140cc:	02812283          	lw	t0,40(sp)
   140d0:	02412783          	lw	a5,36(sp)
   140d4:	40f28433          	sub	s0,t0,a5
   140d8:	0a805463          	blez	s0,14180 <_vfprintf_r+0xc54>
   140dc:	01000a13          	li	s4,16
   140e0:	09012783          	lw	a5,144(sp)
   140e4:	05812423          	sw	s8,72(sp)
   140e8:	048a5e63          	ble	s0,s4,14144 <_vfprintf_r+0xc18>
   140ec:	00700a93          	li	s5,7
   140f0:	00c0006f          	j	140fc <_vfprintf_r+0xbd0>
   140f4:	ff040413          	addi	s0,s0,-16
   140f8:	048a5663          	ble	s0,s4,14144 <_vfprintf_r+0xc18>
   140fc:	01070713          	addi	a4,a4,16
   14100:	00178793          	addi	a5,a5,1
   14104:	0186a023          	sw	s8,0(a3)
   14108:	0146a223          	sw	s4,4(a3)
   1410c:	08e12a23          	sw	a4,148(sp)
   14110:	08f12823          	sw	a5,144(sp)
   14114:	00868693          	addi	a3,a3,8
   14118:	fcfadee3          	ble	a5,s5,140f4 <_vfprintf_r+0xbc8>
   1411c:	08c10613          	addi	a2,sp,140
   14120:	00098593          	mv	a1,s3
   14124:	000b0513          	mv	a0,s6
   14128:	3c9050ef          	jal	19cf0 <__sprint_r>
   1412c:	f4051063          	bnez	a0,1386c <_vfprintf_r+0x340>
   14130:	ff040413          	addi	s0,s0,-16
   14134:	09412703          	lw	a4,148(sp)
   14138:	09012783          	lw	a5,144(sp)
   1413c:	000b8693          	mv	a3,s7
   14140:	fa8a4ee3          	blt	s4,s0,140fc <_vfprintf_r+0xbd0>
   14144:	04812283          	lw	t0,72(sp)
   14148:	00870733          	add	a4,a4,s0
   1414c:	00178793          	addi	a5,a5,1
   14150:	0056a023          	sw	t0,0(a3)
   14154:	0086a223          	sw	s0,4(a3)
   14158:	00700693          	li	a3,7
   1415c:	08e12a23          	sw	a4,148(sp)
   14160:	08f12823          	sw	a5,144(sp)
   14164:	00f6de63          	ble	a5,a3,14180 <_vfprintf_r+0xc54>
   14168:	08c10613          	addi	a2,sp,140
   1416c:	00098593          	mv	a1,s3
   14170:	000b0513          	mv	a0,s6
   14174:	37d050ef          	jal	19cf0 <__sprint_r>
   14178:	ee051a63          	bnez	a0,1386c <_vfprintf_r+0x340>
   1417c:	09412703          	lw	a4,148(sp)
   14180:	02812483          	lw	s1,40(sp)
   14184:	02412683          	lw	a3,36(sp)
   14188:	00d4d463          	ble	a3,s1,14190 <_vfprintf_r+0xc64>
   1418c:	00068493          	mv	s1,a3
   14190:	03812283          	lw	t0,56(sp)
   14194:	009282b3          	add	t0,t0,s1
   14198:	02512c23          	sw	t0,56(sp)
   1419c:	20071e63          	bnez	a4,143b8 <_vfprintf_r+0xe8c>
   141a0:	08012823          	sw	zero,144(sp)
   141a4:	000b8693          	mv	a3,s7
   141a8:	c84ff06f          	j	1362c <_vfprintf_r+0x100>
   141ac:	02c12283          	lw	t0,44(sp)
   141b0:	00870733          	add	a4,a4,s0
   141b4:	00178793          	addi	a5,a5,1
   141b8:	0056a023          	sw	t0,0(a3)
   141bc:	00700613          	li	a2,7
   141c0:	0086a223          	sw	s0,4(a3)
   141c4:	08e12a23          	sw	a4,148(sp)
   141c8:	08f12823          	sw	a5,144(sp)
   141cc:	eef65ae3          	ble	a5,a2,140c0 <_vfprintf_r+0xb94>
   141d0:	08c10613          	addi	a2,sp,140
   141d4:	00098593          	mv	a1,s3
   141d8:	000b0513          	mv	a0,s6
   141dc:	315050ef          	jal	19cf0 <__sprint_r>
   141e0:	e8051663          	bnez	a0,1386c <_vfprintf_r+0x340>
   141e4:	09412703          	lw	a4,148(sp)
   141e8:	000b8693          	mv	a3,s7
   141ec:	ed9ff06f          	j	140c4 <_vfprintf_r+0xb98>
   141f0:	06500713          	li	a4,101
   141f4:	1da75e63          	ble	s10,a4,143d0 <_vfprintf_r+0xea4>
   141f8:	05013087          	fld	ft1,80(sp)
   141fc:	d2000053          	fcvt.d.w	ft0,zero
   14200:	a200a753          	feq.d	a4,ft1,ft0
   14204:	32070a63          	beqz	a4,14538 <_vfprintf_r+0x100c>
   14208:	00160713          	addi	a4,a2,1
   1420c:	0001c2b7          	lui	t0,0x1c
   14210:	00100613          	li	a2,1
   14214:	00c6a223          	sw	a2,4(a3)
   14218:	00178793          	addi	a5,a5,1
   1421c:	31428293          	addi	t0,t0,788 # 1c314 <zeroes.3949+0x58>
   14220:	00700613          	li	a2,7
   14224:	0056a023          	sw	t0,0(a3)
   14228:	08e12a23          	sw	a4,148(sp)
   1422c:	08f12823          	sw	a5,144(sp)
   14230:	00868693          	addi	a3,a3,8
   14234:	74f64263          	blt	a2,a5,14978 <_vfprintf_r+0x144c>
   14238:	07412783          	lw	a5,116(sp)
   1423c:	04412283          	lw	t0,68(sp)
   14240:	0057c663          	blt	a5,t0,1424c <_vfprintf_r+0xd20>
   14244:	001af793          	andi	a5,s5,1
   14248:	e6078ee3          	beqz	a5,140c4 <_vfprintf_r+0xb98>
   1424c:	04c12283          	lw	t0,76(sp)
   14250:	09012783          	lw	a5,144(sp)
   14254:	00700613          	li	a2,7
   14258:	00570733          	add	a4,a4,t0
   1425c:	04012283          	lw	t0,64(sp)
   14260:	00178793          	addi	a5,a5,1
   14264:	08e12a23          	sw	a4,148(sp)
   14268:	0056a023          	sw	t0,0(a3)
   1426c:	04c12283          	lw	t0,76(sp)
   14270:	08f12823          	sw	a5,144(sp)
   14274:	00868693          	addi	a3,a3,8
   14278:	fe56ae23          	sw	t0,-4(a3)
   1427c:	08f64ae3          	blt	a2,a5,14b10 <_vfprintf_r+0x15e4>
   14280:	04412783          	lw	a5,68(sp)
   14284:	fff78413          	addi	s0,a5,-1
   14288:	e2805ee3          	blez	s0,140c4 <_vfprintf_r+0xb98>
   1428c:	01000a13          	li	s4,16
   14290:	09012783          	lw	a5,144(sp)
   14294:	03912623          	sw	s9,44(sp)
   14298:	f08a5ae3          	ble	s0,s4,141ac <_vfprintf_r+0xc80>
   1429c:	00700d13          	li	s10,7
   142a0:	00c0006f          	j	142ac <_vfprintf_r+0xd80>
   142a4:	ff040413          	addi	s0,s0,-16
   142a8:	f08a52e3          	ble	s0,s4,141ac <_vfprintf_r+0xc80>
   142ac:	01070713          	addi	a4,a4,16
   142b0:	00178793          	addi	a5,a5,1
   142b4:	0196a023          	sw	s9,0(a3)
   142b8:	0146a223          	sw	s4,4(a3)
   142bc:	08e12a23          	sw	a4,148(sp)
   142c0:	08f12823          	sw	a5,144(sp)
   142c4:	00868693          	addi	a3,a3,8
   142c8:	fcfd5ee3          	ble	a5,s10,142a4 <_vfprintf_r+0xd78>
   142cc:	08c10613          	addi	a2,sp,140
   142d0:	00098593          	mv	a1,s3
   142d4:	000b0513          	mv	a0,s6
   142d8:	219050ef          	jal	19cf0 <__sprint_r>
   142dc:	d8051863          	bnez	a0,1386c <_vfprintf_r+0x340>
   142e0:	09412703          	lw	a4,148(sp)
   142e4:	09012783          	lw	a5,144(sp)
   142e8:	000b8693          	mv	a3,s7
   142ec:	fb9ff06f          	j	142a4 <_vfprintf_r+0xd78>
   142f0:	02812283          	lw	t0,40(sp)
   142f4:	02412703          	lw	a4,36(sp)
   142f8:	40e284b3          	sub	s1,t0,a4
   142fc:	cc905ee3          	blez	s1,13fd8 <_vfprintf_r+0xaac>
   14300:	01000893          	li	a7,16
   14304:	03912623          	sw	s9,44(sp)
   14308:	0698d263          	ble	s1,a7,1436c <_vfprintf_r+0xe40>
   1430c:	00700d93          	li	s11,7
   14310:	00c0006f          	j	1431c <_vfprintf_r+0xdf0>
   14314:	ff048493          	addi	s1,s1,-16
   14318:	0498da63          	ble	s1,a7,1436c <_vfprintf_r+0xe40>
   1431c:	01060613          	addi	a2,a2,16
   14320:	00178793          	addi	a5,a5,1
   14324:	0196a023          	sw	s9,0(a3)
   14328:	0116a223          	sw	a7,4(a3)
   1432c:	08c12a23          	sw	a2,148(sp)
   14330:	08f12823          	sw	a5,144(sp)
   14334:	00868693          	addi	a3,a3,8
   14338:	fcfddee3          	ble	a5,s11,14314 <_vfprintf_r+0xde8>
   1433c:	08c10613          	addi	a2,sp,140
   14340:	00098593          	mv	a1,s3
   14344:	000b0513          	mv	a0,s6
   14348:	03112023          	sw	a7,32(sp)
   1434c:	1a5050ef          	jal	19cf0 <__sprint_r>
   14350:	02012883          	lw	a7,32(sp)
   14354:	d0051c63          	bnez	a0,1386c <_vfprintf_r+0x340>
   14358:	ff048493          	addi	s1,s1,-16
   1435c:	09412603          	lw	a2,148(sp)
   14360:	09012783          	lw	a5,144(sp)
   14364:	000b8693          	mv	a3,s7
   14368:	fa98cae3          	blt	a7,s1,1431c <_vfprintf_r+0xdf0>
   1436c:	02c12283          	lw	t0,44(sp)
   14370:	00960633          	add	a2,a2,s1
   14374:	00178793          	addi	a5,a5,1
   14378:	00700713          	li	a4,7
   1437c:	0056a023          	sw	t0,0(a3)
   14380:	0096a223          	sw	s1,4(a3)
   14384:	08c12a23          	sw	a2,148(sp)
   14388:	08f12823          	sw	a5,144(sp)
   1438c:	00868693          	addi	a3,a3,8
   14390:	c4f754e3          	ble	a5,a4,13fd8 <_vfprintf_r+0xaac>
   14394:	08c10613          	addi	a2,sp,140
   14398:	00098593          	mv	a1,s3
   1439c:	000b0513          	mv	a0,s6
   143a0:	151050ef          	jal	19cf0 <__sprint_r>
   143a4:	cc051463          	bnez	a0,1386c <_vfprintf_r+0x340>
   143a8:	09412603          	lw	a2,148(sp)
   143ac:	09012783          	lw	a5,144(sp)
   143b0:	000b8693          	mv	a3,s7
   143b4:	c25ff06f          	j	13fd8 <_vfprintf_r+0xaac>
   143b8:	08c10613          	addi	a2,sp,140
   143bc:	00098593          	mv	a1,s3
   143c0:	000b0513          	mv	a0,s6
   143c4:	12d050ef          	jal	19cf0 <__sprint_r>
   143c8:	dc050ce3          	beqz	a0,141a0 <_vfprintf_r+0xc74>
   143cc:	ca0ff06f          	j	1386c <_vfprintf_r+0x340>
   143d0:	04412703          	lw	a4,68(sp)
   143d4:	00100593          	li	a1,1
   143d8:	0ae5da63          	ble	a4,a1,1448c <_vfprintf_r+0xf60>
   143dc:	00160713          	addi	a4,a2,1
   143e0:	00100613          	li	a2,1
   143e4:	00c6a223          	sw	a2,4(a3)
   143e8:	00178793          	addi	a5,a5,1
   143ec:	00700613          	li	a2,7
   143f0:	0146a023          	sw	s4,0(a3)
   143f4:	08e12a23          	sw	a4,148(sp)
   143f8:	08f12823          	sw	a5,144(sp)
   143fc:	00868693          	addi	a3,a3,8
   14400:	26f64a63          	blt	a2,a5,14674 <_vfprintf_r+0x1148>
   14404:	04c12283          	lw	t0,76(sp)
   14408:	00178793          	addi	a5,a5,1
   1440c:	00700613          	li	a2,7
   14410:	00570733          	add	a4,a4,t0
   14414:	04012283          	lw	t0,64(sp)
   14418:	08e12a23          	sw	a4,148(sp)
   1441c:	08f12823          	sw	a5,144(sp)
   14420:	0056a023          	sw	t0,0(a3)
   14424:	04c12283          	lw	t0,76(sp)
   14428:	00868693          	addi	a3,a3,8
   1442c:	fe56ae23          	sw	t0,-4(a3)
   14430:	26f64c63          	blt	a2,a5,146a8 <_vfprintf_r+0x117c>
   14434:	05013087          	fld	ft1,80(sp)
   14438:	d2000053          	fcvt.d.w	ft0,zero
   1443c:	04412283          	lw	t0,68(sp)
   14440:	a200a5d3          	feq.d	a1,ft1,ft0
   14444:	1a059c63          	bnez	a1,145fc <_vfprintf_r+0x10d0>
   14448:	fff28613          	addi	a2,t0,-1
   1444c:	00c70733          	add	a4,a4,a2
   14450:	001a0a13          	addi	s4,s4,1
   14454:	00178793          	addi	a5,a5,1
   14458:	00c6a223          	sw	a2,4(a3)
   1445c:	00700613          	li	a2,7
   14460:	0146a023          	sw	s4,0(a3)
   14464:	08e12a23          	sw	a4,148(sp)
   14468:	08f12823          	sw	a5,144(sp)
   1446c:	04f64463          	blt	a2,a5,144b4 <_vfprintf_r+0xf88>
   14470:	00868693          	addi	a3,a3,8
   14474:	05c12283          	lw	t0,92(sp)
   14478:	07c10613          	addi	a2,sp,124
   1447c:	00178793          	addi	a5,a5,1
   14480:	00e28733          	add	a4,t0,a4
   14484:	00c6a023          	sw	a2,0(a3)
   14488:	c25ff06f          	j	140ac <_vfprintf_r+0xb80>
   1448c:	00baf733          	and	a4,s5,a1
   14490:	f40716e3          	bnez	a4,143dc <_vfprintf_r+0xeb0>
   14494:	00160713          	addi	a4,a2,1
   14498:	00178793          	addi	a5,a5,1
   1449c:	00700613          	li	a2,7
   144a0:	0146a023          	sw	s4,0(a3)
   144a4:	00b6a223          	sw	a1,4(a3)
   144a8:	08e12a23          	sw	a4,148(sp)
   144ac:	08f12823          	sw	a5,144(sp)
   144b0:	fcf650e3          	ble	a5,a2,14470 <_vfprintf_r+0xf44>
   144b4:	08c10613          	addi	a2,sp,140
   144b8:	00098593          	mv	a1,s3
   144bc:	000b0513          	mv	a0,s6
   144c0:	031050ef          	jal	19cf0 <__sprint_r>
   144c4:	ba051463          	bnez	a0,1386c <_vfprintf_r+0x340>
   144c8:	09412703          	lw	a4,148(sp)
   144cc:	09012783          	lw	a5,144(sp)
   144d0:	000b8693          	mv	a3,s7
   144d4:	fa1ff06f          	j	14474 <_vfprintf_r+0xf48>
   144d8:	08c10613          	addi	a2,sp,140
   144dc:	00098593          	mv	a1,s3
   144e0:	000b0513          	mv	a0,s6
   144e4:	00d050ef          	jal	19cf0 <__sprint_r>
   144e8:	b8051263          	bnez	a0,1386c <_vfprintf_r+0x340>
   144ec:	09412603          	lw	a2,148(sp)
   144f0:	09012783          	lw	a5,144(sp)
   144f4:	000b8693          	mv	a3,s7
   144f8:	aa1ff06f          	j	13f98 <_vfprintf_r+0xa6c>
   144fc:	08c10613          	addi	a2,sp,140
   14500:	00098593          	mv	a1,s3
   14504:	000b0513          	mv	a0,s6
   14508:	7e8050ef          	jal	19cf0 <__sprint_r>
   1450c:	b6051063          	bnez	a0,1386c <_vfprintf_r+0x340>
   14510:	09412603          	lw	a2,148(sp)
   14514:	09012783          	lw	a5,144(sp)
   14518:	000b8693          	mv	a3,s7
   1451c:	ab1ff06f          	j	13fcc <_vfprintf_r+0xaa0>
   14520:	060107a3          	sb	zero,111(sp)
   14524:	9e0444e3          	bltz	s0,13f0c <_vfprintf_r+0x9e0>
   14528:	f7fafa93          	andi	s5,s5,-129
   1452c:	a2078c63          	beqz	a5,13764 <_vfprintf_r+0x238>
   14530:	00000813          	li	a6,0
   14534:	891ff06f          	j	13dc4 <_vfprintf_r+0x898>
   14538:	07412403          	lw	s0,116(sp)
   1453c:	46805063          	blez	s0,1499c <_vfprintf_r+0x1470>
   14540:	04412703          	lw	a4,68(sp)
   14544:	34e44a63          	blt	s0,a4,14898 <_vfprintf_r+0x136c>
   14548:	04412283          	lw	t0,68(sp)
   1454c:	00e60733          	add	a4,a2,a4
   14550:	00178793          	addi	a5,a5,1
   14554:	00700613          	li	a2,7
   14558:	0146a023          	sw	s4,0(a3)
   1455c:	0056a223          	sw	t0,4(a3)
   14560:	08e12a23          	sw	a4,148(sp)
   14564:	08f12823          	sw	a5,144(sp)
   14568:	00868693          	addi	a3,a3,8
   1456c:	6af64063          	blt	a2,a5,14c0c <_vfprintf_r+0x16e0>
   14570:	04412783          	lw	a5,68(sp)
   14574:	40f40433          	sub	s0,s0,a5
   14578:	3c805c63          	blez	s0,14950 <_vfprintf_r+0x1424>
   1457c:	01000a13          	li	s4,16
   14580:	09012783          	lw	a5,144(sp)
   14584:	03912623          	sw	s9,44(sp)
   14588:	388a5063          	ble	s0,s4,14908 <_vfprintf_r+0x13dc>
   1458c:	00700d13          	li	s10,7
   14590:	00c0006f          	j	1459c <_vfprintf_r+0x1070>
   14594:	ff040413          	addi	s0,s0,-16
   14598:	368a5863          	ble	s0,s4,14908 <_vfprintf_r+0x13dc>
   1459c:	01070713          	addi	a4,a4,16
   145a0:	00178793          	addi	a5,a5,1
   145a4:	0196a023          	sw	s9,0(a3)
   145a8:	0146a223          	sw	s4,4(a3)
   145ac:	08e12a23          	sw	a4,148(sp)
   145b0:	08f12823          	sw	a5,144(sp)
   145b4:	00868693          	addi	a3,a3,8
   145b8:	fcfd5ee3          	ble	a5,s10,14594 <_vfprintf_r+0x1068>
   145bc:	08c10613          	addi	a2,sp,140
   145c0:	00098593          	mv	a1,s3
   145c4:	000b0513          	mv	a0,s6
   145c8:	728050ef          	jal	19cf0 <__sprint_r>
   145cc:	aa051063          	bnez	a0,1386c <_vfprintf_r+0x340>
   145d0:	09412703          	lw	a4,148(sp)
   145d4:	09012783          	lw	a5,144(sp)
   145d8:	000b8693          	mv	a3,s7
   145dc:	fb9ff06f          	j	14594 <_vfprintf_r+0x1068>
   145e0:	040af793          	andi	a5,s5,64
   145e4:	03412283          	lw	t0,52(sp)
   145e8:	28078063          	beqz	a5,14868 <_vfprintf_r+0x133c>
   145ec:	00029783          	lh	a5,0(t0)
   145f0:	00428293          	addi	t0,t0,4
   145f4:	02512a23          	sw	t0,52(sp)
   145f8:	e14ff06f          	j	13c0c <_vfprintf_r+0x6e0>
   145fc:	fff28413          	addi	s0,t0,-1
   14600:	e6805ae3          	blez	s0,14474 <_vfprintf_r+0xf48>
   14604:	01000a13          	li	s4,16
   14608:	03912623          	sw	s9,44(sp)
   1460c:	0c8a5063          	ble	s0,s4,146cc <_vfprintf_r+0x11a0>
   14610:	00700d13          	li	s10,7
   14614:	00c0006f          	j	14620 <_vfprintf_r+0x10f4>
   14618:	ff040413          	addi	s0,s0,-16
   1461c:	0a8a5863          	ble	s0,s4,146cc <_vfprintf_r+0x11a0>
   14620:	01070713          	addi	a4,a4,16
   14624:	00178793          	addi	a5,a5,1
   14628:	0196a023          	sw	s9,0(a3)
   1462c:	0146a223          	sw	s4,4(a3)
   14630:	08e12a23          	sw	a4,148(sp)
   14634:	08f12823          	sw	a5,144(sp)
   14638:	00868693          	addi	a3,a3,8
   1463c:	fcfd5ee3          	ble	a5,s10,14618 <_vfprintf_r+0x10ec>
   14640:	08c10613          	addi	a2,sp,140
   14644:	00098593          	mv	a1,s3
   14648:	000b0513          	mv	a0,s6
   1464c:	6a4050ef          	jal	19cf0 <__sprint_r>
   14650:	a0051e63          	bnez	a0,1386c <_vfprintf_r+0x340>
   14654:	09412703          	lw	a4,148(sp)
   14658:	09012783          	lw	a5,144(sp)
   1465c:	000b8693          	mv	a3,s7
   14660:	fb9ff06f          	j	14618 <_vfprintf_r+0x10ec>
   14664:	0002a783          	lw	a5,0(t0)
   14668:	060107a3          	sb	zero,111(sp)
   1466c:	ce045c63          	bgez	s0,13b64 <_vfprintf_r+0x638>
   14670:	ee0ff06f          	j	13d50 <_vfprintf_r+0x824>
   14674:	08c10613          	addi	a2,sp,140
   14678:	00098593          	mv	a1,s3
   1467c:	000b0513          	mv	a0,s6
   14680:	670050ef          	jal	19cf0 <__sprint_r>
   14684:	9e051463          	bnez	a0,1386c <_vfprintf_r+0x340>
   14688:	09412703          	lw	a4,148(sp)
   1468c:	09012783          	lw	a5,144(sp)
   14690:	000b8693          	mv	a3,s7
   14694:	d71ff06f          	j	14404 <_vfprintf_r+0xed8>
   14698:	0002a783          	lw	a5,0(t0)
   1469c:	060107a3          	sb	zero,111(sp)
   146a0:	a6045063          	bgez	s0,13900 <_vfprintf_r+0x3d4>
   146a4:	e64ff06f          	j	13d08 <_vfprintf_r+0x7dc>
   146a8:	08c10613          	addi	a2,sp,140
   146ac:	00098593          	mv	a1,s3
   146b0:	000b0513          	mv	a0,s6
   146b4:	63c050ef          	jal	19cf0 <__sprint_r>
   146b8:	9a051a63          	bnez	a0,1386c <_vfprintf_r+0x340>
   146bc:	09412703          	lw	a4,148(sp)
   146c0:	09012783          	lw	a5,144(sp)
   146c4:	000b8693          	mv	a3,s7
   146c8:	d6dff06f          	j	14434 <_vfprintf_r+0xf08>
   146cc:	02c12283          	lw	t0,44(sp)
   146d0:	00870733          	add	a4,a4,s0
   146d4:	00178793          	addi	a5,a5,1
   146d8:	00700613          	li	a2,7
   146dc:	0056a023          	sw	t0,0(a3)
   146e0:	0086a223          	sw	s0,4(a3)
   146e4:	08e12a23          	sw	a4,148(sp)
   146e8:	08f12823          	sw	a5,144(sp)
   146ec:	d8f652e3          	ble	a5,a2,14470 <_vfprintf_r+0xf44>
   146f0:	dc5ff06f          	j	144b4 <_vfprintf_r+0xf88>
   146f4:	02d00713          	li	a4,45
   146f8:	40f007b3          	neg	a5,a5
   146fc:	06e107a3          	sb	a4,111(sp)
   14700:	4a044e63          	bltz	s0,14bbc <_vfprintf_r+0x1690>
   14704:	f7fafa93          	andi	s5,s5,-129
   14708:	02d00813          	li	a6,45
   1470c:	c68ff06f          	j	13b74 <_vfprintf_r+0x648>
   14710:	05013507          	fld	fa0,80(sp)
   14714:	00d12e23          	sw	a3,28(sp)
   14718:	31c050ef          	jal	19a34 <__fpclassifyd>
   1471c:	01c12683          	lw	a3,28(sp)
   14720:	36050063          	beqz	a0,14a80 <_vfprintf_r+0x1554>
   14724:	fff00793          	li	a5,-1
   14728:	fdfd7d93          	andi	s11,s10,-33
   1472c:	6cf40663          	beq	s0,a5,14df8 <_vfprintf_r+0x18cc>
   14730:	04700793          	li	a5,71
   14734:	66fd8463          	beq	s11,a5,14d9c <_vfprintf_r+0x1870>
   14738:	05412783          	lw	a5,84(sp)
   1473c:	100ae293          	ori	t0,s5,256
   14740:	02512623          	sw	t0,44(sp)
   14744:	05013407          	fld	fs0,80(sp)
   14748:	00000493          	li	s1,0
   1474c:	7007c263          	bltz	a5,14e50 <_vfprintf_r+0x1924>
   14750:	06600793          	li	a5,102
   14754:	6afd0663          	beq	s10,a5,14e00 <_vfprintf_r+0x18d4>
   14758:	04600793          	li	a5,70
   1475c:	72fd0063          	beq	s10,a5,14e7c <_vfprintf_r+0x1950>
   14760:	fbbd8593          	addi	a1,s11,-69
   14764:	0015b593          	seqz	a1,a1
   14768:	00b405b3          	add	a1,s0,a1
   1476c:	08410793          	addi	a5,sp,132
   14770:	22840653          	fmv.d	fa2,fs0
   14774:	00f12023          	sw	a5,0(sp)
   14778:	07810893          	addi	a7,sp,120
   1477c:	00058793          	mv	a5,a1
   14780:	07410813          	addi	a6,sp,116
   14784:	00200713          	li	a4,2
   14788:	000b0513          	mv	a0,s6
   1478c:	02b12023          	sw	a1,32(sp)
   14790:	00d12e23          	sw	a3,28(sp)
   14794:	05c010ef          	jal	157f0 <_dtoa_r>
   14798:	06700793          	li	a5,103
   1479c:	00050a13          	mv	s4,a0
   147a0:	02012583          	lw	a1,32(sp)
   147a4:	01c12683          	lw	a3,28(sp)
   147a8:	4afd0c63          	beq	s10,a5,14c60 <_vfprintf_r+0x1734>
   147ac:	04700793          	li	a5,71
   147b0:	00b50633          	add	a2,a0,a1
   147b4:	4cfd0863          	beq	s10,a5,14c84 <_vfprintf_r+0x1758>
   147b8:	d2000053          	fcvt.d.w	ft0,zero
   147bc:	00060793          	mv	a5,a2
   147c0:	a2042753          	feq.d	a4,fs0,ft0
   147c4:	02071263          	bnez	a4,147e8 <_vfprintf_r+0x12bc>
   147c8:	08412783          	lw	a5,132(sp)
   147cc:	00c7fe63          	bleu	a2,a5,147e8 <_vfprintf_r+0x12bc>
   147d0:	03000593          	li	a1,48
   147d4:	00178713          	addi	a4,a5,1
   147d8:	08e12223          	sw	a4,132(sp)
   147dc:	00b78023          	sb	a1,0(a5)
   147e0:	08412783          	lw	a5,132(sp)
   147e4:	fec7e8e3          	bltu	a5,a2,147d4 <_vfprintf_r+0x12a8>
   147e8:	414787b3          	sub	a5,a5,s4
   147ec:	04f12223          	sw	a5,68(sp)
   147f0:	04700793          	li	a5,71
   147f4:	4afd8463          	beq	s11,a5,14c9c <_vfprintf_r+0x1770>
   147f8:	06500793          	li	a5,101
   147fc:	07a7d6e3          	ble	s10,a5,15068 <_vfprintf_r+0x1b3c>
   14800:	06600793          	li	a5,102
   14804:	64fd0c63          	beq	s10,a5,14e5c <_vfprintf_r+0x1930>
   14808:	07412783          	lw	a5,116(sp)
   1480c:	02f12823          	sw	a5,48(sp)
   14810:	03012283          	lw	t0,48(sp)
   14814:	04412703          	lw	a4,68(sp)
   14818:	5ae2ce63          	blt	t0,a4,14dd4 <_vfprintf_r+0x18a8>
   1481c:	001afa93          	andi	s5,s5,1
   14820:	740a9863          	bnez	s5,14f70 <_vfprintf_r+0x1a44>
   14824:	00028793          	mv	a5,t0
   14828:	5c02c463          	bltz	t0,14df0 <_vfprintf_r+0x18c4>
   1482c:	02f12223          	sw	a5,36(sp)
   14830:	06700d13          	li	s10,103
   14834:	40048063          	beqz	s1,14c34 <_vfprintf_r+0x1708>
   14838:	02d00793          	li	a5,45
   1483c:	06f107a3          	sb	a5,111(sp)
   14840:	02c12a83          	lw	s5,44(sp)
   14844:	00000413          	li	s0,0
   14848:	92cff06f          	j	13974 <_vfprintf_r+0x448>
   1484c:	00728793          	addi	a5,t0,7
   14850:	ff87f793          	andi	a5,a5,-8
   14854:	0007b007          	fld	ft0,0(a5)
   14858:	00878793          	addi	a5,a5,8
   1485c:	02f12a23          	sw	a5,52(sp)
   14860:	04013827          	fsd	ft0,80(sp)
   14864:	c00ff06f          	j	13c64 <_vfprintf_r+0x738>
   14868:	0002a783          	lw	a5,0(t0)
   1486c:	00428293          	addi	t0,t0,4
   14870:	02512a23          	sw	t0,52(sp)
   14874:	b98ff06f          	j	13c0c <_vfprintf_r+0x6e0>
   14878:	0002a783          	lw	a5,0(t0)
   1487c:	00428293          	addi	t0,t0,4
   14880:	02512a23          	sw	t0,52(sp)
   14884:	d10ff06f          	j	13d94 <_vfprintf_r+0x868>
   14888:	060107a3          	sb	zero,111(sp)
   1488c:	e8044263          	bltz	s0,13f10 <_vfprintf_r+0x9e4>
   14890:	f7fafa93          	andi	s5,s5,-129
   14894:	ed1fe06f          	j	13764 <_vfprintf_r+0x238>
   14898:	00c40733          	add	a4,s0,a2
   1489c:	00178793          	addi	a5,a5,1
   148a0:	00700613          	li	a2,7
   148a4:	0146a023          	sw	s4,0(a3)
   148a8:	0086a223          	sw	s0,4(a3)
   148ac:	08e12a23          	sw	a4,148(sp)
   148b0:	08f12823          	sw	a5,144(sp)
   148b4:	00868693          	addi	a3,a3,8
   148b8:	42f64463          	blt	a2,a5,14ce0 <_vfprintf_r+0x17b4>
   148bc:	04c12283          	lw	t0,76(sp)
   148c0:	00178793          	addi	a5,a5,1
   148c4:	00700613          	li	a2,7
   148c8:	00570733          	add	a4,a4,t0
   148cc:	04012283          	lw	t0,64(sp)
   148d0:	008a0a33          	add	s4,s4,s0
   148d4:	08e12a23          	sw	a4,148(sp)
   148d8:	0056a023          	sw	t0,0(a3)
   148dc:	04c12283          	lw	t0,76(sp)
   148e0:	08f12823          	sw	a5,144(sp)
   148e4:	00868693          	addi	a3,a3,8
   148e8:	fe56ae23          	sw	t0,-4(a3)
   148ec:	3cf64463          	blt	a2,a5,14cb4 <_vfprintf_r+0x1788>
   148f0:	04412283          	lw	t0,68(sp)
   148f4:	00178793          	addi	a5,a5,1
   148f8:	0146a023          	sw	s4,0(a3)
   148fc:	40828433          	sub	s0,t0,s0
   14900:	00e40733          	add	a4,s0,a4
   14904:	8b9ff06f          	j	141bc <_vfprintf_r+0xc90>
   14908:	02c12283          	lw	t0,44(sp)
   1490c:	00870733          	add	a4,a4,s0
   14910:	00178793          	addi	a5,a5,1
   14914:	00700613          	li	a2,7
   14918:	0056a023          	sw	t0,0(a3)
   1491c:	0086a223          	sw	s0,4(a3)
   14920:	08e12a23          	sw	a4,148(sp)
   14924:	08f12823          	sw	a5,144(sp)
   14928:	00868693          	addi	a3,a3,8
   1492c:	02f65263          	ble	a5,a2,14950 <_vfprintf_r+0x1424>
   14930:	08c10613          	addi	a2,sp,140
   14934:	00098593          	mv	a1,s3
   14938:	000b0513          	mv	a0,s6
   1493c:	3b4050ef          	jal	19cf0 <__sprint_r>
   14940:	00050463          	beqz	a0,14948 <_vfprintf_r+0x141c>
   14944:	f29fe06f          	j	1386c <_vfprintf_r+0x340>
   14948:	09412703          	lw	a4,148(sp)
   1494c:	000b8693          	mv	a3,s7
   14950:	001af793          	andi	a5,s5,1
   14954:	f6078863          	beqz	a5,140c4 <_vfprintf_r+0xb98>
   14958:	04c12283          	lw	t0,76(sp)
   1495c:	09012783          	lw	a5,144(sp)
   14960:	00570733          	add	a4,a4,t0
   14964:	04012283          	lw	t0,64(sp)
   14968:	00178793          	addi	a5,a5,1
   1496c:	0056a023          	sw	t0,0(a3)
   14970:	04c12283          	lw	t0,76(sp)
   14974:	f38ff06f          	j	140ac <_vfprintf_r+0xb80>
   14978:	08c10613          	addi	a2,sp,140
   1497c:	00098593          	mv	a1,s3
   14980:	000b0513          	mv	a0,s6
   14984:	36c050ef          	jal	19cf0 <__sprint_r>
   14988:	00050463          	beqz	a0,14990 <_vfprintf_r+0x1464>
   1498c:	ee1fe06f          	j	1386c <_vfprintf_r+0x340>
   14990:	09412703          	lw	a4,148(sp)
   14994:	000b8693          	mv	a3,s7
   14998:	8a1ff06f          	j	14238 <_vfprintf_r+0xd0c>
   1499c:	00160713          	addi	a4,a2,1
   149a0:	0001c5b7          	lui	a1,0x1c
   149a4:	00100613          	li	a2,1
   149a8:	00c6a223          	sw	a2,4(a3)
   149ac:	00178793          	addi	a5,a5,1
   149b0:	31458593          	addi	a1,a1,788 # 1c314 <zeroes.3949+0x58>
   149b4:	00700613          	li	a2,7
   149b8:	00b6a023          	sw	a1,0(a3)
   149bc:	08e12a23          	sw	a4,148(sp)
   149c0:	08f12823          	sw	a5,144(sp)
   149c4:	00868693          	addi	a3,a3,8
   149c8:	10f64663          	blt	a2,a5,14ad4 <_vfprintf_r+0x15a8>
   149cc:	0e040a63          	beqz	s0,14ac0 <_vfprintf_r+0x1594>
   149d0:	04c12283          	lw	t0,76(sp)
   149d4:	09012783          	lw	a5,144(sp)
   149d8:	00700613          	li	a2,7
   149dc:	00570733          	add	a4,a4,t0
   149e0:	04012283          	lw	t0,64(sp)
   149e4:	00178793          	addi	a5,a5,1
   149e8:	08e12a23          	sw	a4,148(sp)
   149ec:	0056a023          	sw	t0,0(a3)
   149f0:	04c12283          	lw	t0,76(sp)
   149f4:	08f12823          	sw	a5,144(sp)
   149f8:	00868693          	addi	a3,a3,8
   149fc:	fe56ae23          	sw	t0,-4(a3)
   14a00:	3af64463          	blt	a2,a5,14da8 <_vfprintf_r+0x187c>
   14a04:	40800433          	neg	s0,s0
   14a08:	16805c63          	blez	s0,14b80 <_vfprintf_r+0x1654>
   14a0c:	01000d13          	li	s10,16
   14a10:	03912623          	sw	s9,44(sp)
   14a14:	128d5063          	ble	s0,s10,14b34 <_vfprintf_r+0x1608>
   14a18:	00700813          	li	a6,7
   14a1c:	00c0006f          	j	14a28 <_vfprintf_r+0x14fc>
   14a20:	ff040413          	addi	s0,s0,-16
   14a24:	108d5863          	ble	s0,s10,14b34 <_vfprintf_r+0x1608>
   14a28:	01070713          	addi	a4,a4,16
   14a2c:	00178793          	addi	a5,a5,1
   14a30:	0196a023          	sw	s9,0(a3)
   14a34:	01a6a223          	sw	s10,4(a3)
   14a38:	08e12a23          	sw	a4,148(sp)
   14a3c:	08f12823          	sw	a5,144(sp)
   14a40:	00868693          	addi	a3,a3,8
   14a44:	fcf85ee3          	ble	a5,a6,14a20 <_vfprintf_r+0x14f4>
   14a48:	08c10613          	addi	a2,sp,140
   14a4c:	00098593          	mv	a1,s3
   14a50:	000b0513          	mv	a0,s6
   14a54:	03012023          	sw	a6,32(sp)
   14a58:	298050ef          	jal	19cf0 <__sprint_r>
   14a5c:	02012803          	lw	a6,32(sp)
   14a60:	00050463          	beqz	a0,14a68 <_vfprintf_r+0x153c>
   14a64:	e09fe06f          	j	1386c <_vfprintf_r+0x340>
   14a68:	09412703          	lw	a4,148(sp)
   14a6c:	09012783          	lw	a5,144(sp)
   14a70:	000b8693          	mv	a3,s7
   14a74:	fadff06f          	j	14a20 <_vfprintf_r+0x14f4>
   14a78:	fff00513          	li	a0,-1
   14a7c:	e05fe06f          	j	13880 <_vfprintf_r+0x354>
   14a80:	04700793          	li	a5,71
   14a84:	1da7c063          	blt	a5,s10,14c44 <_vfprintf_r+0x1718>
   14a88:	0001ca37          	lui	s4,0x1c
   14a8c:	2dca0a13          	addi	s4,s4,732 # 1c2dc <zeroes.3949+0x20>
   14a90:	00300713          	li	a4,3
   14a94:	02e12223          	sw	a4,36(sp)
   14a98:	f7fafa93          	andi	s5,s5,-129
   14a9c:	06f14803          	lbu	a6,111(sp)
   14aa0:	02e12823          	sw	a4,48(sp)
   14aa4:	00000413          	li	s0,0
   14aa8:	ec9fe06f          	j	13970 <_vfprintf_r+0x444>
   14aac:	02a12823          	sw	a0,48(sp)
   14ab0:	86cff06f          	j	13b1c <_vfprintf_r+0x5f0>
   14ab4:	0001ca37          	lui	s4,0x1c
   14ab8:	2d4a0a13          	addi	s4,s4,724 # 1c2d4 <zeroes.3949+0x18>
   14abc:	9e8ff06f          	j	13ca4 <_vfprintf_r+0x778>
   14ac0:	04412783          	lw	a5,68(sp)
   14ac4:	f00796e3          	bnez	a5,149d0 <_vfprintf_r+0x14a4>
   14ac8:	001af793          	andi	a5,s5,1
   14acc:	de078c63          	beqz	a5,140c4 <_vfprintf_r+0xb98>
   14ad0:	f01ff06f          	j	149d0 <_vfprintf_r+0x14a4>
   14ad4:	08c10613          	addi	a2,sp,140
   14ad8:	00098593          	mv	a1,s3
   14adc:	000b0513          	mv	a0,s6
   14ae0:	210050ef          	jal	19cf0 <__sprint_r>
   14ae4:	00050463          	beqz	a0,14aec <_vfprintf_r+0x15c0>
   14ae8:	d85fe06f          	j	1386c <_vfprintf_r+0x340>
   14aec:	07412403          	lw	s0,116(sp)
   14af0:	09412703          	lw	a4,148(sp)
   14af4:	000b8693          	mv	a3,s7
   14af8:	ec041ce3          	bnez	s0,149d0 <_vfprintf_r+0x14a4>
   14afc:	fc5ff06f          	j	14ac0 <_vfprintf_r+0x1594>
   14b00:	0c010893          	addi	a7,sp,192
   14b04:	00000793          	li	a5,0
   14b08:	00088613          	mv	a2,a7
   14b0c:	894ff06f          	j	13ba0 <_vfprintf_r+0x674>
   14b10:	08c10613          	addi	a2,sp,140
   14b14:	00098593          	mv	a1,s3
   14b18:	000b0513          	mv	a0,s6
   14b1c:	1d4050ef          	jal	19cf0 <__sprint_r>
   14b20:	00050463          	beqz	a0,14b28 <_vfprintf_r+0x15fc>
   14b24:	d49fe06f          	j	1386c <_vfprintf_r+0x340>
   14b28:	09412703          	lw	a4,148(sp)
   14b2c:	000b8693          	mv	a3,s7
   14b30:	f50ff06f          	j	14280 <_vfprintf_r+0xd54>
   14b34:	02c12283          	lw	t0,44(sp)
   14b38:	00870733          	add	a4,a4,s0
   14b3c:	00178793          	addi	a5,a5,1
   14b40:	00700613          	li	a2,7
   14b44:	0056a023          	sw	t0,0(a3)
   14b48:	0086a223          	sw	s0,4(a3)
   14b4c:	08e12a23          	sw	a4,148(sp)
   14b50:	08f12823          	sw	a5,144(sp)
   14b54:	00868693          	addi	a3,a3,8
   14b58:	02f65463          	ble	a5,a2,14b80 <_vfprintf_r+0x1654>
   14b5c:	08c10613          	addi	a2,sp,140
   14b60:	00098593          	mv	a1,s3
   14b64:	000b0513          	mv	a0,s6
   14b68:	188050ef          	jal	19cf0 <__sprint_r>
   14b6c:	00050463          	beqz	a0,14b74 <_vfprintf_r+0x1648>
   14b70:	cfdfe06f          	j	1386c <_vfprintf_r+0x340>
   14b74:	09412703          	lw	a4,148(sp)
   14b78:	09012783          	lw	a5,144(sp)
   14b7c:	000b8693          	mv	a3,s7
   14b80:	04412283          	lw	t0,68(sp)
   14b84:	00178793          	addi	a5,a5,1
   14b88:	0146a023          	sw	s4,0(a3)
   14b8c:	00e28733          	add	a4,t0,a4
   14b90:	d1cff06f          	j	140ac <_vfprintf_r+0xb80>
   14b94:	000a0513          	mv	a0,s4
   14b98:	00d12e23          	sw	a3,28(sp)
   14b9c:	901fe0ef          	jal	1349c <strlen>
   14ba0:	02a12823          	sw	a0,48(sp)
   14ba4:	01c12683          	lw	a3,28(sp)
   14ba8:	00050793          	mv	a5,a0
   14bac:	00054463          	bltz	a0,14bb4 <_vfprintf_r+0x1688>
   14bb0:	f79fe06f          	j	13b28 <_vfprintf_r+0x5fc>
   14bb4:	00000793          	li	a5,0
   14bb8:	f71fe06f          	j	13b28 <_vfprintf_r+0x5fc>
   14bbc:	02d00813          	li	a6,45
   14bc0:	00100713          	li	a4,1
   14bc4:	00100613          	li	a2,1
   14bc8:	00c71463          	bne	a4,a2,14bd0 <_vfprintf_r+0x16a4>
   14bcc:	fa9fe06f          	j	13b74 <_vfprintf_r+0x648>
   14bd0:	00200613          	li	a2,2
   14bd4:	9ec70863          	beq	a4,a2,13dc4 <_vfprintf_r+0x898>
   14bd8:	d45fe06f          	j	1391c <_vfprintf_r+0x3f0>
   14bdc:	00600793          	li	a5,6
   14be0:	0087f463          	bleu	s0,a5,14be8 <_vfprintf_r+0x16bc>
   14be4:	00078413          	mv	s0,a5
   14be8:	02812823          	sw	s0,48(sp)
   14bec:	00040793          	mv	a5,s0
   14bf0:	34044c63          	bltz	s0,14f48 <_vfprintf_r+0x1a1c>
   14bf4:	0001ca37          	lui	s4,0x1c
   14bf8:	02f12223          	sw	a5,36(sp)
   14bfc:	02912a23          	sw	s1,52(sp)
   14c00:	30ca0a13          	addi	s4,s4,780 # 1c30c <zeroes.3949+0x50>
   14c04:	00000413          	li	s0,0
   14c08:	d79fe06f          	j	13980 <_vfprintf_r+0x454>
   14c0c:	08c10613          	addi	a2,sp,140
   14c10:	00098593          	mv	a1,s3
   14c14:	000b0513          	mv	a0,s6
   14c18:	0d8050ef          	jal	19cf0 <__sprint_r>
   14c1c:	00050463          	beqz	a0,14c24 <_vfprintf_r+0x16f8>
   14c20:	c4dfe06f          	j	1386c <_vfprintf_r+0x340>
   14c24:	07412403          	lw	s0,116(sp)
   14c28:	09412703          	lw	a4,148(sp)
   14c2c:	000b8693          	mv	a3,s7
   14c30:	941ff06f          	j	14570 <_vfprintf_r+0x1044>
   14c34:	06f14803          	lbu	a6,111(sp)
   14c38:	02c12a83          	lw	s5,44(sp)
   14c3c:	00000413          	li	s0,0
   14c40:	d31fe06f          	j	13970 <_vfprintf_r+0x444>
   14c44:	0001ca37          	lui	s4,0x1c
   14c48:	2e0a0a13          	addi	s4,s4,736 # 1c2e0 <zeroes.3949+0x24>
   14c4c:	e45ff06f          	j	14a90 <_vfprintf_r+0x1564>
   14c50:	02d00793          	li	a5,45
   14c54:	06f107a3          	sb	a5,111(sp)
   14c58:	02d00813          	li	a6,45
   14c5c:	838ff06f          	j	13c94 <_vfprintf_r+0x768>
   14c60:	001af793          	andi	a5,s5,1
   14c64:	00b50633          	add	a2,a0,a1
   14c68:	b40798e3          	bnez	a5,147b8 <_vfprintf_r+0x128c>
   14c6c:	08412783          	lw	a5,132(sp)
   14c70:	b79ff06f          	j	147e8 <_vfprintf_r+0x12bc>
   14c74:	00070a93          	mv	s5,a4
   14c78:	00000813          	li	a6,0
   14c7c:	00200713          	li	a4,2
   14c80:	f45ff06f          	j	14bc4 <_vfprintf_r+0x1698>
   14c84:	001af793          	andi	a5,s5,1
   14c88:	22079463          	bnez	a5,14eb0 <_vfprintf_r+0x1984>
   14c8c:	08412783          	lw	a5,132(sp)
   14c90:	414787b3          	sub	a5,a5,s4
   14c94:	04f12223          	sw	a5,68(sp)
   14c98:	3dad9863          	bne	s11,s10,15068 <_vfprintf_r+0x1b3c>
   14c9c:	07412783          	lw	a5,116(sp)
   14ca0:	ffd00713          	li	a4,-3
   14ca4:	06e7c463          	blt	a5,a4,14d0c <_vfprintf_r+0x17e0>
   14ca8:	06f44263          	blt	s0,a5,14d0c <_vfprintf_r+0x17e0>
   14cac:	02f12823          	sw	a5,48(sp)
   14cb0:	b61ff06f          	j	14810 <_vfprintf_r+0x12e4>
   14cb4:	08c10613          	addi	a2,sp,140
   14cb8:	00098593          	mv	a1,s3
   14cbc:	000b0513          	mv	a0,s6
   14cc0:	030050ef          	jal	19cf0 <__sprint_r>
   14cc4:	00050463          	beqz	a0,14ccc <_vfprintf_r+0x17a0>
   14cc8:	ba5fe06f          	j	1386c <_vfprintf_r+0x340>
   14ccc:	07412403          	lw	s0,116(sp)
   14cd0:	09412703          	lw	a4,148(sp)
   14cd4:	09012783          	lw	a5,144(sp)
   14cd8:	000b8693          	mv	a3,s7
   14cdc:	c15ff06f          	j	148f0 <_vfprintf_r+0x13c4>
   14ce0:	08c10613          	addi	a2,sp,140
   14ce4:	00098593          	mv	a1,s3
   14ce8:	000b0513          	mv	a0,s6
   14cec:	004050ef          	jal	19cf0 <__sprint_r>
   14cf0:	00050463          	beqz	a0,14cf8 <_vfprintf_r+0x17cc>
   14cf4:	b79fe06f          	j	1386c <_vfprintf_r+0x340>
   14cf8:	07412403          	lw	s0,116(sp)
   14cfc:	09412703          	lw	a4,148(sp)
   14d00:	09012783          	lw	a5,144(sp)
   14d04:	000b8693          	mv	a3,s7
   14d08:	bb5ff06f          	j	148bc <_vfprintf_r+0x1390>
   14d0c:	ffed0d13          	addi	s10,s10,-2
   14d10:	fff78793          	addi	a5,a5,-1
   14d14:	06f12a23          	sw	a5,116(sp)
   14d18:	07a10e23          	sb	s10,124(sp)
   14d1c:	2a07ce63          	bltz	a5,14fd8 <_vfprintf_r+0x1aac>
   14d20:	02b00713          	li	a4,43
   14d24:	06e10ea3          	sb	a4,125(sp)
   14d28:	00900593          	li	a1,9
   14d2c:	18f5ca63          	blt	a1,a5,14ec0 <_vfprintf_r+0x1994>
   14d30:	03000713          	li	a4,48
   14d34:	03078793          	addi	a5,a5,48
   14d38:	06e10f23          	sb	a4,126(sp)
   14d3c:	06f10fa3          	sb	a5,127(sp)
   14d40:	08010713          	addi	a4,sp,128
   14d44:	07c10793          	addi	a5,sp,124
   14d48:	40f707b3          	sub	a5,a4,a5
   14d4c:	04412703          	lw	a4,68(sp)
   14d50:	04412283          	lw	t0,68(sp)
   14d54:	04f12e23          	sw	a5,92(sp)
   14d58:	00e78733          	add	a4,a5,a4
   14d5c:	00100793          	li	a5,1
   14d60:	02e12823          	sw	a4,48(sp)
   14d64:	2657d063          	ble	t0,a5,14fc4 <_vfprintf_r+0x1a98>
   14d68:	03012703          	lw	a4,48(sp)
   14d6c:	00170713          	addi	a4,a4,1
   14d70:	02e12823          	sw	a4,48(sp)
   14d74:	00070793          	mv	a5,a4
   14d78:	1e074863          	bltz	a4,14f68 <_vfprintf_r+0x1a3c>
   14d7c:	02f12223          	sw	a5,36(sp)
   14d80:	ab5ff06f          	j	14834 <_vfprintf_r+0x1308>
   14d84:	02812223          	sw	s0,36(sp)
   14d88:	02812823          	sw	s0,48(sp)
   14d8c:	06f14803          	lbu	a6,111(sp)
   14d90:	02912a23          	sw	s1,52(sp)
   14d94:	00000413          	li	s0,0
   14d98:	bd9fe06f          	j	13970 <_vfprintf_r+0x444>
   14d9c:	98041ee3          	bnez	s0,14738 <_vfprintf_r+0x120c>
   14da0:	000a0413          	mv	s0,s4
   14da4:	995ff06f          	j	14738 <_vfprintf_r+0x120c>
   14da8:	08c10613          	addi	a2,sp,140
   14dac:	00098593          	mv	a1,s3
   14db0:	000b0513          	mv	a0,s6
   14db4:	73d040ef          	jal	19cf0 <__sprint_r>
   14db8:	00050463          	beqz	a0,14dc0 <_vfprintf_r+0x1894>
   14dbc:	ab1fe06f          	j	1386c <_vfprintf_r+0x340>
   14dc0:	07412403          	lw	s0,116(sp)
   14dc4:	09412703          	lw	a4,148(sp)
   14dc8:	09012783          	lw	a5,144(sp)
   14dcc:	000b8693          	mv	a3,s7
   14dd0:	c35ff06f          	j	14a04 <_vfprintf_r+0x14d8>
   14dd4:	03012283          	lw	t0,48(sp)
   14dd8:	00100793          	li	a5,1
   14ddc:	1a505663          	blez	t0,14f88 <_vfprintf_r+0x1a5c>
   14de0:	04412703          	lw	a4,68(sp)
   14de4:	00e787b3          	add	a5,a5,a4
   14de8:	02f12823          	sw	a5,48(sp)
   14dec:	a407d0e3          	bgez	a5,1482c <_vfprintf_r+0x1300>
   14df0:	00000793          	li	a5,0
   14df4:	a39ff06f          	j	1482c <_vfprintf_r+0x1300>
   14df8:	00600413          	li	s0,6
   14dfc:	93dff06f          	j	14738 <_vfprintf_r+0x120c>
   14e00:	08410793          	addi	a5,sp,132
   14e04:	22840653          	fmv.d	fa2,fs0
   14e08:	00f12023          	sw	a5,0(sp)
   14e0c:	07810893          	addi	a7,sp,120
   14e10:	07410813          	addi	a6,sp,116
   14e14:	00040793          	mv	a5,s0
   14e18:	00300713          	li	a4,3
   14e1c:	000b0513          	mv	a0,s6
   14e20:	00d12e23          	sw	a3,28(sp)
   14e24:	1cd000ef          	jal	157f0 <_dtoa_r>
   14e28:	01c12683          	lw	a3,28(sp)
   14e2c:	00050a13          	mv	s4,a0
   14e30:	00850633          	add	a2,a0,s0
   14e34:	00040593          	mv	a1,s0
   14e38:	000a4703          	lbu	a4,0(s4)
   14e3c:	03000793          	li	a5,48
   14e40:	0ef70463          	beq	a4,a5,14f28 <_vfprintf_r+0x19fc>
   14e44:	07412583          	lw	a1,116(sp)
   14e48:	00b60633          	add	a2,a2,a1
   14e4c:	96dff06f          	j	147b8 <_vfprintf_r+0x128c>
   14e50:	22841453          	fneg.d	fs0,fs0
   14e54:	02d00493          	li	s1,45
   14e58:	8f9ff06f          	j	14750 <_vfprintf_r+0x1224>
   14e5c:	07412283          	lw	t0,116(sp)
   14e60:	02512823          	sw	t0,48(sp)
   14e64:	12505863          	blez	t0,14f94 <_vfprintf_r+0x1a68>
   14e68:	0e041463          	bnez	s0,14f50 <_vfprintf_r+0x1a24>
   14e6c:	001afa93          	andi	s5,s5,1
   14e70:	0e0a9063          	bnez	s5,14f50 <_vfprintf_r+0x1a24>
   14e74:	02512223          	sw	t0,36(sp)
   14e78:	9bdff06f          	j	14834 <_vfprintf_r+0x1308>
   14e7c:	08410793          	addi	a5,sp,132
   14e80:	22840653          	fmv.d	fa2,fs0
   14e84:	00f12023          	sw	a5,0(sp)
   14e88:	07810893          	addi	a7,sp,120
   14e8c:	07410813          	addi	a6,sp,116
   14e90:	00040793          	mv	a5,s0
   14e94:	00300713          	li	a4,3
   14e98:	000b0513          	mv	a0,s6
   14e9c:	00d12e23          	sw	a3,28(sp)
   14ea0:	151000ef          	jal	157f0 <_dtoa_r>
   14ea4:	01c12683          	lw	a3,28(sp)
   14ea8:	00050a13          	mv	s4,a0
   14eac:	00040593          	mv	a1,s0
   14eb0:	04600793          	li	a5,70
   14eb4:	00ba0633          	add	a2,s4,a1
   14eb8:	f8fd00e3          	beq	s10,a5,14e38 <_vfprintf_r+0x190c>
   14ebc:	8fdff06f          	j	147b8 <_vfprintf_r+0x128c>
   14ec0:	08b10513          	addi	a0,sp,139
   14ec4:	00050713          	mv	a4,a0
   14ec8:	00a00813          	li	a6,10
   14ecc:	0307e633          	rem	a2,a5,a6
   14ed0:	fff70713          	addi	a4,a4,-1
   14ed4:	0307c7b3          	div	a5,a5,a6
   14ed8:	03060613          	addi	a2,a2,48
   14edc:	00c70023          	sb	a2,0(a4)
   14ee0:	fef5c6e3          	blt	a1,a5,14ecc <_vfprintf_r+0x19a0>
   14ee4:	03078793          	addi	a5,a5,48
   14ee8:	0ff7f793          	andi	a5,a5,255
   14eec:	fff70613          	addi	a2,a4,-1
   14ef0:	fef70fa3          	sb	a5,-1(a4)
   14ef4:	10a67a63          	bleu	a0,a2,15008 <_vfprintf_r+0x1adc>
   14ef8:	07e10593          	addi	a1,sp,126
   14efc:	0080006f          	j	14f04 <_vfprintf_r+0x19d8>
   14f00:	00064783          	lbu	a5,0(a2)
   14f04:	00158593          	addi	a1,a1,1
   14f08:	00160613          	addi	a2,a2,1
   14f0c:	fef58fa3          	sb	a5,-1(a1)
   14f10:	fea618e3          	bne	a2,a0,14f00 <_vfprintf_r+0x19d4>
   14f14:	08c10793          	addi	a5,sp,140
   14f18:	40e78733          	sub	a4,a5,a4
   14f1c:	07e10593          	addi	a1,sp,126
   14f20:	00e58733          	add	a4,a1,a4
   14f24:	e21ff06f          	j	14d44 <_vfprintf_r+0x1818>
   14f28:	d2000053          	fcvt.d.w	ft0,zero
   14f2c:	a20427d3          	feq.d	a5,fs0,ft0
   14f30:	f0079ae3          	bnez	a5,14e44 <_vfprintf_r+0x1918>
   14f34:	00100793          	li	a5,1
   14f38:	40b785b3          	sub	a1,a5,a1
   14f3c:	06b12a23          	sw	a1,116(sp)
   14f40:	00b60633          	add	a2,a2,a1
   14f44:	875ff06f          	j	147b8 <_vfprintf_r+0x128c>
   14f48:	00000793          	li	a5,0
   14f4c:	ca9ff06f          	j	14bf4 <_vfprintf_r+0x16c8>
   14f50:	03012703          	lw	a4,48(sp)
   14f54:	00140413          	addi	s0,s0,1
   14f58:	00870733          	add	a4,a4,s0
   14f5c:	02e12823          	sw	a4,48(sp)
   14f60:	00070793          	mv	a5,a4
   14f64:	e0075ce3          	bgez	a4,14d7c <_vfprintf_r+0x1850>
   14f68:	00000793          	li	a5,0
   14f6c:	e11ff06f          	j	14d7c <_vfprintf_r+0x1850>
   14f70:	03012783          	lw	a5,48(sp)
   14f74:	00178793          	addi	a5,a5,1
   14f78:	02f12823          	sw	a5,48(sp)
   14f7c:	8a07d8e3          	bgez	a5,1482c <_vfprintf_r+0x1300>
   14f80:	00000793          	li	a5,0
   14f84:	8a9ff06f          	j	1482c <_vfprintf_r+0x1300>
   14f88:	00200793          	li	a5,2
   14f8c:	405787b3          	sub	a5,a5,t0
   14f90:	e51ff06f          	j	14de0 <_vfprintf_r+0x18b4>
   14f94:	00041c63          	bnez	s0,14fac <_vfprintf_r+0x1a80>
   14f98:	00100793          	li	a5,1
   14f9c:	00fafab3          	and	s5,s5,a5
   14fa0:	02f12223          	sw	a5,36(sp)
   14fa4:	02f12823          	sw	a5,48(sp)
   14fa8:	880a86e3          	beqz	s5,14834 <_vfprintf_r+0x1308>
   14fac:	00240413          	addi	s0,s0,2
   14fb0:	02812823          	sw	s0,48(sp)
   14fb4:	00040793          	mv	a5,s0
   14fb8:	dc0452e3          	bgez	s0,14d7c <_vfprintf_r+0x1850>
   14fbc:	00000793          	li	a5,0
   14fc0:	dbdff06f          	j	14d7c <_vfprintf_r+0x1850>
   14fc4:	00fafab3          	and	s5,s5,a5
   14fc8:	f80a8ce3          	beqz	s5,14f60 <_vfprintf_r+0x1a34>
   14fcc:	d9dff06f          	j	14d68 <_vfprintf_r+0x183c>
   14fd0:	fff00413          	li	s0,-1
   14fd4:	845fe06f          	j	13818 <_vfprintf_r+0x2ec>
   14fd8:	02d00713          	li	a4,45
   14fdc:	40f007b3          	neg	a5,a5
   14fe0:	06e10ea3          	sb	a4,125(sp)
   14fe4:	d45ff06f          	j	14d28 <_vfprintf_r+0x17fc>
   14fe8:	03412283          	lw	t0,52(sp)
   14fec:	0002a403          	lw	s0,0(t0)
   14ff0:	00428793          	addi	a5,t0,4
   14ff4:	02f12a23          	sw	a5,52(sp)
   14ff8:	00044463          	bltz	s0,15000 <_vfprintf_r+0x1ad4>
   14ffc:	eccfe06f          	j	136c8 <_vfprintf_r+0x19c>
   15000:	fff00413          	li	s0,-1
   15004:	ec4fe06f          	j	136c8 <_vfprintf_r+0x19c>
   15008:	07e10713          	addi	a4,sp,126
   1500c:	d39ff06f          	j	14d44 <_vfprintf_r+0x1818>
   15010:	001af793          	andi	a5,s5,1
   15014:	00040813          	mv	a6,s0
   15018:	00078e63          	beqz	a5,15034 <_vfprintf_r+0x1b08>
   1501c:	03000793          	li	a5,48
   15020:	00100713          	li	a4,1
   15024:	0af10fa3          	sb	a5,191(sp)
   15028:	02e12823          	sw	a4,48(sp)
   1502c:	0bf10a13          	addi	s4,sp,191
   15030:	931fe06f          	j	13960 <_vfprintf_r+0x434>
   15034:	02012823          	sw	zero,48(sp)
   15038:	0c010a13          	addi	s4,sp,192
   1503c:	925fe06f          	j	13960 <_vfprintf_r+0x434>
   15040:	06a107a3          	sb	a0,111(sp)
   15044:	8a1fe06f          	j	138e4 <_vfprintf_r+0x3b8>
   15048:	00000793          	li	a5,0
   1504c:	d79fe06f          	j	13dc4 <_vfprintf_r+0x898>
   15050:	06a107a3          	sb	a0,111(sp)
   15054:	d1dfe06f          	j	13d70 <_vfprintf_r+0x844>
   15058:	06a107a3          	sb	a0,111(sp)
   1505c:	e75fe06f          	j	13ed0 <_vfprintf_r+0x9a4>
   15060:	06a107a3          	sb	a0,111(sp)
   15064:	de5fe06f          	j	13e48 <_vfprintf_r+0x91c>
   15068:	07412783          	lw	a5,116(sp)
   1506c:	ca5ff06f          	j	14d10 <_vfprintf_r+0x17e4>
   15070:	06a107a3          	sb	a0,111(sp)
   15074:	bcdfe06f          	j	13c40 <_vfprintf_r+0x714>
   15078:	06a107a3          	sb	a0,111(sp)
   1507c:	b75fe06f          	j	13bf0 <_vfprintf_r+0x6c4>
   15080:	06a107a3          	sb	a0,111(sp)
   15084:	ac5fe06f          	j	13b48 <_vfprintf_r+0x61c>
   15088:	06a107a3          	sb	a0,111(sp)
   1508c:	010aea93          	ori	s5,s5,16
   15090:	c9dfe06f          	j	13d2c <_vfprintf_r+0x800>
   15094:	06a107a3          	sb	a0,111(sp)
   15098:	010aea93          	ori	s5,s5,16
   1509c:	c49fe06f          	j	13ce4 <_vfprintf_r+0x7b8>
   150a0:	06a107a3          	sb	a0,111(sp)
   150a4:	dddfe06f          	j	13e80 <_vfprintf_r+0x954>

000150a8 <vfprintf>:
   150a8:	00060693          	mv	a3,a2
   150ac:	00058613          	mv	a2,a1
   150b0:	00050593          	mv	a1,a0
   150b4:	8081a503          	lw	a0,-2040(gp) # 1de78 <_impure_ptr>
   150b8:	c74fe06f          	j	1352c <_vfprintf_r>

000150bc <__swbuf_r>:
   150bc:	fe010113          	addi	sp,sp,-32
   150c0:	00812c23          	sw	s0,24(sp)
   150c4:	00912a23          	sw	s1,20(sp)
   150c8:	01312623          	sw	s3,12(sp)
   150cc:	00112e23          	sw	ra,28(sp)
   150d0:	01212823          	sw	s2,16(sp)
   150d4:	00050493          	mv	s1,a0
   150d8:	00058993          	mv	s3,a1
   150dc:	00060413          	mv	s0,a2
   150e0:	00050663          	beqz	a0,150ec <__swbuf_r+0x30>
   150e4:	03852783          	lw	a5,56(a0)
   150e8:	12078263          	beqz	a5,1520c <__swbuf_r+0x150>
   150ec:	00c41683          	lh	a3,12(s0)
   150f0:	01842603          	lw	a2,24(s0)
   150f4:	01069713          	slli	a4,a3,0x10
   150f8:	01075713          	srli	a4,a4,0x10
   150fc:	00877793          	andi	a5,a4,8
   15100:	00c42423          	sw	a2,8(s0)
   15104:	0e078263          	beqz	a5,151e8 <__swbuf_r+0x12c>
   15108:	01042783          	lw	a5,16(s0)
   1510c:	0c078e63          	beqz	a5,151e8 <__swbuf_r+0x12c>
   15110:	01271613          	slli	a2,a4,0x12
   15114:	0ff9f913          	andi	s2,s3,255
   15118:	06065663          	bgez	a2,15184 <__swbuf_r+0xc8>
   1511c:	00042703          	lw	a4,0(s0)
   15120:	01442683          	lw	a3,20(s0)
   15124:	40f707b3          	sub	a5,a4,a5
   15128:	08d7d663          	ble	a3,a5,151b4 <__swbuf_r+0xf8>
   1512c:	00178793          	addi	a5,a5,1
   15130:	00842683          	lw	a3,8(s0)
   15134:	00170613          	addi	a2,a4,1
   15138:	00c42023          	sw	a2,0(s0)
   1513c:	fff68693          	addi	a3,a3,-1
   15140:	00d42423          	sw	a3,8(s0)
   15144:	01370023          	sb	s3,0(a4)
   15148:	01442703          	lw	a4,20(s0)
   1514c:	08f70263          	beq	a4,a5,151d0 <__swbuf_r+0x114>
   15150:	00c45783          	lhu	a5,12(s0)
   15154:	00090513          	mv	a0,s2
   15158:	0017f793          	andi	a5,a5,1
   1515c:	00078663          	beqz	a5,15168 <__swbuf_r+0xac>
   15160:	00a00793          	li	a5,10
   15164:	06f90663          	beq	s2,a5,151d0 <__swbuf_r+0x114>
   15168:	01c12083          	lw	ra,28(sp)
   1516c:	01812403          	lw	s0,24(sp)
   15170:	01412483          	lw	s1,20(sp)
   15174:	01012903          	lw	s2,16(sp)
   15178:	00c12983          	lw	s3,12(sp)
   1517c:	02010113          	addi	sp,sp,32
   15180:	00008067          	ret
   15184:	06442583          	lw	a1,100(s0)
   15188:	ffffe737          	lui	a4,0xffffe
   1518c:	fff70713          	addi	a4,a4,-1 # ffffdfff <_end+0xfffdd88f>
   15190:	00e5f733          	and	a4,a1,a4
   15194:	00002637          	lui	a2,0x2
   15198:	00c6e6b3          	or	a3,a3,a2
   1519c:	06e42223          	sw	a4,100(s0)
   151a0:	00042703          	lw	a4,0(s0)
   151a4:	00d41623          	sh	a3,12(s0)
   151a8:	01442683          	lw	a3,20(s0)
   151ac:	40f707b3          	sub	a5,a4,a5
   151b0:	f6d7cee3          	blt	a5,a3,1512c <__swbuf_r+0x70>
   151b4:	00040593          	mv	a1,s0
   151b8:	00048513          	mv	a0,s1
   151bc:	698010ef          	jal	16854 <_fflush_r>
   151c0:	04051a63          	bnez	a0,15214 <__swbuf_r+0x158>
   151c4:	00042703          	lw	a4,0(s0)
   151c8:	00100793          	li	a5,1
   151cc:	f65ff06f          	j	15130 <__swbuf_r+0x74>
   151d0:	00040593          	mv	a1,s0
   151d4:	00048513          	mv	a0,s1
   151d8:	67c010ef          	jal	16854 <_fflush_r>
   151dc:	02051c63          	bnez	a0,15214 <__swbuf_r+0x158>
   151e0:	00090513          	mv	a0,s2
   151e4:	f85ff06f          	j	15168 <__swbuf_r+0xac>
   151e8:	00040593          	mv	a1,s0
   151ec:	00048513          	mv	a0,s1
   151f0:	058000ef          	jal	15248 <__swsetup_r>
   151f4:	02051463          	bnez	a0,1521c <__swbuf_r+0x160>
   151f8:	00c41683          	lh	a3,12(s0)
   151fc:	01042783          	lw	a5,16(s0)
   15200:	01069713          	slli	a4,a3,0x10
   15204:	01075713          	srli	a4,a4,0x10
   15208:	f09ff06f          	j	15110 <__swbuf_r+0x54>
   1520c:	439010ef          	jal	16e44 <__sinit>
   15210:	eddff06f          	j	150ec <__swbuf_r+0x30>
   15214:	fff00513          	li	a0,-1
   15218:	f51ff06f          	j	15168 <__swbuf_r+0xac>
   1521c:	00c45783          	lhu	a5,12(s0)
   15220:	fff00513          	li	a0,-1
   15224:	0407e793          	ori	a5,a5,64
   15228:	00f41623          	sh	a5,12(s0)
   1522c:	00900793          	li	a5,9
   15230:	00f4a023          	sw	a5,0(s1)
   15234:	f35ff06f          	j	15168 <__swbuf_r+0xac>

00015238 <__swbuf>:
   15238:	00058613          	mv	a2,a1
   1523c:	00050593          	mv	a1,a0
   15240:	8081a503          	lw	a0,-2040(gp) # 1de78 <_impure_ptr>
   15244:	e79ff06f          	j	150bc <__swbuf_r>

00015248 <__swsetup_r>:
   15248:	8081a783          	lw	a5,-2040(gp) # 1de78 <_impure_ptr>
   1524c:	ff010113          	addi	sp,sp,-16
   15250:	00812423          	sw	s0,8(sp)
   15254:	00912223          	sw	s1,4(sp)
   15258:	00112623          	sw	ra,12(sp)
   1525c:	00050493          	mv	s1,a0
   15260:	00058413          	mv	s0,a1
   15264:	00078663          	beqz	a5,15270 <__swsetup_r+0x28>
   15268:	0387a703          	lw	a4,56(a5)
   1526c:	0e070063          	beqz	a4,1534c <__swsetup_r+0x104>
   15270:	00c41703          	lh	a4,12(s0)
   15274:	01071793          	slli	a5,a4,0x10
   15278:	0107d793          	srli	a5,a5,0x10
   1527c:	0087f693          	andi	a3,a5,8
   15280:	04068263          	beqz	a3,152c4 <__swsetup_r+0x7c>
   15284:	01042683          	lw	a3,16(s0)
   15288:	06068263          	beqz	a3,152ec <__swsetup_r+0xa4>
   1528c:	0017f713          	andi	a4,a5,1
   15290:	08071063          	bnez	a4,15310 <__swsetup_r+0xc8>
   15294:	0027f793          	andi	a5,a5,2
   15298:	00000713          	li	a4,0
   1529c:	00079463          	bnez	a5,152a4 <__swsetup_r+0x5c>
   152a0:	01442703          	lw	a4,20(s0)
   152a4:	00e42423          	sw	a4,8(s0)
   152a8:	00000513          	li	a0,0
   152ac:	06068e63          	beqz	a3,15328 <__swsetup_r+0xe0>
   152b0:	00c12083          	lw	ra,12(sp)
   152b4:	00812403          	lw	s0,8(sp)
   152b8:	00412483          	lw	s1,4(sp)
   152bc:	01010113          	addi	sp,sp,16
   152c0:	00008067          	ret
   152c4:	0107f693          	andi	a3,a5,16
   152c8:	0c068263          	beqz	a3,1538c <__swsetup_r+0x144>
   152cc:	0047f793          	andi	a5,a5,4
   152d0:	08079463          	bnez	a5,15358 <__swsetup_r+0x110>
   152d4:	01042683          	lw	a3,16(s0)
   152d8:	00876793          	ori	a5,a4,8
   152dc:	00f41623          	sh	a5,12(s0)
   152e0:	01079793          	slli	a5,a5,0x10
   152e4:	0107d793          	srli	a5,a5,0x10
   152e8:	fa0692e3          	bnez	a3,1528c <__swsetup_r+0x44>
   152ec:	2807f713          	andi	a4,a5,640
   152f0:	20000613          	li	a2,512
   152f4:	f8c70ce3          	beq	a4,a2,1528c <__swsetup_r+0x44>
   152f8:	00040593          	mv	a1,s0
   152fc:	00048513          	mv	a0,s1
   15300:	614020ef          	jal	17914 <__smakebuf_r>
   15304:	00c45783          	lhu	a5,12(s0)
   15308:	01042683          	lw	a3,16(s0)
   1530c:	f81ff06f          	j	1528c <__swsetup_r+0x44>
   15310:	01442783          	lw	a5,20(s0)
   15314:	00042423          	sw	zero,8(s0)
   15318:	00000513          	li	a0,0
   1531c:	40f007b3          	neg	a5,a5
   15320:	00f42c23          	sw	a5,24(s0)
   15324:	f80696e3          	bnez	a3,152b0 <__swsetup_r+0x68>
   15328:	00c45783          	lhu	a5,12(s0)
   1532c:	0807f793          	andi	a5,a5,128
   15330:	04079e63          	bnez	a5,1538c <__swsetup_r+0x144>
   15334:	00c12083          	lw	ra,12(sp)
   15338:	00068513          	mv	a0,a3
   1533c:	00812403          	lw	s0,8(sp)
   15340:	00412483          	lw	s1,4(sp)
   15344:	01010113          	addi	sp,sp,16
   15348:	00008067          	ret
   1534c:	00078513          	mv	a0,a5
   15350:	2f5010ef          	jal	16e44 <__sinit>
   15354:	f1dff06f          	j	15270 <__swsetup_r+0x28>
   15358:	03042583          	lw	a1,48(s0)
   1535c:	00058e63          	beqz	a1,15378 <__swsetup_r+0x130>
   15360:	04040793          	addi	a5,s0,64
   15364:	00f58863          	beq	a1,a5,15374 <__swsetup_r+0x12c>
   15368:	00048513          	mv	a0,s1
   1536c:	419010ef          	jal	16f84 <_free_r>
   15370:	00c41703          	lh	a4,12(s0)
   15374:	02042823          	sw	zero,48(s0)
   15378:	01042683          	lw	a3,16(s0)
   1537c:	fdb77713          	andi	a4,a4,-37
   15380:	00042223          	sw	zero,4(s0)
   15384:	00d42023          	sw	a3,0(s0)
   15388:	f51ff06f          	j	152d8 <__swsetup_r+0x90>
   1538c:	fff00513          	li	a0,-1
   15390:	f21ff06f          	j	152b0 <__swsetup_r+0x68>

00015394 <__register_exitproc>:
   15394:	fe010113          	addi	sp,sp,-32
   15398:	00812c23          	sw	s0,24(sp)
   1539c:	8041a403          	lw	s0,-2044(gp) # 1de74 <_global_impure_ptr>
   153a0:	00912a23          	sw	s1,20(sp)
   153a4:	00050493          	mv	s1,a0
   153a8:	14842503          	lw	a0,328(s0)
   153ac:	00112e23          	sw	ra,28(sp)
   153b0:	0c050263          	beqz	a0,15474 <__register_exitproc+0xe0>
   153b4:	00452783          	lw	a5,4(a0)
   153b8:	01f00713          	li	a4,31
   153bc:	00178813          	addi	a6,a5,1
   153c0:	04f75863          	ble	a5,a4,15410 <__register_exitproc+0x7c>
   153c4:	00000793          	li	a5,0
   153c8:	0a078c63          	beqz	a5,15480 <__register_exitproc+0xec>
   153cc:	19000513          	li	a0,400
   153d0:	00b12623          	sw	a1,12(sp)
   153d4:	00c12423          	sw	a2,8(sp)
   153d8:	00d12223          	sw	a3,4(sp)
   153dc:	c25ea0ef          	jal	0 <_ftext-0x10000>
   153e0:	00c12583          	lw	a1,12(sp)
   153e4:	00812603          	lw	a2,8(sp)
   153e8:	00412683          	lw	a3,4(sp)
   153ec:	08050a63          	beqz	a0,15480 <__register_exitproc+0xec>
   153f0:	14842783          	lw	a5,328(s0)
   153f4:	00100813          	li	a6,1
   153f8:	00052223          	sw	zero,4(a0)
   153fc:	00f52023          	sw	a5,0(a0)
   15400:	14a42423          	sw	a0,328(s0)
   15404:	00000793          	li	a5,0
   15408:	18052423          	sw	zero,392(a0)
   1540c:	18052623          	sw	zero,396(a0)
   15410:	00279713          	slli	a4,a5,0x2
   15414:	02049463          	bnez	s1,1543c <__register_exitproc+0xa8>
   15418:	00e50733          	add	a4,a0,a4
   1541c:	01052223          	sw	a6,4(a0)
   15420:	00000513          	li	a0,0
   15424:	00b72423          	sw	a1,8(a4)
   15428:	01c12083          	lw	ra,28(sp)
   1542c:	01812403          	lw	s0,24(sp)
   15430:	01412483          	lw	s1,20(sp)
   15434:	02010113          	addi	sp,sp,32
   15438:	00008067          	ret
   1543c:	00e502b3          	add	t0,a0,a4
   15440:	08c2a423          	sw	a2,136(t0)
   15444:	18852883          	lw	a7,392(a0)
