
a.out:     file format elf32-littleriscv


Disassembly of section .text:

00010000 <_ftext>:
   10000:	0000e197          	auipc	gp,0xe
   10004:	67018193          	addi	gp,gp,1648 # 1e670 <_gp>
   10008:	0000e297          	auipc	t0,0xe
   1000c:	ed828293          	addi	t0,t0,-296 # 1dee0 <Reg>
   10010:	00010317          	auipc	t1,0x10
   10014:	76030313          	addi	t1,t1,1888 # 20770 <_end>
   10018:	0002a023          	sw	zero,0(t0)
   1001c:	00428293          	addi	t0,t0,4
   10020:	fe62ece3          	bltu	t0,t1,10018 <_ftext+0x18>
   10024:	00003517          	auipc	a0,0x3
   10028:	f0c50513          	addi	a0,a0,-244 # 12f30 <__libc_fini_array>
   1002c:	621020ef          	jal	12e4c <atexit>
   10030:	661020ef          	jal	12e90 <__libc_init_array>
   10034:	00012503          	lw	a0,0(sp)
   10038:	00410593          	addi	a1,sp,4
   1003c:	00000613          	li	a2,0
   10040:	594000ef          	jal	105d4 <main>
   10044:	61d0206f          	j	12e60 <exit>

00010048 <_fini>:
   10048:	00008067          	ret

0001004c <deregister_tm_clones>:
   1004c:	80018713          	addi	a4,gp,-2048 # 1de70 <_edata>
   10050:	80318793          	addi	a5,gp,-2045 # 1de73 <_edata+0x3>
   10054:	40e787b3          	sub	a5,a5,a4
   10058:	00600713          	li	a4,6
   1005c:	00f77c63          	bleu	a5,a4,10074 <deregister_tm_clones+0x28>
   10060:	00000293          	li	t0,0
   10064:	00028863          	beqz	t0,10074 <deregister_tm_clones+0x28>
   10068:	80018513          	addi	a0,gp,-2048 # 1de70 <_edata>
   1006c:	00028313          	mv	t1,t0
   10070:	00030067          	jr	t1
   10074:	00008067          	ret

00010078 <register_tm_clones>:
   10078:	80018593          	addi	a1,gp,-2048 # 1de70 <_edata>
   1007c:	80018793          	addi	a5,gp,-2048 # 1de70 <_edata>
   10080:	40b787b3          	sub	a5,a5,a1
   10084:	4027d793          	srai	a5,a5,0x2
   10088:	01f7d593          	srli	a1,a5,0x1f
   1008c:	00f585b3          	add	a1,a1,a5
   10090:	4015d593          	srai	a1,a1,0x1
   10094:	00058c63          	beqz	a1,100ac <register_tm_clones+0x34>
   10098:	00000293          	li	t0,0
   1009c:	00028863          	beqz	t0,100ac <register_tm_clones+0x34>
   100a0:	80018513          	addi	a0,gp,-2048 # 1de70 <_edata>
   100a4:	00028313          	mv	t1,t0
   100a8:	00030067          	jr	t1
   100ac:	00008067          	ret

000100b0 <__do_global_dtors_aux>:
   100b0:	ff010113          	addi	sp,sp,-16
   100b4:	00812423          	sw	s0,8(sp)
   100b8:	8901c783          	lbu	a5,-1904(gp) # 1df00 <_bss_start>
   100bc:	00112623          	sw	ra,12(sp)
   100c0:	02079263          	bnez	a5,100e4 <__do_global_dtors_aux+0x34>
   100c4:	f89ff0ef          	jal	1004c <deregister_tm_clones>
   100c8:	00000793          	li	a5,0
   100cc:	00078863          	beqz	a5,100dc <__do_global_dtors_aux+0x2c>
   100d0:	0001c537          	lui	a0,0x1c
   100d4:	33c50513          	addi	a0,a0,828 # 1c33c <__fini_array_end>
   100d8:	f29ef0ef          	jal	0 <_ftext-0x10000>
   100dc:	00100793          	li	a5,1
   100e0:	88f18823          	sb	a5,-1904(gp) # 1df00 <_bss_start>
   100e4:	00c12083          	lw	ra,12(sp)
   100e8:	00812403          	lw	s0,8(sp)
   100ec:	01010113          	addi	sp,sp,16
   100f0:	00008067          	ret

000100f4 <frame_dummy>:
   100f4:	ff010113          	addi	sp,sp,-16
   100f8:	00000793          	li	a5,0
   100fc:	00112623          	sw	ra,12(sp)
   10100:	00078a63          	beqz	a5,10114 <frame_dummy+0x20>
   10104:	0001c537          	lui	a0,0x1c
   10108:	89418593          	addi	a1,gp,-1900 # 1df04 <object.3086>
   1010c:	33c50513          	addi	a0,a0,828 # 1c33c <__fini_array_end>
   10110:	ef1ef0ef          	jal	0 <_ftext-0x10000>
   10114:	0001d537          	lui	a0,0x1d
   10118:	5f850513          	addi	a0,a0,1528 # 1d5f8 <__JCR_END__>
   1011c:	00052783          	lw	a5,0(a0)
   10120:	00079863          	bnez	a5,10130 <frame_dummy+0x3c>
   10124:	00c12083          	lw	ra,12(sp)
   10128:	01010113          	addi	sp,sp,16
   1012c:	f4dff06f          	j	10078 <register_tm_clones>
   10130:	00000793          	li	a5,0
   10134:	fe0788e3          	beqz	a5,10124 <frame_dummy+0x30>
   10138:	000780e7          	jalr	a5
   1013c:	fe9ff06f          	j	10124 <frame_dummy+0x30>

00010140 <Proc_6>:
   10140:	fe010113          	addi	sp,sp,-32
   10144:	00112e23          	sw	ra,28(sp)
   10148:	00812c23          	sw	s0,24(sp)
   1014c:	02010413          	addi	s0,sp,32
   10150:	fea42623          	sw	a0,-20(s0)
   10154:	feb42423          	sw	a1,-24(s0)
   10158:	fe842783          	lw	a5,-24(s0)
   1015c:	fec42703          	lw	a4,-20(s0)
   10160:	00e7a023          	sw	a4,0(a5)
   10164:	fec42503          	lw	a0,-20(s0)
   10168:	3f0000ef          	jal	10558 <Func_3>
   1016c:	00050793          	mv	a5,a0
   10170:	00079863          	bnez	a5,10180 <Proc_6+0x40>
   10174:	fe842783          	lw	a5,-24(s0)
   10178:	00300713          	li	a4,3
   1017c:	00e7a023          	sw	a4,0(a5)
   10180:	fec42703          	lw	a4,-20(s0)
   10184:	00400793          	li	a5,4
   10188:	06e7ee63          	bltu	a5,a4,10204 <Proc_6+0xc4>
   1018c:	fec42783          	lw	a5,-20(s0)
   10190:	00279713          	slli	a4,a5,0x2
   10194:	0001b7b7          	lui	a5,0x1b
   10198:	74078793          	addi	a5,a5,1856 # 1b740 <__errno+0xc>
   1019c:	00f707b3          	add	a5,a4,a5
   101a0:	0007a783          	lw	a5,0(a5)
   101a4:	00078067          	jr	a5
   101a8:	fe842783          	lw	a5,-24(s0)
   101ac:	0007a023          	sw	zero,0(a5)
   101b0:	0540006f          	j	10204 <Proc_6+0xc4>
   101b4:	000207b7          	lui	a5,0x20
   101b8:	6907a703          	lw	a4,1680(a5) # 20690 <Int_Glob>
   101bc:	06400793          	li	a5,100
   101c0:	00e7d863          	ble	a4,a5,101d0 <Proc_6+0x90>
   101c4:	fe842783          	lw	a5,-24(s0)
   101c8:	0007a023          	sw	zero,0(a5)
   101cc:	0380006f          	j	10204 <Proc_6+0xc4>
   101d0:	fe842783          	lw	a5,-24(s0)
   101d4:	00300713          	li	a4,3
   101d8:	00e7a023          	sw	a4,0(a5)
   101dc:	0280006f          	j	10204 <Proc_6+0xc4>
   101e0:	fe842783          	lw	a5,-24(s0)
   101e4:	00100713          	li	a4,1
   101e8:	00e7a023          	sw	a4,0(a5)
   101ec:	0180006f          	j	10204 <Proc_6+0xc4>
   101f0:	fe842783          	lw	a5,-24(s0)
   101f4:	00200713          	li	a4,2
   101f8:	00e7a023          	sw	a4,0(a5)
   101fc:	0080006f          	j	10204 <Proc_6+0xc4>
   10200:	00000013          	nop
   10204:	00000013          	nop
   10208:	00078513          	mv	a0,a5
   1020c:	01c12083          	lw	ra,28(sp)
   10210:	01812403          	lw	s0,24(sp)
   10214:	02010113          	addi	sp,sp,32
   10218:	00008067          	ret

0001021c <Proc_7>:
   1021c:	fd010113          	addi	sp,sp,-48
   10220:	02812623          	sw	s0,44(sp)
   10224:	03010413          	addi	s0,sp,48
   10228:	fca42e23          	sw	a0,-36(s0)
   1022c:	fcb42c23          	sw	a1,-40(s0)
   10230:	fcc42a23          	sw	a2,-44(s0)
   10234:	fdc42783          	lw	a5,-36(s0)
   10238:	00278793          	addi	a5,a5,2
   1023c:	fef42623          	sw	a5,-20(s0)
   10240:	fd842703          	lw	a4,-40(s0)
   10244:	fec42783          	lw	a5,-20(s0)
   10248:	00f70733          	add	a4,a4,a5
   1024c:	fd442783          	lw	a5,-44(s0)
   10250:	00e7a023          	sw	a4,0(a5)
   10254:	00000013          	nop
   10258:	00078513          	mv	a0,a5
   1025c:	02c12403          	lw	s0,44(sp)
   10260:	03010113          	addi	sp,sp,48
   10264:	00008067          	ret

00010268 <Proc_8>:
   10268:	fd010113          	addi	sp,sp,-48
   1026c:	02812623          	sw	s0,44(sp)
   10270:	03010413          	addi	s0,sp,48
   10274:	fca42e23          	sw	a0,-36(s0)
   10278:	fcb42c23          	sw	a1,-40(s0)
   1027c:	fcc42a23          	sw	a2,-44(s0)
   10280:	fcd42823          	sw	a3,-48(s0)
   10284:	fd442783          	lw	a5,-44(s0)
   10288:	00578793          	addi	a5,a5,5
   1028c:	fef42423          	sw	a5,-24(s0)
   10290:	fe842783          	lw	a5,-24(s0)
   10294:	00279793          	slli	a5,a5,0x2
   10298:	fdc42703          	lw	a4,-36(s0)
   1029c:	00f707b3          	add	a5,a4,a5
   102a0:	fd042703          	lw	a4,-48(s0)
   102a4:	00e7a023          	sw	a4,0(a5)
   102a8:	fe842783          	lw	a5,-24(s0)
   102ac:	00178793          	addi	a5,a5,1
   102b0:	00279793          	slli	a5,a5,0x2
   102b4:	fdc42703          	lw	a4,-36(s0)
   102b8:	00f707b3          	add	a5,a4,a5
   102bc:	fe842703          	lw	a4,-24(s0)
   102c0:	00271713          	slli	a4,a4,0x2
   102c4:	fdc42683          	lw	a3,-36(s0)
   102c8:	00e68733          	add	a4,a3,a4
   102cc:	00072703          	lw	a4,0(a4)
   102d0:	00e7a023          	sw	a4,0(a5)
   102d4:	fe842783          	lw	a5,-24(s0)
   102d8:	01e78793          	addi	a5,a5,30
   102dc:	00279793          	slli	a5,a5,0x2
   102e0:	fdc42703          	lw	a4,-36(s0)
   102e4:	00f707b3          	add	a5,a4,a5
   102e8:	fe842703          	lw	a4,-24(s0)
   102ec:	00e7a023          	sw	a4,0(a5)
   102f0:	fe842783          	lw	a5,-24(s0)
   102f4:	fef42623          	sw	a5,-20(s0)
   102f8:	0380006f          	j	10330 <Proc_8+0xc8>
   102fc:	fe842703          	lw	a4,-24(s0)
   10300:	0c800793          	li	a5,200
   10304:	02f707b3          	mul	a5,a4,a5
   10308:	fd842703          	lw	a4,-40(s0)
   1030c:	00f70733          	add	a4,a4,a5
   10310:	fec42783          	lw	a5,-20(s0)
   10314:	00279793          	slli	a5,a5,0x2
   10318:	00f707b3          	add	a5,a4,a5
   1031c:	fe842703          	lw	a4,-24(s0)
   10320:	00e7a023          	sw	a4,0(a5)
   10324:	fec42783          	lw	a5,-20(s0)
   10328:	00178793          	addi	a5,a5,1
   1032c:	fef42623          	sw	a5,-20(s0)
   10330:	fe842783          	lw	a5,-24(s0)
   10334:	00178713          	addi	a4,a5,1
   10338:	fec42783          	lw	a5,-20(s0)
   1033c:	fcf750e3          	ble	a5,a4,102fc <Proc_8+0x94>
   10340:	fe842703          	lw	a4,-24(s0)
   10344:	0c800793          	li	a5,200
   10348:	02f707b3          	mul	a5,a4,a5
   1034c:	fd842703          	lw	a4,-40(s0)
   10350:	00f706b3          	add	a3,a4,a5
   10354:	fe842783          	lw	a5,-24(s0)
   10358:	fff78793          	addi	a5,a5,-1
   1035c:	fe842603          	lw	a2,-24(s0)
   10360:	0c800713          	li	a4,200
   10364:	02e60733          	mul	a4,a2,a4
   10368:	fd842603          	lw	a2,-40(s0)
   1036c:	00e60633          	add	a2,a2,a4
   10370:	fe842703          	lw	a4,-24(s0)
   10374:	fff70713          	addi	a4,a4,-1
   10378:	00271713          	slli	a4,a4,0x2
   1037c:	00e60733          	add	a4,a2,a4
   10380:	00072703          	lw	a4,0(a4)
   10384:	00170713          	addi	a4,a4,1
   10388:	00279793          	slli	a5,a5,0x2
   1038c:	00f687b3          	add	a5,a3,a5
   10390:	00e7a023          	sw	a4,0(a5)
   10394:	fe842703          	lw	a4,-24(s0)
   10398:	0c800793          	li	a5,200
   1039c:	02f70733          	mul	a4,a4,a5
   103a0:	000017b7          	lui	a5,0x1
   103a4:	fa078793          	addi	a5,a5,-96 # fa0 <_ftext-0xf060>
   103a8:	00f707b3          	add	a5,a4,a5
   103ac:	fd842703          	lw	a4,-40(s0)
   103b0:	00f706b3          	add	a3,a4,a5
   103b4:	fe842783          	lw	a5,-24(s0)
   103b8:	00279793          	slli	a5,a5,0x2
   103bc:	fdc42703          	lw	a4,-36(s0)
   103c0:	00f707b3          	add	a5,a4,a5
   103c4:	0007a703          	lw	a4,0(a5)
   103c8:	fe842783          	lw	a5,-24(s0)
   103cc:	00279793          	slli	a5,a5,0x2
   103d0:	00f687b3          	add	a5,a3,a5
   103d4:	00e7a023          	sw	a4,0(a5)
   103d8:	000207b7          	lui	a5,0x20
   103dc:	00500713          	li	a4,5
   103e0:	68e7a823          	sw	a4,1680(a5) # 20690 <Int_Glob>
   103e4:	00000013          	nop
   103e8:	00078513          	mv	a0,a5
   103ec:	02c12403          	lw	s0,44(sp)
   103f0:	03010113          	addi	sp,sp,48
   103f4:	00008067          	ret

000103f8 <Func_1>:
   103f8:	fd010113          	addi	sp,sp,-48
   103fc:	02812623          	sw	s0,44(sp)
   10400:	03010413          	addi	s0,sp,48
   10404:	00050713          	mv	a4,a0
   10408:	00058793          	mv	a5,a1
   1040c:	fce40e23          	sb	a4,-36(s0)
   10410:	fcf40c23          	sb	a5,-40(s0)
   10414:	fdc44783          	lbu	a5,-36(s0)
   10418:	fef407a3          	sb	a5,-17(s0)
   1041c:	fef44783          	lbu	a5,-17(s0)
   10420:	fef40723          	sb	a5,-18(s0)
   10424:	fee44703          	lbu	a4,-18(s0)
   10428:	fd844783          	lbu	a5,-40(s0)
   1042c:	00f70663          	beq	a4,a5,10438 <Func_1+0x40>
   10430:	00000793          	li	a5,0
   10434:	0140006f          	j	10448 <Func_1+0x50>
   10438:	000207b7          	lui	a5,0x20
   1043c:	fef44703          	lbu	a4,-17(s0)
   10440:	68e78a23          	sb	a4,1684(a5) # 20694 <Ch_1_Glob>
   10444:	00100793          	li	a5,1
   10448:	00078513          	mv	a0,a5
   1044c:	02c12403          	lw	s0,44(sp)
   10450:	03010113          	addi	sp,sp,48
   10454:	00008067          	ret

00010458 <Func_2>:
   10458:	fd010113          	addi	sp,sp,-48
   1045c:	02112623          	sw	ra,44(sp)
   10460:	02812423          	sw	s0,40(sp)
   10464:	03010413          	addi	s0,sp,48
   10468:	fca42e23          	sw	a0,-36(s0)
   1046c:	fcb42c23          	sw	a1,-40(s0)
   10470:	00200793          	li	a5,2
   10474:	fef42623          	sw	a5,-20(s0)
   10478:	0540006f          	j	104cc <Func_2+0x74>
   1047c:	fec42783          	lw	a5,-20(s0)
   10480:	fdc42703          	lw	a4,-36(s0)
   10484:	00f707b3          	add	a5,a4,a5
   10488:	0007c783          	lbu	a5,0(a5)
   1048c:	00078693          	mv	a3,a5
   10490:	fec42783          	lw	a5,-20(s0)
   10494:	00178793          	addi	a5,a5,1
   10498:	fd842703          	lw	a4,-40(s0)
   1049c:	00f707b3          	add	a5,a4,a5
   104a0:	0007c783          	lbu	a5,0(a5)
   104a4:	00078593          	mv	a1,a5
   104a8:	00068513          	mv	a0,a3
   104ac:	f4dff0ef          	jal	103f8 <Func_1>
   104b0:	00050793          	mv	a5,a0
   104b4:	00079c63          	bnez	a5,104cc <Func_2+0x74>
   104b8:	04100793          	li	a5,65
   104bc:	fef405a3          	sb	a5,-21(s0)
   104c0:	fec42783          	lw	a5,-20(s0)
   104c4:	00178793          	addi	a5,a5,1
   104c8:	fef42623          	sw	a5,-20(s0)
   104cc:	fec42703          	lw	a4,-20(s0)
   104d0:	00200793          	li	a5,2
   104d4:	fae7d4e3          	ble	a4,a5,1047c <Func_2+0x24>
   104d8:	feb44703          	lbu	a4,-21(s0)
   104dc:	05600793          	li	a5,86
   104e0:	00e7fc63          	bleu	a4,a5,104f8 <Func_2+0xa0>
   104e4:	feb44703          	lbu	a4,-21(s0)
   104e8:	05900793          	li	a5,89
   104ec:	00e7e663          	bltu	a5,a4,104f8 <Func_2+0xa0>
   104f0:	00700793          	li	a5,7
   104f4:	fef42623          	sw	a5,-20(s0)
   104f8:	feb44703          	lbu	a4,-21(s0)
   104fc:	05200793          	li	a5,82
   10500:	00f71663          	bne	a4,a5,1050c <Func_2+0xb4>
   10504:	00100793          	li	a5,1
   10508:	03c0006f          	j	10544 <Func_2+0xec>
   1050c:	fd842583          	lw	a1,-40(s0)
   10510:	fdc42503          	lw	a0,-36(s0)
   10514:	675020ef          	jal	13388 <strcmp>
   10518:	00050793          	mv	a5,a0
   1051c:	02f05263          	blez	a5,10540 <Func_2+0xe8>
   10520:	fec42783          	lw	a5,-20(s0)
   10524:	00778793          	addi	a5,a5,7
   10528:	fef42623          	sw	a5,-20(s0)
   1052c:	000207b7          	lui	a5,0x20
   10530:	fec42703          	lw	a4,-20(s0)
   10534:	68e7a823          	sw	a4,1680(a5) # 20690 <Int_Glob>
   10538:	00100793          	li	a5,1
   1053c:	0080006f          	j	10544 <Func_2+0xec>
   10540:	00000793          	li	a5,0
   10544:	00078513          	mv	a0,a5
   10548:	02c12083          	lw	ra,44(sp)
   1054c:	02812403          	lw	s0,40(sp)
   10550:	03010113          	addi	sp,sp,48
   10554:	00008067          	ret

00010558 <Func_3>:
   10558:	fd010113          	addi	sp,sp,-48
   1055c:	02812623          	sw	s0,44(sp)
   10560:	03010413          	addi	s0,sp,48
   10564:	fca42e23          	sw	a0,-36(s0)
   10568:	fdc42783          	lw	a5,-36(s0)
   1056c:	fef42623          	sw	a5,-20(s0)
   10570:	fec42703          	lw	a4,-20(s0)
   10574:	00200793          	li	a5,2
   10578:	00f71663          	bne	a4,a5,10584 <Func_3+0x2c>
   1057c:	00100793          	li	a5,1
   10580:	0080006f          	j	10588 <Func_3+0x30>
   10584:	00000793          	li	a5,0
   10588:	00078513          	mv	a0,a5
   1058c:	02c12403          	lw	s0,44(sp)
   10590:	03010113          	addi	sp,sp,48
   10594:	00008067          	ret

00010598 <debug_printf>:
   10598:	fc010113          	addi	sp,sp,-64
   1059c:	00812e23          	sw	s0,28(sp)
   105a0:	02010413          	addi	s0,sp,32
   105a4:	fea42623          	sw	a0,-20(s0)
   105a8:	00b42223          	sw	a1,4(s0)
   105ac:	00c42423          	sw	a2,8(s0)
   105b0:	00d42623          	sw	a3,12(s0)
   105b4:	00e42823          	sw	a4,16(s0)
   105b8:	00f42a23          	sw	a5,20(s0)
   105bc:	01042c23          	sw	a6,24(s0)
   105c0:	01142e23          	sw	a7,28(s0)
   105c4:	00000013          	nop
   105c8:	01c12403          	lw	s0,28(sp)
   105cc:	04010113          	addi	sp,sp,64
   105d0:	00008067          	ret

000105d4 <main>:
   105d4:	f8010113          	addi	sp,sp,-128
   105d8:	06112e23          	sw	ra,124(sp)
   105dc:	06812c23          	sw	s0,120(sp)
   105e0:	08010413          	addi	s0,sp,128
   105e4:	f8a42623          	sw	a0,-116(s0)
   105e8:	f8b42423          	sw	a1,-120(s0)
   105ec:	1f400793          	li	a5,500
   105f0:	fef42023          	sw	a5,-32(s0)
   105f4:	fc010113          	addi	sp,sp,-64
   105f8:	00010793          	mv	a5,sp
   105fc:	00f78793          	addi	a5,a5,15
   10600:	0047d793          	srli	a5,a5,0x4
   10604:	00479793          	slli	a5,a5,0x4
   10608:	00078713          	mv	a4,a5
   1060c:	000207b7          	lui	a5,0x20
   10610:	68e7a623          	sw	a4,1676(a5) # 2068c <Next_Ptr_Glob>
   10614:	fc010113          	addi	sp,sp,-64
   10618:	00010793          	mv	a5,sp
   1061c:	00f78793          	addi	a5,a5,15
   10620:	0047d793          	srli	a5,a5,0x4
   10624:	00479793          	slli	a5,a5,0x4
   10628:	00078713          	mv	a4,a5
   1062c:	000207b7          	lui	a5,0x20
   10630:	68e7ac23          	sw	a4,1688(a5) # 20698 <Ptr_Glob>
   10634:	000207b7          	lui	a5,0x20
   10638:	6987a783          	lw	a5,1688(a5) # 20698 <Ptr_Glob>
   1063c:	00020737          	lui	a4,0x20
   10640:	68c72703          	lw	a4,1676(a4) # 2068c <Next_Ptr_Glob>
   10644:	00e7a023          	sw	a4,0(a5)
   10648:	000207b7          	lui	a5,0x20
   1064c:	6987a783          	lw	a5,1688(a5) # 20698 <Ptr_Glob>
   10650:	0007a223          	sw	zero,4(a5)
   10654:	000207b7          	lui	a5,0x20
   10658:	6987a783          	lw	a5,1688(a5) # 20698 <Ptr_Glob>
   1065c:	00200713          	li	a4,2
   10660:	00e7a423          	sw	a4,8(a5)
   10664:	000207b7          	lui	a5,0x20
   10668:	6987a783          	lw	a5,1688(a5) # 20698 <Ptr_Glob>
   1066c:	02800713          	li	a4,40
   10670:	00e7a623          	sw	a4,12(a5)
   10674:	000207b7          	lui	a5,0x20
   10678:	6987a783          	lw	a5,1688(a5) # 20698 <Ptr_Glob>
   1067c:	01078713          	addi	a4,a5,16
   10680:	0001b7b7          	lui	a5,0x1b
   10684:	00070693          	mv	a3,a4
   10688:	75878793          	addi	a5,a5,1880 # 1b758 <__errno+0x24>
   1068c:	01f00713          	li	a4,31
   10690:	00070613          	mv	a2,a4
   10694:	00078593          	mv	a1,a5
   10698:	00068513          	mv	a0,a3
   1069c:	0f5020ef          	jal	12f90 <memcpy>
   106a0:	0001b7b7          	lui	a5,0x1b
   106a4:	7787a883          	lw	a7,1912(a5) # 1b778 <__errno+0x44>
   106a8:	77878713          	addi	a4,a5,1912
   106ac:	00472803          	lw	a6,4(a4)
   106b0:	77878713          	addi	a4,a5,1912
   106b4:	00872503          	lw	a0,8(a4)
   106b8:	77878713          	addi	a4,a5,1912
   106bc:	00c72583          	lw	a1,12(a4)
   106c0:	77878713          	addi	a4,a5,1912
   106c4:	01072603          	lw	a2,16(a4)
   106c8:	77878713          	addi	a4,a5,1912
   106cc:	01472683          	lw	a3,20(a4)
   106d0:	77878713          	addi	a4,a5,1912
   106d4:	01872703          	lw	a4,24(a4)
   106d8:	fb142a23          	sw	a7,-76(s0)
   106dc:	fb042c23          	sw	a6,-72(s0)
   106e0:	faa42e23          	sw	a0,-68(s0)
   106e4:	fcb42023          	sw	a1,-64(s0)
   106e8:	fcc42223          	sw	a2,-60(s0)
   106ec:	fcd42423          	sw	a3,-56(s0)
   106f0:	fce42623          	sw	a4,-52(s0)
   106f4:	77878793          	addi	a5,a5,1912
   106f8:	01c7d703          	lhu	a4,28(a5)
   106fc:	fce41823          	sh	a4,-48(s0)
   10700:	01e7c783          	lbu	a5,30(a5)
   10704:	fcf40923          	sb	a5,-46(s0)
   10708:	90818793          	addi	a5,gp,-1784 # 1df78 <Arr_2_Glob>
   1070c:	00a00713          	li	a4,10
   10710:	64e7ae23          	sw	a4,1628(a5)
   10714:	00a00513          	li	a0,10
   10718:	235020ef          	jal	1314c <putchar>
   1071c:	0001b7b7          	lui	a5,0x1b
   10720:	79878593          	addi	a1,a5,1944 # 1b798 <__errno+0x64>
   10724:	0001b7b7          	lui	a5,0x1b
   10728:	7a878513          	addi	a0,a5,1960 # 1b7a8 <__errno+0x74>
   1072c:	1c9020ef          	jal	130f4 <printf>
   10730:	8701a783          	lw	a5,-1936(gp) # 1dee0 <Reg>
   10734:	00078a63          	beqz	a5,10748 <main+0x174>
   10738:	0001b7b7          	lui	a5,0x1b
   1073c:	7cc78513          	addi	a0,a5,1996 # 1b7cc <__errno+0x98>
   10740:	43d020ef          	jal	1337c <puts>
   10744:	0100006f          	j	10754 <main+0x180>
   10748:	0001b7b7          	lui	a5,0x1b
   1074c:	7f878513          	addi	a0,a5,2040 # 1b7f8 <__errno+0xc4>
   10750:	42d020ef          	jal	1337c <puts>
   10754:	03c00613          	li	a2,60
   10758:	0001c7b7          	lui	a5,0x1c
   1075c:	82878593          	addi	a1,a5,-2008 # 1b828 <__errno+0xf4>
   10760:	0001c7b7          	lui	a5,0x1c
   10764:	83878513          	addi	a0,a5,-1992 # 1b838 <__errno+0x104>
   10768:	18d020ef          	jal	130f4 <printf>
   1076c:	00a00513          	li	a0,10
   10770:	1dd020ef          	jal	1314c <putchar>
   10774:	000207b7          	lui	a5,0x20
   10778:	6807ae23          	sw	zero,1692(a5) # 2069c <Done>
   1077c:	0001c7b7          	lui	a5,0x1c
   10780:	84c78513          	addi	a0,a5,-1972 # 1b84c <__errno+0x118>
   10784:	171020ef          	jal	130f4 <printf>
   10788:	1f400793          	li	a5,500
   1078c:	fef42023          	sw	a5,-32(s0)
   10790:	3180006f          	j	10aa8 <main+0x4d4>
   10794:	fe042583          	lw	a1,-32(s0)
   10798:	0001c7b7          	lui	a5,0x1c
   1079c:	88478513          	addi	a0,a5,-1916 # 1b884 <__errno+0x150>
   107a0:	155020ef          	jal	130f4 <printf>
   107a4:	00000593          	li	a1,0
   107a8:	8e818513          	addi	a0,gp,-1816 # 1df58 <run_time>
   107ac:	69d0a0ef          	jal	1b648 <gettimeofday>
   107b0:	8e81a703          	lw	a4,-1816(gp) # 1df58 <run_time>
   107b4:	8ec1a783          	lw	a5,-1812(gp) # 1df5c <run_time+0x4>
   107b8:	90e1a223          	sw	a4,-1788(gp) # 1df74 <Begin_Time>
   107bc:	00100793          	li	a5,1
   107c0:	fef42223          	sw	a5,-28(s0)
   107c4:	2640006f          	j	10a28 <main+0x454>
   107c8:	1b1000ef          	jal	11178 <Proc_5>
   107cc:	151000ef          	jal	1111c <Proc_4>
   107d0:	00200793          	li	a5,2
   107d4:	fcf42e23          	sw	a5,-36(s0)
   107d8:	00300793          	li	a5,3
   107dc:	fef42623          	sw	a5,-20(s0)
   107e0:	0001c7b7          	lui	a5,0x1c
   107e4:	8a87a883          	lw	a7,-1880(a5) # 1b8a8 <__errno+0x174>
   107e8:	8a878713          	addi	a4,a5,-1880
   107ec:	00472803          	lw	a6,4(a4)
   107f0:	8a878713          	addi	a4,a5,-1880
   107f4:	00872503          	lw	a0,8(a4)
   107f8:	8a878713          	addi	a4,a5,-1880
   107fc:	00c72583          	lw	a1,12(a4)
   10800:	8a878713          	addi	a4,a5,-1880
   10804:	01072603          	lw	a2,16(a4)
   10808:	8a878713          	addi	a4,a5,-1880
   1080c:	01472683          	lw	a3,20(a4)
   10810:	8a878713          	addi	a4,a5,-1880
   10814:	01872703          	lw	a4,24(a4)
   10818:	f9142a23          	sw	a7,-108(s0)
   1081c:	f9042c23          	sw	a6,-104(s0)
   10820:	f8a42e23          	sw	a0,-100(s0)
   10824:	fab42023          	sw	a1,-96(s0)
   10828:	fac42223          	sw	a2,-92(s0)
   1082c:	fad42423          	sw	a3,-88(s0)
   10830:	fae42623          	sw	a4,-84(s0)
   10834:	8a878793          	addi	a5,a5,-1880
   10838:	01c7d703          	lhu	a4,28(a5)
   1083c:	fae41823          	sh	a4,-80(s0)
   10840:	01e7c783          	lbu	a5,30(a5)
   10844:	faf40923          	sb	a5,-78(s0)
   10848:	00100793          	li	a5,1
   1084c:	fcf42a23          	sw	a5,-44(s0)
   10850:	f9440713          	addi	a4,s0,-108
   10854:	fb440793          	addi	a5,s0,-76
   10858:	00070593          	mv	a1,a4
   1085c:	00078513          	mv	a0,a5
   10860:	bf9ff0ef          	jal	10458 <Func_2>
   10864:	00050793          	mv	a5,a0
   10868:	0017b793          	seqz	a5,a5
   1086c:	0ff7f793          	andi	a5,a5,255
   10870:	00078713          	mv	a4,a5
   10874:	000207b7          	lui	a5,0x20
   10878:	76e7a423          	sw	a4,1896(a5) # 20768 <Bool_Glob>
   1087c:	0440006f          	j	108c0 <main+0x2ec>
   10880:	fdc42703          	lw	a4,-36(s0)
   10884:	00070793          	mv	a5,a4
   10888:	00279793          	slli	a5,a5,0x2
   1088c:	00e78733          	add	a4,a5,a4
   10890:	fec42783          	lw	a5,-20(s0)
   10894:	40f707b3          	sub	a5,a4,a5
   10898:	fcf42c23          	sw	a5,-40(s0)
   1089c:	fdc42783          	lw	a5,-36(s0)
   108a0:	fd840713          	addi	a4,s0,-40
   108a4:	00070613          	mv	a2,a4
   108a8:	fec42583          	lw	a1,-20(s0)
   108ac:	00078513          	mv	a0,a5
   108b0:	96dff0ef          	jal	1021c <Proc_7>
   108b4:	fdc42783          	lw	a5,-36(s0)
   108b8:	00178793          	addi	a5,a5,1
   108bc:	fcf42e23          	sw	a5,-36(s0)
   108c0:	fdc42703          	lw	a4,-36(s0)
   108c4:	fec42783          	lw	a5,-20(s0)
   108c8:	faf74ce3          	blt	a4,a5,10880 <main+0x2ac>
   108cc:	fdc42783          	lw	a5,-36(s0)
   108d0:	fd842703          	lw	a4,-40(s0)
   108d4:	00070693          	mv	a3,a4
   108d8:	00078613          	mv	a2,a5
   108dc:	90818593          	addi	a1,gp,-1784 # 1df78 <Arr_2_Glob>
   108e0:	000207b7          	lui	a5,0x20
   108e4:	6a078513          	addi	a0,a5,1696 # 206a0 <Arr_1_Glob>
   108e8:	981ff0ef          	jal	10268 <Proc_8>
   108ec:	000207b7          	lui	a5,0x20
   108f0:	6987a783          	lw	a5,1688(a5) # 20698 <Ptr_Glob>
   108f4:	00078513          	mv	a0,a5
   108f8:	618000ef          	jal	10f10 <Proc_1>
   108fc:	04100793          	li	a5,65
   10900:	fef405a3          	sb	a5,-21(s0)
   10904:	0b80006f          	j	109bc <main+0x3e8>
   10908:	feb44783          	lbu	a5,-21(s0)
   1090c:	04300593          	li	a1,67
   10910:	00078513          	mv	a0,a5
   10914:	ae5ff0ef          	jal	103f8 <Func_1>
   10918:	00050713          	mv	a4,a0
   1091c:	fd442783          	lw	a5,-44(s0)
   10920:	08f71863          	bne	a4,a5,109b0 <main+0x3dc>
   10924:	fd440793          	addi	a5,s0,-44
   10928:	00078593          	mv	a1,a5
   1092c:	00000513          	li	a0,0
   10930:	811ff0ef          	jal	10140 <Proc_6>
   10934:	0001c7b7          	lui	a5,0x1c
   10938:	8c87a883          	lw	a7,-1848(a5) # 1b8c8 <__errno+0x194>
   1093c:	8c878713          	addi	a4,a5,-1848
   10940:	00472803          	lw	a6,4(a4)
   10944:	8c878713          	addi	a4,a5,-1848
   10948:	00872503          	lw	a0,8(a4)
   1094c:	8c878713          	addi	a4,a5,-1848
   10950:	00c72583          	lw	a1,12(a4)
   10954:	8c878713          	addi	a4,a5,-1848
   10958:	01072603          	lw	a2,16(a4)
   1095c:	8c878713          	addi	a4,a5,-1848
   10960:	01472683          	lw	a3,20(a4)
   10964:	8c878713          	addi	a4,a5,-1848
   10968:	01872703          	lw	a4,24(a4)
   1096c:	f9142a23          	sw	a7,-108(s0)
   10970:	f9042c23          	sw	a6,-104(s0)
   10974:	f8a42e23          	sw	a0,-100(s0)
   10978:	fab42023          	sw	a1,-96(s0)
   1097c:	fac42223          	sw	a2,-92(s0)
   10980:	fad42423          	sw	a3,-88(s0)
   10984:	fae42623          	sw	a4,-84(s0)
   10988:	8c878793          	addi	a5,a5,-1848
   1098c:	01c7d703          	lhu	a4,28(a5)
   10990:	fae41823          	sh	a4,-80(s0)
   10994:	01e7c783          	lbu	a5,30(a5)
   10998:	faf40923          	sb	a5,-78(s0)
   1099c:	fe442783          	lw	a5,-28(s0)
   109a0:	fef42623          	sw	a5,-20(s0)
   109a4:	000207b7          	lui	a5,0x20
   109a8:	fe442703          	lw	a4,-28(s0)
   109ac:	68e7a823          	sw	a4,1680(a5) # 20690 <Int_Glob>
   109b0:	feb44783          	lbu	a5,-21(s0)
   109b4:	00178793          	addi	a5,a5,1
   109b8:	fef405a3          	sb	a5,-21(s0)
   109bc:	000207b7          	lui	a5,0x20
   109c0:	6957c783          	lbu	a5,1685(a5) # 20695 <Ch_2_Glob>
   109c4:	feb44703          	lbu	a4,-21(s0)
   109c8:	f4e7f0e3          	bleu	a4,a5,10908 <main+0x334>
   109cc:	fdc42783          	lw	a5,-36(s0)
   109d0:	fec42703          	lw	a4,-20(s0)
   109d4:	02f707b3          	mul	a5,a4,a5
   109d8:	fef42623          	sw	a5,-20(s0)
   109dc:	fd842783          	lw	a5,-40(s0)
   109e0:	fec42703          	lw	a4,-20(s0)
   109e4:	02f747b3          	div	a5,a4,a5
   109e8:	fcf42e23          	sw	a5,-36(s0)
   109ec:	fd842783          	lw	a5,-40(s0)
   109f0:	fec42703          	lw	a4,-20(s0)
   109f4:	40f70733          	sub	a4,a4,a5
   109f8:	00070793          	mv	a5,a4
   109fc:	00379793          	slli	a5,a5,0x3
   10a00:	40e78733          	sub	a4,a5,a4
   10a04:	fdc42783          	lw	a5,-36(s0)
   10a08:	40f707b3          	sub	a5,a4,a5
   10a0c:	fef42623          	sw	a5,-20(s0)
   10a10:	fdc40793          	addi	a5,s0,-36
   10a14:	00078513          	mv	a0,a5
   10a18:	620000ef          	jal	11038 <Proc_2>
   10a1c:	fe442783          	lw	a5,-28(s0)
   10a20:	00178793          	addi	a5,a5,1
   10a24:	fef42223          	sw	a5,-28(s0)
   10a28:	fe442703          	lw	a4,-28(s0)
   10a2c:	fe042783          	lw	a5,-32(s0)
   10a30:	d8e7dce3          	ble	a4,a5,107c8 <main+0x1f4>
   10a34:	00000593          	li	a1,0
   10a38:	8e818513          	addi	a0,gp,-1816 # 1df58 <run_time>
   10a3c:	40d0a0ef          	jal	1b648 <gettimeofday>
   10a40:	8e81a703          	lw	a4,-1816(gp) # 1df58 <run_time>
   10a44:	8ec1a783          	lw	a5,-1812(gp) # 1df5c <run_time+0x4>
   10a48:	000207b7          	lui	a5,0x20
   10a4c:	68e7a423          	sw	a4,1672(a5) # 20688 <End_Time>
   10a50:	000207b7          	lui	a5,0x20
   10a54:	6887a703          	lw	a4,1672(a5) # 20688 <End_Time>
   10a58:	9041a783          	lw	a5,-1788(gp) # 1df74 <Begin_Time>
   10a5c:	40f70733          	sub	a4,a4,a5
   10a60:	90e1a023          	sw	a4,-1792(gp) # 1df70 <User_Time>
   10a64:	9001a703          	lw	a4,-1792(gp) # 1df70 <User_Time>
   10a68:	03b00793          	li	a5,59
   10a6c:	02e7c863          	blt	a5,a4,10a9c <main+0x4c8>
   10a70:	0001c7b7          	lui	a5,0x1c
   10a74:	8e878513          	addi	a0,a5,-1816 # 1b8e8 <__errno+0x1b4>
   10a78:	105020ef          	jal	1337c <puts>
   10a7c:	fe042783          	lw	a5,-32(s0)
   10a80:	00179793          	slli	a5,a5,0x1
   10a84:	00279713          	slli	a4,a5,0x2
   10a88:	00e787b3          	add	a5,a5,a4
   10a8c:	fef42023          	sw	a5,-32(s0)
   10a90:	00a00513          	li	a0,10
   10a94:	6b8020ef          	jal	1314c <putchar>
   10a98:	0100006f          	j	10aa8 <main+0x4d4>
   10a9c:	000207b7          	lui	a5,0x20
   10aa0:	00100713          	li	a4,1
   10aa4:	68e7ae23          	sw	a4,1692(a5) # 2069c <Done>
   10aa8:	000207b7          	lui	a5,0x20
   10aac:	69c7a783          	lw	a5,1692(a5) # 2069c <Done>
   10ab0:	ce0782e3          	beqz	a5,10794 <main+0x1c0>
   10ab4:	0001c7b7          	lui	a5,0x1c
   10ab8:	92078513          	addi	a0,a5,-1760 # 1b920 <__errno+0x1ec>
   10abc:	0c1020ef          	jal	1337c <puts>
   10ac0:	00a00513          	li	a0,10
   10ac4:	688020ef          	jal	1314c <putchar>
   10ac8:	000207b7          	lui	a5,0x20
   10acc:	6907a783          	lw	a5,1680(a5) # 20690 <Int_Glob>
   10ad0:	00078593          	mv	a1,a5
   10ad4:	0001c7b7          	lui	a5,0x1c
   10ad8:	95878513          	addi	a0,a5,-1704 # 1b958 <__errno+0x224>
   10adc:	618020ef          	jal	130f4 <printf>
   10ae0:	00500593          	li	a1,5
   10ae4:	0001c7b7          	lui	a5,0x1c
   10ae8:	97478513          	addi	a0,a5,-1676 # 1b974 <__errno+0x240>
   10aec:	608020ef          	jal	130f4 <printf>
   10af0:	000207b7          	lui	a5,0x20
   10af4:	7687a783          	lw	a5,1896(a5) # 20768 <Bool_Glob>
   10af8:	00078593          	mv	a1,a5
   10afc:	0001c7b7          	lui	a5,0x1c
   10b00:	99078513          	addi	a0,a5,-1648 # 1b990 <__errno+0x25c>
   10b04:	5f0020ef          	jal	130f4 <printf>
   10b08:	00100593          	li	a1,1
   10b0c:	0001c7b7          	lui	a5,0x1c
   10b10:	97478513          	addi	a0,a5,-1676 # 1b974 <__errno+0x240>
   10b14:	5e0020ef          	jal	130f4 <printf>
   10b18:	000207b7          	lui	a5,0x20
   10b1c:	6947c783          	lbu	a5,1684(a5) # 20694 <Ch_1_Glob>
   10b20:	00078593          	mv	a1,a5
   10b24:	0001c7b7          	lui	a5,0x1c
   10b28:	9ac78513          	addi	a0,a5,-1620 # 1b9ac <__errno+0x278>
   10b2c:	5c8020ef          	jal	130f4 <printf>
   10b30:	04100593          	li	a1,65
   10b34:	0001c7b7          	lui	a5,0x1c
   10b38:	9c878513          	addi	a0,a5,-1592 # 1b9c8 <__errno+0x294>
   10b3c:	5b8020ef          	jal	130f4 <printf>
   10b40:	000207b7          	lui	a5,0x20
   10b44:	6957c783          	lbu	a5,1685(a5) # 20695 <Ch_2_Glob>
   10b48:	00078593          	mv	a1,a5
   10b4c:	0001c7b7          	lui	a5,0x1c
   10b50:	9e478513          	addi	a0,a5,-1564 # 1b9e4 <__errno+0x2b0>
   10b54:	5a0020ef          	jal	130f4 <printf>
   10b58:	04200593          	li	a1,66
   10b5c:	0001c7b7          	lui	a5,0x1c
   10b60:	9c878513          	addi	a0,a5,-1592 # 1b9c8 <__errno+0x294>
   10b64:	590020ef          	jal	130f4 <printf>
   10b68:	000207b7          	lui	a5,0x20
   10b6c:	6a078793          	addi	a5,a5,1696 # 206a0 <Arr_1_Glob>
   10b70:	0207a783          	lw	a5,32(a5)
   10b74:	00078593          	mv	a1,a5
   10b78:	0001c7b7          	lui	a5,0x1c
   10b7c:	a0078513          	addi	a0,a5,-1536 # 1ba00 <__errno+0x2cc>
   10b80:	574020ef          	jal	130f4 <printf>
   10b84:	00700593          	li	a1,7
   10b88:	0001c7b7          	lui	a5,0x1c
   10b8c:	97478513          	addi	a0,a5,-1676 # 1b974 <__errno+0x240>
   10b90:	564020ef          	jal	130f4 <printf>
   10b94:	90818793          	addi	a5,gp,-1784 # 1df78 <Arr_2_Glob>
   10b98:	65c7a783          	lw	a5,1628(a5)
   10b9c:	00078593          	mv	a1,a5
   10ba0:	0001c7b7          	lui	a5,0x1c
   10ba4:	a1c78513          	addi	a0,a5,-1508 # 1ba1c <__errno+0x2e8>
   10ba8:	54c020ef          	jal	130f4 <printf>
   10bac:	0001c7b7          	lui	a5,0x1c
   10bb0:	a3878513          	addi	a0,a5,-1480 # 1ba38 <__errno+0x304>
   10bb4:	7c8020ef          	jal	1337c <puts>
   10bb8:	0001c7b7          	lui	a5,0x1c
   10bbc:	a6478513          	addi	a0,a5,-1436 # 1ba64 <__errno+0x330>
   10bc0:	7bc020ef          	jal	1337c <puts>
   10bc4:	000207b7          	lui	a5,0x20
   10bc8:	6987a783          	lw	a5,1688(a5) # 20698 <Ptr_Glob>
   10bcc:	0007a783          	lw	a5,0(a5)
   10bd0:	00078593          	mv	a1,a5
   10bd4:	0001c7b7          	lui	a5,0x1c
   10bd8:	a7078513          	addi	a0,a5,-1424 # 1ba70 <__errno+0x33c>
   10bdc:	518020ef          	jal	130f4 <printf>
   10be0:	0001c7b7          	lui	a5,0x1c
   10be4:	a8c78513          	addi	a0,a5,-1396 # 1ba8c <__errno+0x358>
   10be8:	794020ef          	jal	1337c <puts>
   10bec:	000207b7          	lui	a5,0x20
   10bf0:	6987a783          	lw	a5,1688(a5) # 20698 <Ptr_Glob>
   10bf4:	0047a783          	lw	a5,4(a5)
   10bf8:	00078593          	mv	a1,a5
   10bfc:	0001c7b7          	lui	a5,0x1c
   10c00:	abc78513          	addi	a0,a5,-1348 # 1babc <__errno+0x388>
   10c04:	4f0020ef          	jal	130f4 <printf>
   10c08:	00000593          	li	a1,0
   10c0c:	0001c7b7          	lui	a5,0x1c
   10c10:	97478513          	addi	a0,a5,-1676 # 1b974 <__errno+0x240>
   10c14:	4e0020ef          	jal	130f4 <printf>
   10c18:	000207b7          	lui	a5,0x20
   10c1c:	6987a783          	lw	a5,1688(a5) # 20698 <Ptr_Glob>
   10c20:	0087a783          	lw	a5,8(a5)
   10c24:	00078593          	mv	a1,a5
   10c28:	0001c7b7          	lui	a5,0x1c
   10c2c:	ad878513          	addi	a0,a5,-1320 # 1bad8 <__errno+0x3a4>
   10c30:	4c4020ef          	jal	130f4 <printf>
   10c34:	00200593          	li	a1,2
   10c38:	0001c7b7          	lui	a5,0x1c
   10c3c:	97478513          	addi	a0,a5,-1676 # 1b974 <__errno+0x240>
   10c40:	4b4020ef          	jal	130f4 <printf>
   10c44:	000207b7          	lui	a5,0x20
   10c48:	6987a783          	lw	a5,1688(a5) # 20698 <Ptr_Glob>
   10c4c:	00c7a783          	lw	a5,12(a5)
   10c50:	00078593          	mv	a1,a5
   10c54:	0001c7b7          	lui	a5,0x1c
   10c58:	af478513          	addi	a0,a5,-1292 # 1baf4 <__errno+0x3c0>
   10c5c:	498020ef          	jal	130f4 <printf>
   10c60:	01100593          	li	a1,17
   10c64:	0001c7b7          	lui	a5,0x1c
   10c68:	97478513          	addi	a0,a5,-1676 # 1b974 <__errno+0x240>
   10c6c:	488020ef          	jal	130f4 <printf>
   10c70:	000207b7          	lui	a5,0x20
   10c74:	6987a783          	lw	a5,1688(a5) # 20698 <Ptr_Glob>
   10c78:	01078793          	addi	a5,a5,16
   10c7c:	00078593          	mv	a1,a5
   10c80:	0001c7b7          	lui	a5,0x1c
   10c84:	b1078513          	addi	a0,a5,-1264 # 1bb10 <__errno+0x3dc>
   10c88:	46c020ef          	jal	130f4 <printf>
   10c8c:	0001c7b7          	lui	a5,0x1c
   10c90:	b2c78513          	addi	a0,a5,-1236 # 1bb2c <__errno+0x3f8>
   10c94:	6e8020ef          	jal	1337c <puts>
   10c98:	0001c7b7          	lui	a5,0x1c
   10c9c:	b6078513          	addi	a0,a5,-1184 # 1bb60 <__errno+0x42c>
   10ca0:	6dc020ef          	jal	1337c <puts>
   10ca4:	000207b7          	lui	a5,0x20
   10ca8:	68c7a783          	lw	a5,1676(a5) # 2068c <Next_Ptr_Glob>
   10cac:	0007a783          	lw	a5,0(a5)
   10cb0:	00078593          	mv	a1,a5
   10cb4:	0001c7b7          	lui	a5,0x1c
   10cb8:	a7078513          	addi	a0,a5,-1424 # 1ba70 <__errno+0x33c>
   10cbc:	438020ef          	jal	130f4 <printf>
   10cc0:	0001c7b7          	lui	a5,0x1c
   10cc4:	b7078513          	addi	a0,a5,-1168 # 1bb70 <__errno+0x43c>
   10cc8:	6b4020ef          	jal	1337c <puts>
   10ccc:	000207b7          	lui	a5,0x20
   10cd0:	68c7a783          	lw	a5,1676(a5) # 2068c <Next_Ptr_Glob>
   10cd4:	0047a783          	lw	a5,4(a5)
   10cd8:	00078593          	mv	a1,a5
   10cdc:	0001c7b7          	lui	a5,0x1c
   10ce0:	abc78513          	addi	a0,a5,-1348 # 1babc <__errno+0x388>
   10ce4:	410020ef          	jal	130f4 <printf>
   10ce8:	00000593          	li	a1,0
   10cec:	0001c7b7          	lui	a5,0x1c
   10cf0:	97478513          	addi	a0,a5,-1676 # 1b974 <__errno+0x240>
   10cf4:	400020ef          	jal	130f4 <printf>
   10cf8:	000207b7          	lui	a5,0x20
   10cfc:	68c7a783          	lw	a5,1676(a5) # 2068c <Next_Ptr_Glob>
   10d00:	0087a783          	lw	a5,8(a5)
   10d04:	00078593          	mv	a1,a5
   10d08:	0001c7b7          	lui	a5,0x1c
   10d0c:	ad878513          	addi	a0,a5,-1320 # 1bad8 <__errno+0x3a4>
   10d10:	3e4020ef          	jal	130f4 <printf>
   10d14:	00100593          	li	a1,1
   10d18:	0001c7b7          	lui	a5,0x1c
   10d1c:	97478513          	addi	a0,a5,-1676 # 1b974 <__errno+0x240>
   10d20:	3d4020ef          	jal	130f4 <printf>
   10d24:	000207b7          	lui	a5,0x20
   10d28:	68c7a783          	lw	a5,1676(a5) # 2068c <Next_Ptr_Glob>
   10d2c:	00c7a783          	lw	a5,12(a5)
   10d30:	00078593          	mv	a1,a5
   10d34:	0001c7b7          	lui	a5,0x1c
   10d38:	af478513          	addi	a0,a5,-1292 # 1baf4 <__errno+0x3c0>
   10d3c:	3b8020ef          	jal	130f4 <printf>
   10d40:	01200593          	li	a1,18
   10d44:	0001c7b7          	lui	a5,0x1c
   10d48:	97478513          	addi	a0,a5,-1676 # 1b974 <__errno+0x240>
   10d4c:	3a8020ef          	jal	130f4 <printf>
   10d50:	000207b7          	lui	a5,0x20
   10d54:	68c7a783          	lw	a5,1676(a5) # 2068c <Next_Ptr_Glob>
   10d58:	01078793          	addi	a5,a5,16
   10d5c:	00078593          	mv	a1,a5
   10d60:	0001c7b7          	lui	a5,0x1c
   10d64:	b1078513          	addi	a0,a5,-1264 # 1bb10 <__errno+0x3dc>
   10d68:	38c020ef          	jal	130f4 <printf>
   10d6c:	0001c7b7          	lui	a5,0x1c
   10d70:	b2c78513          	addi	a0,a5,-1236 # 1bb2c <__errno+0x3f8>
   10d74:	608020ef          	jal	1337c <puts>
   10d78:	fdc42783          	lw	a5,-36(s0)
   10d7c:	00078593          	mv	a1,a5
   10d80:	0001c7b7          	lui	a5,0x1c
   10d84:	bb078513          	addi	a0,a5,-1104 # 1bbb0 <__errno+0x47c>
   10d88:	36c020ef          	jal	130f4 <printf>
   10d8c:	00500593          	li	a1,5
   10d90:	0001c7b7          	lui	a5,0x1c
   10d94:	97478513          	addi	a0,a5,-1676 # 1b974 <__errno+0x240>
   10d98:	35c020ef          	jal	130f4 <printf>
   10d9c:	fec42583          	lw	a1,-20(s0)
   10da0:	0001c7b7          	lui	a5,0x1c
   10da4:	bcc78513          	addi	a0,a5,-1076 # 1bbcc <__errno+0x498>
   10da8:	34c020ef          	jal	130f4 <printf>
   10dac:	00d00593          	li	a1,13
   10db0:	0001c7b7          	lui	a5,0x1c
   10db4:	97478513          	addi	a0,a5,-1676 # 1b974 <__errno+0x240>
   10db8:	33c020ef          	jal	130f4 <printf>
   10dbc:	fd842783          	lw	a5,-40(s0)
   10dc0:	00078593          	mv	a1,a5
   10dc4:	0001c7b7          	lui	a5,0x1c
   10dc8:	be878513          	addi	a0,a5,-1048 # 1bbe8 <__errno+0x4b4>
   10dcc:	328020ef          	jal	130f4 <printf>
   10dd0:	00700593          	li	a1,7
   10dd4:	0001c7b7          	lui	a5,0x1c
   10dd8:	97478513          	addi	a0,a5,-1676 # 1b974 <__errno+0x240>
   10ddc:	318020ef          	jal	130f4 <printf>
   10de0:	fd442783          	lw	a5,-44(s0)
   10de4:	00078593          	mv	a1,a5
   10de8:	0001c7b7          	lui	a5,0x1c
   10dec:	c0478513          	addi	a0,a5,-1020 # 1bc04 <__errno+0x4d0>
   10df0:	304020ef          	jal	130f4 <printf>
   10df4:	00100593          	li	a1,1
   10df8:	0001c7b7          	lui	a5,0x1c
   10dfc:	97478513          	addi	a0,a5,-1676 # 1b974 <__errno+0x240>
   10e00:	2f4020ef          	jal	130f4 <printf>
   10e04:	fb440793          	addi	a5,s0,-76
   10e08:	00078593          	mv	a1,a5
   10e0c:	0001c7b7          	lui	a5,0x1c
   10e10:	c2078513          	addi	a0,a5,-992 # 1bc20 <__errno+0x4ec>
   10e14:	2e0020ef          	jal	130f4 <printf>
   10e18:	0001c7b7          	lui	a5,0x1c
   10e1c:	c3c78513          	addi	a0,a5,-964 # 1bc3c <__errno+0x508>
   10e20:	55c020ef          	jal	1337c <puts>
   10e24:	f9440793          	addi	a5,s0,-108
   10e28:	00078593          	mv	a1,a5
   10e2c:	0001c7b7          	lui	a5,0x1c
   10e30:	c7078513          	addi	a0,a5,-912 # 1bc70 <__errno+0x53c>
   10e34:	2c0020ef          	jal	130f4 <printf>
   10e38:	0001c7b7          	lui	a5,0x1c
   10e3c:	c8c78513          	addi	a0,a5,-884 # 1bc8c <__errno+0x558>
   10e40:	53c020ef          	jal	1337c <puts>
   10e44:	00a00513          	li	a0,10
   10e48:	304020ef          	jal	1314c <putchar>
   10e4c:	9001a783          	lw	a5,-1792(gp) # 1df70 <User_Time>
   10e50:	d007f053          	fcvt.s.w	ft0,a5
   10e54:	fe042783          	lw	a5,-32(s0)
   10e58:	d007f0d3          	fcvt.s.w	ft1,a5
   10e5c:	201085d3          	fmv.s	fa1,ft1
   10e60:	20000553          	fmv.s	fa0,ft0
   10e64:	189000ef          	jal	117ec <__divsf3>
   10e68:	20a50053          	fmv.s	ft0,fa0
   10e6c:	420000d3          	fcvt.d.s	ft1,ft0
   10e70:	0001c7b7          	lui	a5,0x1c
   10e74:	d207b007          	fld	ft0,-736(a5) # 1bd20 <__errno+0x5ec>
   10e78:	1200f053          	fmul.d	ft0,ft1,ft0
   10e7c:	0001c7b7          	lui	a5,0x1c
   10e80:	d287b607          	fld	fa2,-728(a5) # 1bd28 <__errno+0x5f4>
   10e84:	22000553          	fmv.d	fa0,ft0
   10e88:	0d5010ef          	jal	1275c <__divdf3>
   10e8c:	22a50053          	fmv.d	ft0,fa0
   10e90:	c2101753          	fcvt.wu.d	a4,ft0,rtz
   10e94:	8ee1ac23          	sw	a4,-1800(gp) # 1df68 <Microseconds>
   10e98:	fe042783          	lw	a5,-32(s0)
   10e9c:	d007f0d3          	fcvt.s.w	ft1,a5
   10ea0:	0001c7b7          	lui	a5,0x1c
   10ea4:	d307a007          	flw	ft0,-720(a5) # 1bd30 <__errno+0x5fc>
   10ea8:	1000f053          	fmul.s	ft0,ft1,ft0
   10eac:	9001a783          	lw	a5,-1792(gp) # 1df70 <User_Time>
   10eb0:	d007f0d3          	fcvt.s.w	ft1,a5
   10eb4:	201085d3          	fmv.s	fa1,ft1
   10eb8:	20000553          	fmv.s	fa0,ft0
   10ebc:	131000ef          	jal	117ec <__divsf3>
   10ec0:	20a50053          	fmv.s	ft0,fa0
   10ec4:	c0101753          	fcvt.wu.s	a4,ft0,rtz
   10ec8:	8ee1ae23          	sw	a4,-1796(gp) # 1df6c <Dhrystones_Per_Second>
   10ecc:	8f81a783          	lw	a5,-1800(gp) # 1df68 <Microseconds>
   10ed0:	00078593          	mv	a1,a5
   10ed4:	0001c7b7          	lui	a5,0x1c
   10ed8:	cc078513          	addi	a0,a5,-832 # 1bcc0 <__errno+0x58c>
   10edc:	218020ef          	jal	130f4 <printf>
   10ee0:	8fc1a783          	lw	a5,-1796(gp) # 1df6c <Dhrystones_Per_Second>
   10ee4:	00078593          	mv	a1,a5
   10ee8:	0001c7b7          	lui	a5,0x1c
   10eec:	cf078513          	addi	a0,a5,-784 # 1bcf0 <__errno+0x5bc>
   10ef0:	204020ef          	jal	130f4 <printf>
   10ef4:	00000793          	li	a5,0
   10ef8:	00078513          	mv	a0,a5
   10efc:	f8040113          	addi	sp,s0,-128
   10f00:	07c12083          	lw	ra,124(sp)
   10f04:	07812403          	lw	s0,120(sp)
   10f08:	08010113          	addi	sp,sp,128
   10f0c:	00008067          	ret

00010f10 <Proc_1>:
   10f10:	fd010113          	addi	sp,sp,-48
   10f14:	02112623          	sw	ra,44(sp)
   10f18:	02812423          	sw	s0,40(sp)
   10f1c:	03010413          	addi	s0,sp,48
   10f20:	fca42e23          	sw	a0,-36(s0)
   10f24:	fdc42783          	lw	a5,-36(s0)
   10f28:	0007a783          	lw	a5,0(a5)
   10f2c:	fef42623          	sw	a5,-20(s0)
   10f30:	fdc42783          	lw	a5,-36(s0)
   10f34:	0007a703          	lw	a4,0(a5)
   10f38:	000207b7          	lui	a5,0x20
   10f3c:	6987a783          	lw	a5,1688(a5) # 20698 <Ptr_Glob>
   10f40:	00078693          	mv	a3,a5
   10f44:	03000793          	li	a5,48
   10f48:	00078613          	mv	a2,a5
   10f4c:	00068593          	mv	a1,a3
   10f50:	00070513          	mv	a0,a4
   10f54:	03c020ef          	jal	12f90 <memcpy>
   10f58:	fdc42783          	lw	a5,-36(s0)
   10f5c:	00500713          	li	a4,5
   10f60:	00e7a623          	sw	a4,12(a5)
   10f64:	fdc42783          	lw	a5,-36(s0)
   10f68:	00c7a703          	lw	a4,12(a5)
   10f6c:	fec42783          	lw	a5,-20(s0)
   10f70:	00e7a623          	sw	a4,12(a5)
   10f74:	fdc42783          	lw	a5,-36(s0)
   10f78:	0007a703          	lw	a4,0(a5)
   10f7c:	fec42783          	lw	a5,-20(s0)
   10f80:	00e7a023          	sw	a4,0(a5)
   10f84:	fec42783          	lw	a5,-20(s0)
   10f88:	00078513          	mv	a0,a5
   10f8c:	120000ef          	jal	110ac <Proc_3>
   10f90:	fec42783          	lw	a5,-20(s0)
   10f94:	0047a783          	lw	a5,4(a5)
   10f98:	06079263          	bnez	a5,10ffc <Proc_1+0xec>
   10f9c:	fec42783          	lw	a5,-20(s0)
   10fa0:	00600713          	li	a4,6
   10fa4:	00e7a623          	sw	a4,12(a5)
   10fa8:	fdc42783          	lw	a5,-36(s0)
   10fac:	0087a703          	lw	a4,8(a5)
   10fb0:	fec42783          	lw	a5,-20(s0)
   10fb4:	00878793          	addi	a5,a5,8
   10fb8:	00078593          	mv	a1,a5
   10fbc:	00070513          	mv	a0,a4
   10fc0:	980ff0ef          	jal	10140 <Proc_6>
   10fc4:	000207b7          	lui	a5,0x20
   10fc8:	6987a783          	lw	a5,1688(a5) # 20698 <Ptr_Glob>
   10fcc:	0007a703          	lw	a4,0(a5)
   10fd0:	fec42783          	lw	a5,-20(s0)
   10fd4:	00e7a023          	sw	a4,0(a5)
   10fd8:	fec42783          	lw	a5,-20(s0)
   10fdc:	00c7a703          	lw	a4,12(a5)
   10fe0:	fec42783          	lw	a5,-20(s0)
   10fe4:	00c78793          	addi	a5,a5,12
   10fe8:	00078613          	mv	a2,a5
   10fec:	00a00593          	li	a1,10
   10ff0:	00070513          	mv	a0,a4
   10ff4:	a28ff0ef          	jal	1021c <Proc_7>
   10ff8:	0280006f          	j	11020 <Proc_1+0x110>
   10ffc:	fdc42783          	lw	a5,-36(s0)
   11000:	0007a783          	lw	a5,0(a5)
   11004:	fdc42703          	lw	a4,-36(s0)
   11008:	00078693          	mv	a3,a5
   1100c:	03000793          	li	a5,48
   11010:	00078613          	mv	a2,a5
   11014:	00068593          	mv	a1,a3
   11018:	00070513          	mv	a0,a4
   1101c:	775010ef          	jal	12f90 <memcpy>
   11020:	00000013          	nop
   11024:	00078513          	mv	a0,a5
   11028:	02c12083          	lw	ra,44(sp)
   1102c:	02812403          	lw	s0,40(sp)
   11030:	03010113          	addi	sp,sp,48
   11034:	00008067          	ret

00011038 <Proc_2>:
   11038:	fd010113          	addi	sp,sp,-48
   1103c:	02812623          	sw	s0,44(sp)
   11040:	03010413          	addi	s0,sp,48
   11044:	fca42e23          	sw	a0,-36(s0)
   11048:	fdc42783          	lw	a5,-36(s0)
   1104c:	0007a783          	lw	a5,0(a5)
   11050:	00a78793          	addi	a5,a5,10
   11054:	fef42623          	sw	a5,-20(s0)
   11058:	000207b7          	lui	a5,0x20
   1105c:	6947c703          	lbu	a4,1684(a5) # 20694 <Ch_1_Glob>
   11060:	04100793          	li	a5,65
   11064:	02f71663          	bne	a4,a5,11090 <Proc_2+0x58>
   11068:	fec42783          	lw	a5,-20(s0)
   1106c:	fff78793          	addi	a5,a5,-1
   11070:	fef42623          	sw	a5,-20(s0)
   11074:	000207b7          	lui	a5,0x20
   11078:	6907a783          	lw	a5,1680(a5) # 20690 <Int_Glob>
   1107c:	fec42703          	lw	a4,-20(s0)
   11080:	40f70733          	sub	a4,a4,a5
   11084:	fdc42783          	lw	a5,-36(s0)
   11088:	00e7a023          	sw	a4,0(a5)
   1108c:	fe042423          	sw	zero,-24(s0)
   11090:	fe842783          	lw	a5,-24(s0)
   11094:	fc0792e3          	bnez	a5,11058 <Proc_2+0x20>
   11098:	00000013          	nop
   1109c:	00078513          	mv	a0,a5
   110a0:	02c12403          	lw	s0,44(sp)
   110a4:	03010113          	addi	sp,sp,48
   110a8:	00008067          	ret

000110ac <Proc_3>:
   110ac:	fe010113          	addi	sp,sp,-32
   110b0:	00112e23          	sw	ra,28(sp)
   110b4:	00812c23          	sw	s0,24(sp)
   110b8:	02010413          	addi	s0,sp,32
   110bc:	fea42623          	sw	a0,-20(s0)
   110c0:	000207b7          	lui	a5,0x20
   110c4:	6987a783          	lw	a5,1688(a5) # 20698 <Ptr_Glob>
   110c8:	00078c63          	beqz	a5,110e0 <Proc_3+0x34>
   110cc:	000207b7          	lui	a5,0x20
   110d0:	6987a783          	lw	a5,1688(a5) # 20698 <Ptr_Glob>
   110d4:	0007a703          	lw	a4,0(a5)
   110d8:	fec42783          	lw	a5,-20(s0)
   110dc:	00e7a023          	sw	a4,0(a5)
   110e0:	000207b7          	lui	a5,0x20
   110e4:	6907a703          	lw	a4,1680(a5) # 20690 <Int_Glob>
   110e8:	000207b7          	lui	a5,0x20
   110ec:	6987a783          	lw	a5,1688(a5) # 20698 <Ptr_Glob>
   110f0:	00c78793          	addi	a5,a5,12
   110f4:	00078613          	mv	a2,a5
   110f8:	00070593          	mv	a1,a4
   110fc:	00a00513          	li	a0,10
   11100:	91cff0ef          	jal	1021c <Proc_7>
   11104:	00000013          	nop
   11108:	00078513          	mv	a0,a5
   1110c:	01c12083          	lw	ra,28(sp)
   11110:	01812403          	lw	s0,24(sp)
   11114:	02010113          	addi	sp,sp,32
   11118:	00008067          	ret

0001111c <Proc_4>:
   1111c:	fe010113          	addi	sp,sp,-32
   11120:	00812e23          	sw	s0,28(sp)
   11124:	02010413          	addi	s0,sp,32
   11128:	000207b7          	lui	a5,0x20
   1112c:	6947c783          	lbu	a5,1684(a5) # 20694 <Ch_1_Glob>
   11130:	fbf78793          	addi	a5,a5,-65
   11134:	0017b793          	seqz	a5,a5
   11138:	0ff7f793          	andi	a5,a5,255
   1113c:	fef42623          	sw	a5,-20(s0)
   11140:	000207b7          	lui	a5,0x20
   11144:	7687a703          	lw	a4,1896(a5) # 20768 <Bool_Glob>
   11148:	fec42783          	lw	a5,-20(s0)
   1114c:	00f76733          	or	a4,a4,a5
   11150:	000207b7          	lui	a5,0x20
   11154:	76e7a423          	sw	a4,1896(a5) # 20768 <Bool_Glob>
   11158:	000207b7          	lui	a5,0x20
   1115c:	04200713          	li	a4,66
   11160:	68e78aa3          	sb	a4,1685(a5) # 20695 <Ch_2_Glob>
   11164:	00000013          	nop
   11168:	00078513          	mv	a0,a5
   1116c:	01c12403          	lw	s0,28(sp)
   11170:	02010113          	addi	sp,sp,32
   11174:	00008067          	ret

00011178 <Proc_5>:
   11178:	ff010113          	addi	sp,sp,-16
   1117c:	00812623          	sw	s0,12(sp)
   11180:	01010413          	addi	s0,sp,16
   11184:	000207b7          	lui	a5,0x20
   11188:	04100713          	li	a4,65
   1118c:	68e78a23          	sb	a4,1684(a5) # 20694 <Ch_1_Glob>
   11190:	000207b7          	lui	a5,0x20
   11194:	7607a423          	sw	zero,1896(a5) # 20768 <Bool_Glob>
   11198:	00000013          	nop
   1119c:	00078513          	mv	a0,a5
   111a0:	00c12403          	lw	s0,12(sp)
   111a4:	01010113          	addi	sp,sp,16
   111a8:	00008067          	ret

000111ac <_fpadd_parts>:
   111ac:	00052783          	lw	a5,0(a0)
   111b0:	00100713          	li	a4,1
   111b4:	0ef77463          	bleu	a5,a4,1129c <_fpadd_parts+0xf0>
   111b8:	0005a683          	lw	a3,0(a1)
   111bc:	0cd77e63          	bleu	a3,a4,11298 <_fpadd_parts+0xec>
   111c0:	00400813          	li	a6,4
   111c4:	15078c63          	beq	a5,a6,1131c <_fpadd_parts+0x170>
   111c8:	0d068863          	beq	a3,a6,11298 <_fpadd_parts+0xec>
   111cc:	00200813          	li	a6,2
   111d0:	11068663          	beq	a3,a6,112dc <_fpadd_parts+0x130>
   111d4:	0d078263          	beq	a5,a6,11298 <_fpadd_parts+0xec>
   111d8:	00852303          	lw	t1,8(a0)
   111dc:	0085a783          	lw	a5,8(a1)
   111e0:	01f00693          	li	a3,31
   111e4:	00c52383          	lw	t2,12(a0)
   111e8:	40f30833          	sub	a6,t1,a5
   111ec:	41f85293          	srai	t0,a6,0x1f
   111f0:	0102c8b3          	xor	a7,t0,a6
   111f4:	405888b3          	sub	a7,a7,t0
   111f8:	00c5a283          	lw	t0,12(a1)
   111fc:	0b16d263          	ble	a7,a3,112a0 <_fpadd_parts+0xf4>
   11200:	1067ca63          	blt	a5,t1,11314 <_fpadd_parts+0x168>
   11204:	00078313          	mv	t1,a5
   11208:	00000393          	li	t2,0
   1120c:	00452703          	lw	a4,4(a0)
   11210:	0045a783          	lw	a5,4(a1)
   11214:	0af70a63          	beq	a4,a5,112c8 <_fpadd_parts+0x11c>
   11218:	405387b3          	sub	a5,t2,t0
   1121c:	00070463          	beqz	a4,11224 <_fpadd_parts+0x78>
   11220:	407287b3          	sub	a5,t0,t2
   11224:	1007ca63          	bltz	a5,11338 <_fpadd_parts+0x18c>
   11228:	00062223          	sw	zero,4(a2)
   1122c:	00662423          	sw	t1,8(a2)
   11230:	00f62623          	sw	a5,12(a2)
   11234:	400005b7          	lui	a1,0x40000
   11238:	fff78713          	addi	a4,a5,-1
   1123c:	ffe58593          	addi	a1,a1,-2 # 3ffffffe <_end+0x3ffdf88e>
   11240:	02e5e463          	bltu	a1,a4,11268 <_fpadd_parts+0xbc>
   11244:	00862703          	lw	a4,8(a2)
   11248:	fff70713          	addi	a4,a4,-1
   1124c:	00179793          	slli	a5,a5,0x1
   11250:	fff78693          	addi	a3,a5,-1
   11254:	00070513          	mv	a0,a4
   11258:	fff70713          	addi	a4,a4,-1
   1125c:	fed5f8e3          	bleu	a3,a1,1124c <_fpadd_parts+0xa0>
   11260:	00f62623          	sw	a5,12(a2)
   11264:	00a62423          	sw	a0,8(a2)
   11268:	00300713          	li	a4,3
   1126c:	00e62023          	sw	a4,0(a2)
   11270:	00060513          	mv	a0,a2
   11274:	0207d463          	bgez	a5,1129c <_fpadd_parts+0xf0>
   11278:	00862703          	lw	a4,8(a2)
   1127c:	0017d693          	srli	a3,a5,0x1
   11280:	0017f793          	andi	a5,a5,1
   11284:	00f6e7b3          	or	a5,a3,a5
   11288:	00170713          	addi	a4,a4,1
   1128c:	00f62623          	sw	a5,12(a2)
   11290:	00e62423          	sw	a4,8(a2)
   11294:	00008067          	ret
   11298:	00058513          	mv	a0,a1
   1129c:	00008067          	ret
   112a0:	0b005863          	blez	a6,11350 <_fpadd_parts+0x1a4>
   112a4:	011716b3          	sll	a3,a4,a7
   112a8:	fff68693          	addi	a3,a3,-1
   112ac:	0056f6b3          	and	a3,a3,t0
   112b0:	00d03733          	snez	a4,a3
   112b4:	0112d2b3          	srl	t0,t0,a7
   112b8:	00e2e2b3          	or	t0,t0,a4
   112bc:	0045a783          	lw	a5,4(a1)
   112c0:	00452703          	lw	a4,4(a0)
   112c4:	f4f71ae3          	bne	a4,a5,11218 <_fpadd_parts+0x6c>
   112c8:	005387b3          	add	a5,t2,t0
   112cc:	00e62223          	sw	a4,4(a2)
   112d0:	00662423          	sw	t1,8(a2)
   112d4:	00f62623          	sw	a5,12(a2)
   112d8:	f91ff06f          	j	11268 <_fpadd_parts+0xbc>
   112dc:	fcd790e3          	bne	a5,a3,1129c <_fpadd_parts+0xf0>
   112e0:	00f62023          	sw	a5,0(a2)
   112e4:	00452783          	lw	a5,4(a0)
   112e8:	00f62223          	sw	a5,4(a2)
   112ec:	00852703          	lw	a4,8(a0)
   112f0:	00452683          	lw	a3,4(a0)
   112f4:	0045a783          	lw	a5,4(a1)
   112f8:	00e62423          	sw	a4,8(a2)
   112fc:	00c52703          	lw	a4,12(a0)
   11300:	00f6f7b3          	and	a5,a3,a5
   11304:	00f62223          	sw	a5,4(a2)
   11308:	00e62623          	sw	a4,12(a2)
   1130c:	00060513          	mv	a0,a2
   11310:	00008067          	ret
   11314:	00000293          	li	t0,0
   11318:	ef5ff06f          	j	1120c <_fpadd_parts+0x60>
   1131c:	f8f690e3          	bne	a3,a5,1129c <_fpadd_parts+0xf0>
   11320:	00452703          	lw	a4,4(a0)
   11324:	0045a783          	lw	a5,4(a1)
   11328:	f6f70ae3          	beq	a4,a5,1129c <_fpadd_parts+0xf0>
   1132c:	0001c537          	lui	a0,0x1c
   11330:	d3450513          	addi	a0,a0,-716 # 1bd34 <__thenan_sf>
   11334:	00008067          	ret
   11338:	40f007b3          	neg	a5,a5
   1133c:	00100713          	li	a4,1
   11340:	00e62223          	sw	a4,4(a2)
   11344:	00662423          	sw	t1,8(a2)
   11348:	00f62623          	sw	a5,12(a2)
   1134c:	ee9ff06f          	j	11234 <_fpadd_parts+0x88>
   11350:	ea080ee3          	beqz	a6,1120c <_fpadd_parts+0x60>
   11354:	01171833          	sll	a6,a4,a7
   11358:	fff80813          	addi	a6,a6,-1
   1135c:	00787833          	and	a6,a6,t2
   11360:	0113d7b3          	srl	a5,t2,a7
   11364:	010036b3          	snez	a3,a6
   11368:	01130333          	add	t1,t1,a7
   1136c:	00d7e3b3          	or	t2,a5,a3
   11370:	e9dff06f          	j	1120c <_fpadd_parts+0x60>

00011374 <__pack_f>:
   11374:	00052703          	lw	a4,0(a0)
   11378:	00100613          	li	a2,1
   1137c:	00c52683          	lw	a3,12(a0)
   11380:	00452783          	lw	a5,4(a0)
   11384:	08e67c63          	bleu	a4,a2,1141c <__pack_f+0xa8>
   11388:	00400593          	li	a1,4
   1138c:	08b70263          	beq	a4,a1,11410 <__pack_f+0x9c>
   11390:	00200593          	li	a1,2
   11394:	04b70263          	beq	a4,a1,113d8 <__pack_f+0x64>
   11398:	04068063          	beqz	a3,113d8 <__pack_f+0x64>
   1139c:	00852703          	lw	a4,8(a0)
   113a0:	f8200593          	li	a1,-126
   113a4:	0ab74e63          	blt	a4,a1,11460 <__pack_f+0xec>
   113a8:	07f00613          	li	a2,127
   113ac:	06e64263          	blt	a2,a4,11410 <__pack_f+0x9c>
   113b0:	00c6f633          	and	a2,a3,a2
   113b4:	04000593          	li	a1,64
   113b8:	08b60663          	beq	a2,a1,11444 <__pack_f+0xd0>
   113bc:	03f68693          	addi	a3,a3,63
   113c0:	0806ca63          	bltz	a3,11454 <__pack_f+0xe0>
   113c4:	07f70713          	addi	a4,a4,127
   113c8:	00269693          	slli	a3,a3,0x2
   113cc:	0096d693          	srli	a3,a3,0x9
   113d0:	0ff77713          	andi	a4,a4,255
   113d4:	00c0006f          	j	113e0 <__pack_f+0x6c>
   113d8:	00000713          	li	a4,0
   113dc:	00000693          	li	a3,0
   113e0:	00800637          	lui	a2,0x800
   113e4:	fff60613          	addi	a2,a2,-1 # 7fffff <_end+0x7df88f>
   113e8:	00c6f6b3          	and	a3,a3,a2
   113ec:	80800637          	lui	a2,0x80800
   113f0:	fff60613          	addi	a2,a2,-1 # 807fffff <_end+0x807df88f>
   113f4:	00c6f6b3          	and	a3,a3,a2
   113f8:	01771713          	slli	a4,a4,0x17
   113fc:	01f79613          	slli	a2,a5,0x1f
   11400:	00e6e7b3          	or	a5,a3,a4
   11404:	00c7e7b3          	or	a5,a5,a2
   11408:	f0078553          	fmv.s.x	fa0,a5
   1140c:	00008067          	ret
   11410:	0ff00713          	li	a4,255
   11414:	00000693          	li	a3,0
   11418:	fc9ff06f          	j	113e0 <__pack_f+0x6c>
   1141c:	00400637          	lui	a2,0x400
   11420:	0076d713          	srli	a4,a3,0x7
   11424:	fff60693          	addi	a3,a2,-1 # 3fffff <_end+0x3df88f>
   11428:	00d776b3          	and	a3,a4,a3
   1142c:	00800737          	lui	a4,0x800
   11430:	fff70713          	addi	a4,a4,-1 # 7fffff <_end+0x7df88f>
   11434:	00c6e6b3          	or	a3,a3,a2
   11438:	00e6f6b3          	and	a3,a3,a4
   1143c:	0ff00713          	li	a4,255
   11440:	fa1ff06f          	j	113e0 <__pack_f+0x6c>
   11444:	0806f613          	andi	a2,a3,128
   11448:	f6060ce3          	beqz	a2,113c0 <__pack_f+0x4c>
   1144c:	00b686b3          	add	a3,a3,a1
   11450:	f71ff06f          	j	113c0 <__pack_f+0x4c>
   11454:	0016d693          	srli	a3,a3,0x1
   11458:	08070713          	addi	a4,a4,128
   1145c:	f6dff06f          	j	113c8 <__pack_f+0x54>
   11460:	40e58733          	sub	a4,a1,a4
   11464:	01900593          	li	a1,25
   11468:	f6e5c8e3          	blt	a1,a4,113d8 <__pack_f+0x64>
   1146c:	00e61633          	sll	a2,a2,a4
   11470:	fff60613          	addi	a2,a2,-1
   11474:	00d67633          	and	a2,a2,a3
   11478:	00e6d6b3          	srl	a3,a3,a4
   1147c:	00c03733          	snez	a4,a2
   11480:	00e6e6b3          	or	a3,a3,a4
   11484:	07f6f613          	andi	a2,a3,127
   11488:	04000713          	li	a4,64
   1148c:	02e61263          	bne	a2,a4,114b0 <__pack_f+0x13c>
   11490:	0806f713          	andi	a4,a3,128
   11494:	02071c63          	bnez	a4,114cc <__pack_f+0x158>
   11498:	40000737          	lui	a4,0x40000
   1149c:	00e6b733          	sltu	a4,a3,a4
   114a0:	00269613          	slli	a2,a3,0x2
   114a4:	00965693          	srli	a3,a2,0x9
   114a8:	00174713          	xori	a4,a4,1
   114ac:	f35ff06f          	j	113e0 <__pack_f+0x6c>
   114b0:	03f68713          	addi	a4,a3,63
   114b4:	40000637          	lui	a2,0x40000
   114b8:	00271693          	slli	a3,a4,0x2
   114bc:	00c73733          	sltu	a4,a4,a2
   114c0:	0096d693          	srli	a3,a3,0x9
   114c4:	00174713          	xori	a4,a4,1
   114c8:	f19ff06f          	j	113e0 <__pack_f+0x6c>
   114cc:	04068713          	addi	a4,a3,64
   114d0:	fe5ff06f          	j	114b4 <__pack_f+0x140>

000114d4 <__unpack_f>:
   114d4:	00255703          	lhu	a4,2(a0)
   114d8:	00354683          	lbu	a3,3(a0)
   114dc:	00052603          	lw	a2,0(a0)
   114e0:	00775713          	srli	a4,a4,0x7
   114e4:	008007b7          	lui	a5,0x800
   114e8:	0076d693          	srli	a3,a3,0x7
   114ec:	fff78793          	addi	a5,a5,-1 # 7fffff <_end+0x7df88f>
   114f0:	0ff77713          	andi	a4,a4,255
   114f4:	00f677b3          	and	a5,a2,a5
   114f8:	00d5a223          	sw	a3,4(a1)
   114fc:	02071c63          	bnez	a4,11534 <__unpack_f+0x60>
   11500:	06078063          	beqz	a5,11560 <__unpack_f+0x8c>
   11504:	00300713          	li	a4,3
   11508:	00e5a023          	sw	a4,0(a1)
   1150c:	00779793          	slli	a5,a5,0x7
   11510:	f8100713          	li	a4,-127
   11514:	40000637          	lui	a2,0x40000
   11518:	00179793          	slli	a5,a5,0x1
   1151c:	00070693          	mv	a3,a4
   11520:	fff70713          	addi	a4,a4,-1 # 3fffffff <_end+0x3ffdf88f>
   11524:	fec7eae3          	bltu	a5,a2,11518 <__unpack_f+0x44>
   11528:	00d5a423          	sw	a3,8(a1)
   1152c:	00f5a623          	sw	a5,12(a1)
   11530:	00008067          	ret
   11534:	0ff00693          	li	a3,255
   11538:	02d70a63          	beq	a4,a3,1156c <__unpack_f+0x98>
   1153c:	f8170713          	addi	a4,a4,-127
   11540:	00779793          	slli	a5,a5,0x7
   11544:	400006b7          	lui	a3,0x40000
   11548:	00d7e7b3          	or	a5,a5,a3
   1154c:	00e5a423          	sw	a4,8(a1)
   11550:	00300713          	li	a4,3
   11554:	00e5a023          	sw	a4,0(a1)
   11558:	00f5a623          	sw	a5,12(a1)
   1155c:	00008067          	ret
   11560:	00200793          	li	a5,2
   11564:	00f5a023          	sw	a5,0(a1)
   11568:	00008067          	ret
   1156c:	02078663          	beqz	a5,11598 <__unpack_f+0xc4>
   11570:	00979713          	slli	a4,a5,0x9
   11574:	02075863          	bgez	a4,115a4 <__unpack_f+0xd0>
   11578:	00100713          	li	a4,1
   1157c:	00e5a023          	sw	a4,0(a1)
   11580:	ffc00737          	lui	a4,0xffc00
   11584:	fff70713          	addi	a4,a4,-1 # ffbfffff <_end+0xffbdf88f>
   11588:	00e7f7b3          	and	a5,a5,a4
   1158c:	00779793          	slli	a5,a5,0x7
   11590:	00f5a623          	sw	a5,12(a1)
   11594:	00008067          	ret
   11598:	00400793          	li	a5,4
   1159c:	00f5a023          	sw	a5,0(a1)
   115a0:	00008067          	ret
   115a4:	0005a023          	sw	zero,0(a1)
   115a8:	fd9ff06f          	j	11580 <__unpack_f+0xac>

000115ac <__addsf3>:
   115ac:	fb010113          	addi	sp,sp,-80
   115b0:	01010593          	addi	a1,sp,16
   115b4:	00810513          	addi	a0,sp,8
   115b8:	04112623          	sw	ra,76(sp)
   115bc:	00a12427          	fsw	fa0,8(sp)
   115c0:	00b12627          	fsw	fa1,12(sp)
   115c4:	f11ff0ef          	jal	114d4 <__unpack_f>
   115c8:	02010593          	addi	a1,sp,32
   115cc:	00c10513          	addi	a0,sp,12
   115d0:	f05ff0ef          	jal	114d4 <__unpack_f>
   115d4:	03010613          	addi	a2,sp,48
   115d8:	02010593          	addi	a1,sp,32
   115dc:	01010513          	addi	a0,sp,16
   115e0:	bcdff0ef          	jal	111ac <_fpadd_parts>
   115e4:	d91ff0ef          	jal	11374 <__pack_f>
   115e8:	04c12083          	lw	ra,76(sp)
   115ec:	05010113          	addi	sp,sp,80
   115f0:	00008067          	ret

000115f4 <__subsf3>:
   115f4:	fb010113          	addi	sp,sp,-80
   115f8:	01010593          	addi	a1,sp,16
   115fc:	00810513          	addi	a0,sp,8
   11600:	04112623          	sw	ra,76(sp)
   11604:	00a12427          	fsw	fa0,8(sp)
   11608:	00b12627          	fsw	fa1,12(sp)
   1160c:	ec9ff0ef          	jal	114d4 <__unpack_f>
   11610:	02010593          	addi	a1,sp,32
   11614:	00c10513          	addi	a0,sp,12
   11618:	ebdff0ef          	jal	114d4 <__unpack_f>
   1161c:	02412783          	lw	a5,36(sp)
   11620:	03010613          	addi	a2,sp,48
   11624:	02010593          	addi	a1,sp,32
   11628:	0017c793          	xori	a5,a5,1
   1162c:	01010513          	addi	a0,sp,16
   11630:	02f12223          	sw	a5,36(sp)
   11634:	b79ff0ef          	jal	111ac <_fpadd_parts>
   11638:	d3dff0ef          	jal	11374 <__pack_f>
   1163c:	04c12083          	lw	ra,76(sp)
   11640:	05010113          	addi	sp,sp,80
   11644:	00008067          	ret

00011648 <__mulsf3>:
   11648:	fb010113          	addi	sp,sp,-80
   1164c:	01010593          	addi	a1,sp,16
   11650:	00810513          	addi	a0,sp,8
   11654:	04112623          	sw	ra,76(sp)
   11658:	00a12427          	fsw	fa0,8(sp)
   1165c:	00b12627          	fsw	fa1,12(sp)
   11660:	e75ff0ef          	jal	114d4 <__unpack_f>
   11664:	02010593          	addi	a1,sp,32
   11668:	00c10513          	addi	a0,sp,12
   1166c:	e69ff0ef          	jal	114d4 <__unpack_f>
   11670:	01012783          	lw	a5,16(sp)
   11674:	00100693          	li	a3,1
   11678:	0ef6f463          	bleu	a5,a3,11760 <__mulsf3+0x118>
   1167c:	02012703          	lw	a4,32(sp)
   11680:	0ae6f863          	bleu	a4,a3,11730 <__mulsf3+0xe8>
   11684:	00400693          	li	a3,4
   11688:	0cd78863          	beq	a5,a3,11758 <__mulsf3+0x110>
   1168c:	08d70e63          	beq	a4,a3,11728 <__mulsf3+0xe0>
   11690:	00200693          	li	a3,2
   11694:	0cd78663          	beq	a5,a3,11760 <__mulsf3+0x118>
   11698:	08d70c63          	beq	a4,a3,11730 <__mulsf3+0xe8>
   1169c:	01c12703          	lw	a4,28(sp)
   116a0:	02c12583          	lw	a1,44(sp)
   116a4:	02812683          	lw	a3,40(sp)
   116a8:	01812783          	lw	a5,24(sp)
   116ac:	02b73633          	mulhu	a2,a4,a1
   116b0:	02412803          	lw	a6,36(sp)
   116b4:	00d787b3          	add	a5,a5,a3
   116b8:	01412683          	lw	a3,20(sp)
   116bc:	00278513          	addi	a0,a5,2
   116c0:	02a12c23          	sw	a0,56(sp)
   116c4:	410686b3          	sub	a3,a3,a6
   116c8:	00d036b3          	snez	a3,a3
   116cc:	02d12a23          	sw	a3,52(sp)
   116d0:	02b70733          	mul	a4,a4,a1
   116d4:	00060693          	mv	a3,a2
   116d8:	0c065a63          	bgez	a2,117ac <__mulsf3+0x164>
   116dc:	00167693          	andi	a3,a2,1
   116e0:	00378793          	addi	a5,a5,3
   116e4:	00068863          	beqz	a3,116f4 <__mulsf3+0xac>
   116e8:	00175713          	srli	a4,a4,0x1
   116ec:	800006b7          	lui	a3,0x80000
   116f0:	00d76733          	or	a4,a4,a3
   116f4:	00165693          	srli	a3,a2,0x1
   116f8:	02f12c23          	sw	a5,56(sp)
   116fc:	07f6f793          	andi	a5,a3,127
   11700:	04000613          	li	a2,64
   11704:	08c78263          	beq	a5,a2,11788 <__mulsf3+0x140>
   11708:	00300793          	li	a5,3
   1170c:	02d12e23          	sw	a3,60(sp)
   11710:	02f12823          	sw	a5,48(sp)
   11714:	03010513          	addi	a0,sp,48
   11718:	c5dff0ef          	jal	11374 <__pack_f>
   1171c:	04c12083          	lw	ra,76(sp)
   11720:	05010113          	addi	sp,sp,80
   11724:	00008067          	ret
   11728:	00200713          	li	a4,2
   1172c:	06e78a63          	beq	a5,a4,117a0 <__mulsf3+0x158>
   11730:	02412703          	lw	a4,36(sp)
   11734:	01412783          	lw	a5,20(sp)
   11738:	02010513          	addi	a0,sp,32
   1173c:	40e787b3          	sub	a5,a5,a4
   11740:	00f037b3          	snez	a5,a5
   11744:	02f12223          	sw	a5,36(sp)
   11748:	c2dff0ef          	jal	11374 <__pack_f>
   1174c:	04c12083          	lw	ra,76(sp)
   11750:	05010113          	addi	sp,sp,80
   11754:	00008067          	ret
   11758:	00200793          	li	a5,2
   1175c:	04f70263          	beq	a4,a5,117a0 <__mulsf3+0x158>
   11760:	02412703          	lw	a4,36(sp)
   11764:	01412783          	lw	a5,20(sp)
   11768:	01010513          	addi	a0,sp,16
   1176c:	40e787b3          	sub	a5,a5,a4
   11770:	00f037b3          	snez	a5,a5
   11774:	00f12a23          	sw	a5,20(sp)
   11778:	bfdff0ef          	jal	11374 <__pack_f>
   1177c:	04c12083          	lw	ra,76(sp)
   11780:	05010113          	addi	sp,sp,80
   11784:	00008067          	ret
   11788:	0806f793          	andi	a5,a3,128
   1178c:	f6079ee3          	bnez	a5,11708 <__mulsf3+0xc0>
   11790:	f6070ce3          	beqz	a4,11708 <__mulsf3+0xc0>
   11794:	00c686b3          	add	a3,a3,a2
   11798:	f806f693          	andi	a3,a3,-128
   1179c:	f6dff06f          	j	11708 <__mulsf3+0xc0>
   117a0:	0001c537          	lui	a0,0x1c
   117a4:	d3450513          	addi	a0,a0,-716 # 1bd34 <__thenan_sf>
   117a8:	f71ff06f          	j	11718 <__mulsf3+0xd0>
   117ac:	40000637          	lui	a2,0x40000
   117b0:	f4c6f6e3          	bleu	a2,a3,116fc <__mulsf3+0xb4>
   117b4:	00178793          	addi	a5,a5,1
   117b8:	0100006f          	j	117c8 <__mulsf3+0x180>
   117bc:	00171713          	slli	a4,a4,0x1
   117c0:	fff78793          	addi	a5,a5,-1
   117c4:	02c6f063          	bleu	a2,a3,117e4 <__mulsf3+0x19c>
   117c8:	00169693          	slli	a3,a3,0x1
   117cc:	00078593          	mv	a1,a5
   117d0:	fe0756e3          	bgez	a4,117bc <__mulsf3+0x174>
   117d4:	0016e693          	ori	a3,a3,1
   117d8:	00171713          	slli	a4,a4,0x1
   117dc:	fff78793          	addi	a5,a5,-1
   117e0:	fec6e4e3          	bltu	a3,a2,117c8 <__mulsf3+0x180>
   117e4:	02b12c23          	sw	a1,56(sp)
   117e8:	f15ff06f          	j	116fc <__mulsf3+0xb4>

000117ec <__divsf3>:
   117ec:	fc010113          	addi	sp,sp,-64
   117f0:	01010593          	addi	a1,sp,16
   117f4:	00810513          	addi	a0,sp,8
   117f8:	02112e23          	sw	ra,60(sp)
   117fc:	00a12427          	fsw	fa0,8(sp)
   11800:	00b12627          	fsw	fa1,12(sp)
   11804:	cd1ff0ef          	jal	114d4 <__unpack_f>
   11808:	02010593          	addi	a1,sp,32
   1180c:	00c10513          	addi	a0,sp,12
   11810:	cc5ff0ef          	jal	114d4 <__unpack_f>
   11814:	01012683          	lw	a3,16(sp)
   11818:	00100793          	li	a5,1
   1181c:	08d7f663          	bleu	a3,a5,118a8 <__divsf3+0xbc>
   11820:	02012603          	lw	a2,32(sp)
   11824:	0ec7f663          	bleu	a2,a5,11910 <__divsf3+0x124>
   11828:	01412583          	lw	a1,20(sp)
   1182c:	02412703          	lw	a4,36(sp)
   11830:	ffe68793          	addi	a5,a3,-2 # 7ffffffe <_end+0x7ffdf88e>
   11834:	ffd7f793          	andi	a5,a5,-3
   11838:	00e5c733          	xor	a4,a1,a4
   1183c:	00e12a23          	sw	a4,20(sp)
   11840:	06078e63          	beqz	a5,118bc <__divsf3+0xd0>
   11844:	00400793          	li	a5,4
   11848:	08f60a63          	beq	a2,a5,118dc <__divsf3+0xf0>
   1184c:	00200713          	li	a4,2
   11850:	0ae60a63          	beq	a2,a4,11904 <__divsf3+0x118>
   11854:	01812703          	lw	a4,24(sp)
   11858:	02812683          	lw	a3,40(sp)
   1185c:	01c12783          	lw	a5,28(sp)
   11860:	02c12603          	lw	a2,44(sp)
   11864:	40d70733          	sub	a4,a4,a3
   11868:	00e12c23          	sw	a4,24(sp)
   1186c:	06c7e063          	bltu	a5,a2,118cc <__divsf3+0xe0>
   11870:	01f00713          	li	a4,31
   11874:	00000593          	li	a1,0
   11878:	400006b7          	lui	a3,0x40000
   1187c:	fff70713          	addi	a4,a4,-1
   11880:	00c7e663          	bltu	a5,a2,1188c <__divsf3+0xa0>
   11884:	00d5e5b3          	or	a1,a1,a3
   11888:	40c787b3          	sub	a5,a5,a2
   1188c:	0016d693          	srli	a3,a3,0x1
   11890:	00179793          	slli	a5,a5,0x1
   11894:	fe0714e3          	bnez	a4,1187c <__divsf3+0x90>
   11898:	07f5f713          	andi	a4,a1,127
   1189c:	04000693          	li	a3,64
   118a0:	04d70663          	beq	a4,a3,118ec <__divsf3+0x100>
   118a4:	00b12e23          	sw	a1,28(sp)
   118a8:	01010513          	addi	a0,sp,16
   118ac:	ac9ff0ef          	jal	11374 <__pack_f>
   118b0:	03c12083          	lw	ra,60(sp)
   118b4:	04010113          	addi	sp,sp,64
   118b8:	00008067          	ret
   118bc:	fec696e3          	bne	a3,a2,118a8 <__divsf3+0xbc>
   118c0:	0001c537          	lui	a0,0x1c
   118c4:	d3450513          	addi	a0,a0,-716 # 1bd34 <__thenan_sf>
   118c8:	fe5ff06f          	j	118ac <__divsf3+0xc0>
   118cc:	fff70713          	addi	a4,a4,-1
   118d0:	00179793          	slli	a5,a5,0x1
   118d4:	00e12c23          	sw	a4,24(sp)
   118d8:	f99ff06f          	j	11870 <__divsf3+0x84>
   118dc:	00012e23          	sw	zero,28(sp)
   118e0:	00012c23          	sw	zero,24(sp)
   118e4:	01010513          	addi	a0,sp,16
   118e8:	fc5ff06f          	j	118ac <__divsf3+0xc0>
   118ec:	0805f713          	andi	a4,a1,128
   118f0:	fa071ae3          	bnez	a4,118a4 <__divsf3+0xb8>
   118f4:	fa0788e3          	beqz	a5,118a4 <__divsf3+0xb8>
   118f8:	00d585b3          	add	a1,a1,a3
   118fc:	f805f593          	andi	a1,a1,-128
   11900:	fa5ff06f          	j	118a4 <__divsf3+0xb8>
   11904:	00f12823          	sw	a5,16(sp)
   11908:	01010513          	addi	a0,sp,16
   1190c:	fa1ff06f          	j	118ac <__divsf3+0xc0>
   11910:	02010513          	addi	a0,sp,32
   11914:	f99ff06f          	j	118ac <__divsf3+0xc0>

00011918 <__fpcmp_parts_f>:
   11918:	00052703          	lw	a4,0(a0)
   1191c:	00100793          	li	a5,1
   11920:	00050613          	mv	a2,a0
   11924:	06e7fe63          	bleu	a4,a5,119a0 <__fpcmp_parts_f+0x88>
   11928:	0005a683          	lw	a3,0(a1)
   1192c:	00078513          	mv	a0,a5
   11930:	04d7f063          	bleu	a3,a5,11970 <__fpcmp_parts_f+0x58>
   11934:	00400793          	li	a5,4
   11938:	04f70863          	beq	a4,a5,11988 <__fpcmp_parts_f+0x70>
   1193c:	02f68c63          	beq	a3,a5,11974 <__fpcmp_parts_f+0x5c>
   11940:	00200793          	li	a5,2
   11944:	02f70263          	beq	a4,a5,11968 <__fpcmp_parts_f+0x50>
   11948:	04f68263          	beq	a3,a5,1198c <__fpcmp_parts_f+0x74>
   1194c:	00462783          	lw	a5,4(a2) # 40000004 <_end+0x3ffdf894>
   11950:	0045a703          	lw	a4,4(a1)
   11954:	04e78a63          	beq	a5,a4,119a8 <__fpcmp_parts_f+0x90>
   11958:	00f03533          	snez	a0,a5
   1195c:	40a00533          	neg	a0,a0
   11960:	00156513          	ori	a0,a0,1
   11964:	00008067          	ret
   11968:	00e69663          	bne	a3,a4,11974 <__fpcmp_parts_f+0x5c>
   1196c:	00000513          	li	a0,0
   11970:	00008067          	ret
   11974:	0045a503          	lw	a0,4(a1)
   11978:	00153513          	seqz	a0,a0
   1197c:	40a00533          	neg	a0,a0
   11980:	00156513          	ori	a0,a0,1
   11984:	00008067          	ret
   11988:	04e68a63          	beq	a3,a4,119dc <__fpcmp_parts_f+0xc4>
   1198c:	00462503          	lw	a0,4(a2)
   11990:	00a03533          	snez	a0,a0
   11994:	40a00533          	neg	a0,a0
   11998:	00156513          	ori	a0,a0,1
   1199c:	00008067          	ret
   119a0:	00078513          	mv	a0,a5
   119a4:	00008067          	ret
   119a8:	00862683          	lw	a3,8(a2)
   119ac:	0085a703          	lw	a4,8(a1)
   119b0:	fad744e3          	blt	a4,a3,11958 <__fpcmp_parts_f+0x40>
   119b4:	00e6cc63          	blt	a3,a4,119cc <__fpcmp_parts_f+0xb4>
   119b8:	00c62683          	lw	a3,12(a2)
   119bc:	00c5a703          	lw	a4,12(a1)
   119c0:	f8d76ce3          	bltu	a4,a3,11958 <__fpcmp_parts_f+0x40>
   119c4:	00000513          	li	a0,0
   119c8:	fae6f4e3          	bleu	a4,a3,11970 <__fpcmp_parts_f+0x58>
   119cc:	0017b513          	seqz	a0,a5
   119d0:	40a00533          	neg	a0,a0
   119d4:	00156513          	ori	a0,a0,1
   119d8:	00008067          	ret
   119dc:	0045a783          	lw	a5,4(a1)
   119e0:	00462503          	lw	a0,4(a2)
   119e4:	40a78533          	sub	a0,a5,a0
   119e8:	00008067          	ret

000119ec <__cmpsf2>:
   119ec:	fc010113          	addi	sp,sp,-64
   119f0:	01010593          	addi	a1,sp,16
   119f4:	00810513          	addi	a0,sp,8
   119f8:	02112e23          	sw	ra,60(sp)
   119fc:	00a12427          	fsw	fa0,8(sp)
   11a00:	00b12627          	fsw	fa1,12(sp)
   11a04:	ad1ff0ef          	jal	114d4 <__unpack_f>
   11a08:	02010593          	addi	a1,sp,32
   11a0c:	00c10513          	addi	a0,sp,12
   11a10:	ac5ff0ef          	jal	114d4 <__unpack_f>
   11a14:	02010593          	addi	a1,sp,32
   11a18:	01010513          	addi	a0,sp,16
   11a1c:	efdff0ef          	jal	11918 <__fpcmp_parts_f>
   11a20:	03c12083          	lw	ra,60(sp)
   11a24:	04010113          	addi	sp,sp,64
   11a28:	00008067          	ret

00011a2c <__gesf2>:
   11a2c:	fc010113          	addi	sp,sp,-64
   11a30:	01010593          	addi	a1,sp,16
   11a34:	00810513          	addi	a0,sp,8
   11a38:	02112e23          	sw	ra,60(sp)
   11a3c:	00a12427          	fsw	fa0,8(sp)
   11a40:	00b12627          	fsw	fa1,12(sp)
   11a44:	a91ff0ef          	jal	114d4 <__unpack_f>
   11a48:	00c10513          	addi	a0,sp,12
   11a4c:	02010593          	addi	a1,sp,32
   11a50:	a85ff0ef          	jal	114d4 <__unpack_f>
   11a54:	01012703          	lw	a4,16(sp)
   11a58:	00100793          	li	a5,1
   11a5c:	fff00513          	li	a0,-1
   11a60:	00e7fc63          	bleu	a4,a5,11a78 <__gesf2+0x4c>
   11a64:	02012703          	lw	a4,32(sp)
   11a68:	00e7f863          	bleu	a4,a5,11a78 <__gesf2+0x4c>
   11a6c:	02010593          	addi	a1,sp,32
   11a70:	01010513          	addi	a0,sp,16
   11a74:	ea5ff0ef          	jal	11918 <__fpcmp_parts_f>
   11a78:	03c12083          	lw	ra,60(sp)
   11a7c:	04010113          	addi	sp,sp,64
   11a80:	00008067          	ret

00011a84 <__gtsf2>:
   11a84:	fa9ff06f          	j	11a2c <__gesf2>

00011a88 <__lesf2>:
   11a88:	fc010113          	addi	sp,sp,-64
   11a8c:	01010593          	addi	a1,sp,16
   11a90:	00810513          	addi	a0,sp,8
   11a94:	02112e23          	sw	ra,60(sp)
   11a98:	00a12427          	fsw	fa0,8(sp)
   11a9c:	00b12627          	fsw	fa1,12(sp)
   11aa0:	a35ff0ef          	jal	114d4 <__unpack_f>
   11aa4:	00c10513          	addi	a0,sp,12
   11aa8:	02010593          	addi	a1,sp,32
   11aac:	a29ff0ef          	jal	114d4 <__unpack_f>
   11ab0:	01012783          	lw	a5,16(sp)
   11ab4:	00100513          	li	a0,1
   11ab8:	00f57c63          	bleu	a5,a0,11ad0 <__lesf2+0x48>
   11abc:	02012783          	lw	a5,32(sp)
   11ac0:	00f57863          	bleu	a5,a0,11ad0 <__lesf2+0x48>
   11ac4:	02010593          	addi	a1,sp,32
   11ac8:	01010513          	addi	a0,sp,16
   11acc:	e4dff0ef          	jal	11918 <__fpcmp_parts_f>
   11ad0:	03c12083          	lw	ra,60(sp)
   11ad4:	04010113          	addi	sp,sp,64
   11ad8:	00008067          	ret

00011adc <__ltsf2>:
   11adc:	fadff06f          	j	11a88 <__lesf2>

00011ae0 <__nesf2>:
   11ae0:	fa9ff06f          	j	11a88 <__lesf2>

00011ae4 <__eqsf2>:
   11ae4:	fa5ff06f          	j	11a88 <__lesf2>

00011ae8 <__unordsf2>:
   11ae8:	fc010113          	addi	sp,sp,-64
   11aec:	01010593          	addi	a1,sp,16
   11af0:	00810513          	addi	a0,sp,8
   11af4:	02112e23          	sw	ra,60(sp)
   11af8:	00a12427          	fsw	fa0,8(sp)
   11afc:	00b12627          	fsw	fa1,12(sp)
   11b00:	9d5ff0ef          	jal	114d4 <__unpack_f>
   11b04:	00c10513          	addi	a0,sp,12
   11b08:	02010593          	addi	a1,sp,32
   11b0c:	9c9ff0ef          	jal	114d4 <__unpack_f>
   11b10:	01012783          	lw	a5,16(sp)
   11b14:	00100513          	li	a0,1
   11b18:	00f57663          	bleu	a5,a0,11b24 <__unordsf2+0x3c>
   11b1c:	02012503          	lw	a0,32(sp)
   11b20:	00253513          	sltiu	a0,a0,2
   11b24:	03c12083          	lw	ra,60(sp)
   11b28:	04010113          	addi	sp,sp,64
   11b2c:	00008067          	ret

00011b30 <__floatsisf>:
   11b30:	fe010113          	addi	sp,sp,-32
   11b34:	01f55793          	srli	a5,a0,0x1f
   11b38:	00300713          	li	a4,3
   11b3c:	00112e23          	sw	ra,28(sp)
   11b40:	00812c23          	sw	s0,24(sp)
   11b44:	00e12023          	sw	a4,0(sp)
   11b48:	00f12223          	sw	a5,4(sp)
   11b4c:	02051263          	bnez	a0,11b70 <__floatsisf+0x40>
   11b50:	00200793          	li	a5,2
   11b54:	00f12023          	sw	a5,0(sp)
   11b58:	00010513          	mv	a0,sp
   11b5c:	819ff0ef          	jal	11374 <__pack_f>
   11b60:	01c12083          	lw	ra,28(sp)
   11b64:	01812403          	lw	s0,24(sp)
   11b68:	02010113          	addi	sp,sp,32
   11b6c:	00008067          	ret
   11b70:	01e00793          	li	a5,30
   11b74:	00f12423          	sw	a5,8(sp)
   11b78:	02054863          	bltz	a0,11ba8 <__floatsisf+0x78>
   11b7c:	00050413          	mv	s0,a0
   11b80:	00040513          	mv	a0,s0
   11b84:	258010ef          	jal	12ddc <__clzsi2>
   11b88:	fff50793          	addi	a5,a0,-1
   11b8c:	02078c63          	beqz	a5,11bc4 <__floatsisf+0x94>
   11b90:	01e00713          	li	a4,30
   11b94:	00f41533          	sll	a0,s0,a5
   11b98:	40f707b3          	sub	a5,a4,a5
   11b9c:	00a12623          	sw	a0,12(sp)
   11ba0:	00f12423          	sw	a5,8(sp)
   11ba4:	fb5ff06f          	j	11b58 <__floatsisf+0x28>
   11ba8:	800007b7          	lui	a5,0x80000
   11bac:	02f50063          	beq	a0,a5,11bcc <__floatsisf+0x9c>
   11bb0:	40a00433          	neg	s0,a0
   11bb4:	00040513          	mv	a0,s0
   11bb8:	224010ef          	jal	12ddc <__clzsi2>
   11bbc:	fff50793          	addi	a5,a0,-1
   11bc0:	fc0798e3          	bnez	a5,11b90 <__floatsisf+0x60>
   11bc4:	00812623          	sw	s0,12(sp)
   11bc8:	f91ff06f          	j	11b58 <__floatsisf+0x28>
   11bcc:	81c1a507          	flw	fa0,-2020(gp) # 1de8c <__wctomb+0x4>
   11bd0:	f91ff06f          	j	11b60 <__floatsisf+0x30>

00011bd4 <__floatunsisf>:
   11bd4:	fe010113          	addi	sp,sp,-32
   11bd8:	00112e23          	sw	ra,28(sp)
   11bdc:	00812c23          	sw	s0,24(sp)
   11be0:	00912a23          	sw	s1,20(sp)
   11be4:	00012223          	sw	zero,4(sp)
   11be8:	04050a63          	beqz	a0,11c3c <__floatunsisf+0x68>
   11bec:	00300793          	li	a5,3
   11bf0:	01e00493          	li	s1,30
   11bf4:	00f12023          	sw	a5,0(sp)
   11bf8:	00050413          	mv	s0,a0
   11bfc:	00912423          	sw	s1,8(sp)
   11c00:	1dc010ef          	jal	12ddc <__clzsi2>
   11c04:	fff50793          	addi	a5,a0,-1
   11c08:	04050063          	beqz	a0,11c48 <__floatunsisf+0x74>
   11c0c:	04078c63          	beqz	a5,11c64 <__floatunsisf+0x90>
   11c10:	00f41433          	sll	s0,s0,a5
   11c14:	40f484b3          	sub	s1,s1,a5
   11c18:	00812623          	sw	s0,12(sp)
   11c1c:	00912423          	sw	s1,8(sp)
   11c20:	00010513          	mv	a0,sp
   11c24:	f50ff0ef          	jal	11374 <__pack_f>
   11c28:	01c12083          	lw	ra,28(sp)
   11c2c:	01812403          	lw	s0,24(sp)
   11c30:	01412483          	lw	s1,20(sp)
   11c34:	02010113          	addi	sp,sp,32
   11c38:	00008067          	ret
   11c3c:	00200793          	li	a5,2
   11c40:	00f12023          	sw	a5,0(sp)
   11c44:	fddff06f          	j	11c20 <__floatunsisf+0x4c>
   11c48:	00147793          	andi	a5,s0,1
   11c4c:	00145413          	srli	s0,s0,0x1
   11c50:	0087e433          	or	s0,a5,s0
   11c54:	01f00793          	li	a5,31
   11c58:	00812623          	sw	s0,12(sp)
   11c5c:	00f12423          	sw	a5,8(sp)
   11c60:	fc1ff06f          	j	11c20 <__floatunsisf+0x4c>
   11c64:	00812623          	sw	s0,12(sp)
   11c68:	fb9ff06f          	j	11c20 <__floatunsisf+0x4c>

00011c6c <__fixsfsi>:
   11c6c:	fd010113          	addi	sp,sp,-48
   11c70:	01010593          	addi	a1,sp,16
   11c74:	00c10513          	addi	a0,sp,12
   11c78:	02112623          	sw	ra,44(sp)
   11c7c:	00a12627          	fsw	fa0,12(sp)
   11c80:	855ff0ef          	jal	114d4 <__unpack_f>
   11c84:	01012783          	lw	a5,16(sp)
   11c88:	00200713          	li	a4,2
   11c8c:	04f77e63          	bleu	a5,a4,11ce8 <__fixsfsi+0x7c>
   11c90:	00400713          	li	a4,4
   11c94:	00e78a63          	beq	a5,a4,11ca8 <__fixsfsi+0x3c>
   11c98:	01812783          	lw	a5,24(sp)
   11c9c:	0407c663          	bltz	a5,11ce8 <__fixsfsi+0x7c>
   11ca0:	01e00513          	li	a0,30
   11ca4:	02f55063          	ble	a5,a0,11cc4 <__fixsfsi+0x58>
   11ca8:	01412783          	lw	a5,20(sp)
   11cac:	80000537          	lui	a0,0x80000
   11cb0:	00079463          	bnez	a5,11cb8 <__fixsfsi+0x4c>
   11cb4:	fff54513          	not	a0,a0
   11cb8:	02c12083          	lw	ra,44(sp)
   11cbc:	03010113          	addi	sp,sp,48
   11cc0:	00008067          	ret
   11cc4:	40f50533          	sub	a0,a0,a5
   11cc8:	01c12783          	lw	a5,28(sp)
   11ccc:	00a7d533          	srl	a0,a5,a0
   11cd0:	01412783          	lw	a5,20(sp)
   11cd4:	fe0782e3          	beqz	a5,11cb8 <__fixsfsi+0x4c>
   11cd8:	02c12083          	lw	ra,44(sp)
   11cdc:	40a00533          	neg	a0,a0
   11ce0:	03010113          	addi	sp,sp,48
   11ce4:	00008067          	ret
   11ce8:	02c12083          	lw	ra,44(sp)
   11cec:	00000513          	li	a0,0
   11cf0:	03010113          	addi	sp,sp,48
   11cf4:	00008067          	ret

00011cf8 <__negsf2>:
   11cf8:	fd010113          	addi	sp,sp,-48
   11cfc:	00c10513          	addi	a0,sp,12
   11d00:	01010593          	addi	a1,sp,16
   11d04:	02112623          	sw	ra,44(sp)
   11d08:	00a12627          	fsw	fa0,12(sp)
   11d0c:	fc8ff0ef          	jal	114d4 <__unpack_f>
   11d10:	01412783          	lw	a5,20(sp)
   11d14:	01010513          	addi	a0,sp,16
   11d18:	0017b793          	seqz	a5,a5
   11d1c:	00f12a23          	sw	a5,20(sp)
   11d20:	e54ff0ef          	jal	11374 <__pack_f>
   11d24:	02c12083          	lw	ra,44(sp)
   11d28:	03010113          	addi	sp,sp,48
   11d2c:	00008067          	ret

00011d30 <__make_fp>:
   11d30:	fe010113          	addi	sp,sp,-32
   11d34:	00a12023          	sw	a0,0(sp)
   11d38:	00010513          	mv	a0,sp
   11d3c:	00112e23          	sw	ra,28(sp)
   11d40:	00b12223          	sw	a1,4(sp)
   11d44:	00c12423          	sw	a2,8(sp)
   11d48:	00d12623          	sw	a3,12(sp)
   11d4c:	e28ff0ef          	jal	11374 <__pack_f>
   11d50:	01c12083          	lw	ra,28(sp)
   11d54:	02010113          	addi	sp,sp,32
   11d58:	00008067          	ret

00011d5c <__extendsfdf2>:
   11d5c:	fd010113          	addi	sp,sp,-48
   11d60:	01010593          	addi	a1,sp,16
   11d64:	00c10513          	addi	a0,sp,12
   11d68:	02112623          	sw	ra,44(sp)
   11d6c:	00a12627          	fsw	fa0,12(sp)
   11d70:	f64ff0ef          	jal	114d4 <__unpack_f>
   11d74:	01c12783          	lw	a5,28(sp)
   11d78:	01812603          	lw	a2,24(sp)
   11d7c:	01412583          	lw	a1,20(sp)
   11d80:	01012503          	lw	a0,16(sp)
   11d84:	01e79713          	slli	a4,a5,0x1e
   11d88:	0027d793          	srli	a5,a5,0x2
   11d8c:	7cd000ef          	jal	12d58 <__make_dp>
   11d90:	02c12083          	lw	ra,44(sp)
   11d94:	03010113          	addi	sp,sp,48
   11d98:	00008067          	ret

00011d9c <_fpadd_parts>:
   11d9c:	00052783          	lw	a5,0(a0) # 80000000 <_end+0x7ffdf890>
   11da0:	00100693          	li	a3,1
   11da4:	12f6f263          	bleu	a5,a3,11ec8 <_fpadd_parts+0x12c>
   11da8:	0005a703          	lw	a4,0(a1)
   11dac:	10e6fc63          	bleu	a4,a3,11ec4 <_fpadd_parts+0x128>
   11db0:	00400693          	li	a3,4
   11db4:	24d78063          	beq	a5,a3,11ff4 <_fpadd_parts+0x258>
   11db8:	10d70663          	beq	a4,a3,11ec4 <_fpadd_parts+0x128>
   11dbc:	00200693          	li	a3,2
   11dc0:	1cd70263          	beq	a4,a3,11f84 <_fpadd_parts+0x1e8>
   11dc4:	10d78063          	beq	a5,a3,11ec4 <_fpadd_parts+0x128>
   11dc8:	00852303          	lw	t1,8(a0)
   11dcc:	0085a683          	lw	a3,8(a1)
   11dd0:	01052883          	lw	a7,16(a0)
   11dd4:	01452e03          	lw	t3,20(a0)
   11dd8:	40d30833          	sub	a6,t1,a3
   11ddc:	41f85793          	srai	a5,a6,0x1f
   11de0:	0107c733          	xor	a4,a5,a6
   11de4:	40f70733          	sub	a4,a4,a5
   11de8:	03f00793          	li	a5,63
   11dec:	0105a283          	lw	t0,16(a1)
   11df0:	0145a383          	lw	t2,20(a1)
   11df4:	0ce7dc63          	ble	a4,a5,11ecc <_fpadd_parts+0x130>
   11df8:	1e66c863          	blt	a3,t1,11fe8 <_fpadd_parts+0x24c>
   11dfc:	00068313          	mv	t1,a3
   11e00:	00000893          	li	a7,0
   11e04:	00000e13          	li	t3,0
   11e08:	00452503          	lw	a0,4(a0)
   11e0c:	0045a783          	lw	a5,4(a1)
   11e10:	10f50863          	beq	a0,a5,11f20 <_fpadd_parts+0x184>
   11e14:	1c050063          	beqz	a0,11fd4 <_fpadd_parts+0x238>
   11e18:	411287b3          	sub	a5,t0,a7
   11e1c:	00f2b6b3          	sltu	a3,t0,a5
   11e20:	41c38733          	sub	a4,t2,t3
   11e24:	40d706b3          	sub	a3,a4,a3
   11e28:	1e06c463          	bltz	a3,12010 <_fpadd_parts+0x274>
   11e2c:	00062223          	sw	zero,4(a2)
   11e30:	00662423          	sw	t1,8(a2)
   11e34:	00f62823          	sw	a5,16(a2)
   11e38:	00d62a23          	sw	a3,20(a2)
   11e3c:	fff78513          	addi	a0,a5,-1 # 7fffffff <_end+0x7ffdf88f>
   11e40:	fff68593          	addi	a1,a3,-1 # 3fffffff <_end+0x3ffdf88f>
   11e44:	00f53733          	sltu	a4,a0,a5
   11e48:	00b70733          	add	a4,a4,a1
   11e4c:	100005b7          	lui	a1,0x10000
   11e50:	0eb77863          	bleu	a1,a4,11f40 <_fpadd_parts+0x1a4>
   11e54:	fff58593          	addi	a1,a1,-1 # fffffff <_end+0xffdf88f>
   11e58:	24b70e63          	beq	a4,a1,120b4 <_fpadd_parts+0x318>
   11e5c:	00862503          	lw	a0,8(a2)
   11e60:	100002b7          	lui	t0,0x10000
   11e64:	fff28313          	addi	t1,t0,-1 # fffffff <_end+0xffdf88f>
   11e68:	fff50513          	addi	a0,a0,-1
   11e6c:	ffe00393          	li	t2,-2
   11e70:	0080006f          	j	11e78 <_fpadd_parts+0xdc>
   11e74:	14670c63          	beq	a4,t1,11fcc <_fpadd_parts+0x230>
   11e78:	01f7d713          	srli	a4,a5,0x1f
   11e7c:	00169593          	slli	a1,a3,0x1
   11e80:	00179793          	slli	a5,a5,0x1
   11e84:	00b765b3          	or	a1,a4,a1
   11e88:	fff78813          	addi	a6,a5,-1
   11e8c:	fff58893          	addi	a7,a1,-1
   11e90:	00f83733          	sltu	a4,a6,a5
   11e94:	01170733          	add	a4,a4,a7
   11e98:	00058693          	mv	a3,a1
   11e9c:	00050893          	mv	a7,a0
   11ea0:	fff50513          	addi	a0,a0,-1
   11ea4:	fc5768e3          	bltu	a4,t0,11e74 <_fpadd_parts+0xd8>
   11ea8:	00f62823          	sw	a5,16(a2)
   11eac:	00300793          	li	a5,3
   11eb0:	00b62a23          	sw	a1,20(a2)
   11eb4:	01162423          	sw	a7,8(a2)
   11eb8:	00f62023          	sw	a5,0(a2)
   11ebc:	00060513          	mv	a0,a2
   11ec0:	00008067          	ret
   11ec4:	00058513          	mv	a0,a1
   11ec8:	00008067          	ret
   11ecc:	19005a63          	blez	a6,12060 <_fpadd_parts+0x2c4>
   11ed0:	02077793          	andi	a5,a4,32
   11ed4:	16078263          	beqz	a5,12038 <_fpadd_parts+0x29c>
   11ed8:	00100793          	li	a5,1
   11edc:	00e3deb3          	srl	t4,t2,a4
   11ee0:	00e797b3          	sll	a5,a5,a4
   11ee4:	00000f13          	li	t5,0
   11ee8:	00000713          	li	a4,0
   11eec:	fff70693          	addi	a3,a4,-1
   11ef0:	fff78793          	addi	a5,a5,-1
   11ef4:	00e6b733          	sltu	a4,a3,a4
   11ef8:	00f70733          	add	a4,a4,a5
   11efc:	00777733          	and	a4,a4,t2
   11f00:	0056f7b3          	and	a5,a3,t0
   11f04:	00e7e7b3          	or	a5,a5,a4
   11f08:	00f037b3          	snez	a5,a5
   11f0c:	00fee2b3          	or	t0,t4,a5
   11f10:	00452503          	lw	a0,4(a0)
   11f14:	0045a783          	lw	a5,4(a1)
   11f18:	000f0393          	mv	t2,t5
   11f1c:	eef51ce3          	bne	a0,a5,11e14 <_fpadd_parts+0x78>
   11f20:	005887b3          	add	a5,a7,t0
   11f24:	0117b8b3          	sltu	a7,a5,a7
   11f28:	007e0733          	add	a4,t3,t2
   11f2c:	00e886b3          	add	a3,a7,a4
   11f30:	00a62223          	sw	a0,4(a2)
   11f34:	00662423          	sw	t1,8(a2)
   11f38:	00f62823          	sw	a5,16(a2)
   11f3c:	00d62a23          	sw	a3,20(a2)
   11f40:	00300713          	li	a4,3
   11f44:	00e62023          	sw	a4,0(a2)
   11f48:	20000737          	lui	a4,0x20000
   11f4c:	02e6e863          	bltu	a3,a4,11f7c <_fpadd_parts+0x1e0>
   11f50:	00862703          	lw	a4,8(a2)
   11f54:	01f69513          	slli	a0,a3,0x1f
   11f58:	0017d593          	srli	a1,a5,0x1
   11f5c:	00b565b3          	or	a1,a0,a1
   11f60:	0017f793          	andi	a5,a5,1
   11f64:	0016d693          	srli	a3,a3,0x1
   11f68:	00f5e7b3          	or	a5,a1,a5
   11f6c:	00170713          	addi	a4,a4,1 # 20000001 <_end+0x1ffdf891>
   11f70:	00f62823          	sw	a5,16(a2)
   11f74:	00d62a23          	sw	a3,20(a2)
   11f78:	00e62423          	sw	a4,8(a2)
   11f7c:	00060513          	mv	a0,a2
   11f80:	00008067          	ret
   11f84:	f4e792e3          	bne	a5,a4,11ec8 <_fpadd_parts+0x12c>
   11f88:	00f62023          	sw	a5,0(a2)
   11f8c:	00452783          	lw	a5,4(a0)
   11f90:	00f62223          	sw	a5,4(a2)
   11f94:	00852703          	lw	a4,8(a0)
   11f98:	00452683          	lw	a3,4(a0)
   11f9c:	0045a783          	lw	a5,4(a1)
   11fa0:	00e62423          	sw	a4,8(a2)
   11fa4:	00c52703          	lw	a4,12(a0)
   11fa8:	00f6f7b3          	and	a5,a3,a5
   11fac:	00e62623          	sw	a4,12(a2)
   11fb0:	01052703          	lw	a4,16(a0)
   11fb4:	00e62823          	sw	a4,16(a2)
   11fb8:	01452703          	lw	a4,20(a0)
   11fbc:	00f62223          	sw	a5,4(a2)
   11fc0:	00060513          	mv	a0,a2
   11fc4:	00e62a23          	sw	a4,20(a2)
   11fc8:	00008067          	ret
   11fcc:	eb03f6e3          	bleu	a6,t2,11e78 <_fpadd_parts+0xdc>
   11fd0:	ed9ff06f          	j	11ea8 <_fpadd_parts+0x10c>
   11fd4:	405887b3          	sub	a5,a7,t0
   11fd8:	00f8b6b3          	sltu	a3,a7,a5
   11fdc:	407e0733          	sub	a4,t3,t2
   11fe0:	40d706b3          	sub	a3,a4,a3
   11fe4:	e45ff06f          	j	11e28 <_fpadd_parts+0x8c>
   11fe8:	00000293          	li	t0,0
   11fec:	00000393          	li	t2,0
   11ff0:	e19ff06f          	j	11e08 <_fpadd_parts+0x6c>
   11ff4:	ecf71ae3          	bne	a4,a5,11ec8 <_fpadd_parts+0x12c>
   11ff8:	00452703          	lw	a4,4(a0)
   11ffc:	0045a783          	lw	a5,4(a1)
   12000:	ecf704e3          	beq	a4,a5,11ec8 <_fpadd_parts+0x12c>
   12004:	0001c537          	lui	a0,0x1c
   12008:	d4850513          	addi	a0,a0,-696 # 1bd48 <__thenan_df>
   1200c:	00008067          	ret
   12010:	40f007b3          	neg	a5,a5
   12014:	00f03733          	snez	a4,a5
   12018:	40d006b3          	neg	a3,a3
   1201c:	40e686b3          	sub	a3,a3,a4
   12020:	00100713          	li	a4,1
   12024:	00e62223          	sw	a4,4(a2)
   12028:	00662423          	sw	t1,8(a2)
   1202c:	00f62823          	sw	a5,16(a2)
   12030:	00d62a23          	sw	a3,20(a2)
   12034:	e09ff06f          	j	11e3c <_fpadd_parts+0xa0>
   12038:	fff74693          	not	a3,a4
   1203c:	00139793          	slli	a5,t2,0x1
   12040:	00d797b3          	sll	a5,a5,a3
   12044:	00e2deb3          	srl	t4,t0,a4
   12048:	00100813          	li	a6,1
   1204c:	01d7eeb3          	or	t4,a5,t4
   12050:	00e3df33          	srl	t5,t2,a4
   12054:	00000793          	li	a5,0
   12058:	00e81733          	sll	a4,a6,a4
   1205c:	e91ff06f          	j	11eec <_fpadd_parts+0x150>
   12060:	da0804e3          	beqz	a6,11e08 <_fpadd_parts+0x6c>
   12064:	02077793          	andi	a5,a4,32
   12068:	00e30333          	add	t1,t1,a4
   1206c:	06078263          	beqz	a5,120d0 <_fpadd_parts+0x334>
   12070:	00ee5833          	srl	a6,t3,a4
   12074:	00000e93          	li	t4,0
   12078:	04079463          	bnez	a5,120c0 <_fpadd_parts+0x324>
   1207c:	00100793          	li	a5,1
   12080:	00000693          	li	a3,0
   12084:	00e79733          	sll	a4,a5,a4
   12088:	fff70793          	addi	a5,a4,-1
   1208c:	00e7b733          	sltu	a4,a5,a4
   12090:	fff68693          	addi	a3,a3,-1
   12094:	00d70733          	add	a4,a4,a3
   12098:	0117f7b3          	and	a5,a5,a7
   1209c:	01c77733          	and	a4,a4,t3
   120a0:	00e7e7b3          	or	a5,a5,a4
   120a4:	00f037b3          	snez	a5,a5
   120a8:	00f868b3          	or	a7,a6,a5
   120ac:	000e8e13          	mv	t3,t4
   120b0:	d59ff06f          	j	11e08 <_fpadd_parts+0x6c>
   120b4:	ffe00713          	li	a4,-2
   120b8:	daa772e3          	bleu	a0,a4,11e5c <_fpadd_parts+0xc0>
   120bc:	e85ff06f          	j	11f40 <_fpadd_parts+0x1a4>
   120c0:	00100693          	li	a3,1
   120c4:	00e696b3          	sll	a3,a3,a4
   120c8:	00000713          	li	a4,0
   120cc:	fbdff06f          	j	12088 <_fpadd_parts+0x2ec>
   120d0:	001e1793          	slli	a5,t3,0x1
   120d4:	fff74693          	not	a3,a4
   120d8:	00d797b3          	sll	a5,a5,a3
   120dc:	00e8d833          	srl	a6,a7,a4
   120e0:	0107e833          	or	a6,a5,a6
   120e4:	00ee5eb3          	srl	t4,t3,a4
   120e8:	f95ff06f          	j	1207c <_fpadd_parts+0x2e0>

000120ec <__pack_d>:
   120ec:	00052783          	lw	a5,0(a0)
   120f0:	00100613          	li	a2,1
   120f4:	ff010113          	addi	sp,sp,-16
   120f8:	01052683          	lw	a3,16(a0)
   120fc:	01452583          	lw	a1,20(a0)
   12100:	00452803          	lw	a6,4(a0)
   12104:	10f67263          	bleu	a5,a2,12208 <__pack_d+0x11c>
   12108:	00400893          	li	a7,4
   1210c:	0f178663          	beq	a5,a7,121f8 <__pack_d+0x10c>
   12110:	00200893          	li	a7,2
   12114:	07178263          	beq	a5,a7,12178 <__pack_d+0x8c>
   12118:	00b6e7b3          	or	a5,a3,a1
   1211c:	04078e63          	beqz	a5,12178 <__pack_d+0x8c>
   12120:	00852783          	lw	a5,8(a0)
   12124:	c0200513          	li	a0,-1022
   12128:	12a7c863          	blt	a5,a0,12258 <__pack_d+0x16c>
   1212c:	3ff00613          	li	a2,1023
   12130:	0cf64463          	blt	a2,a5,121f8 <__pack_d+0x10c>
   12134:	0ff6f613          	andi	a2,a3,255
   12138:	08000513          	li	a0,128
   1213c:	10a60063          	beq	a2,a0,1223c <__pack_d+0x150>
   12140:	07f68613          	addi	a2,a3,127
   12144:	00d636b3          	sltu	a3,a2,a3
   12148:	00b685b3          	add	a1,a3,a1
   1214c:	00060693          	mv	a3,a2
   12150:	20000637          	lui	a2,0x20000
   12154:	08c5f663          	bleu	a2,a1,121e0 <__pack_d+0xf4>
   12158:	3ff78793          	addi	a5,a5,1023
   1215c:	01859613          	slli	a2,a1,0x18
   12160:	0086d713          	srli	a4,a3,0x8
   12164:	00459593          	slli	a1,a1,0x4
   12168:	00e66733          	or	a4,a2,a4
   1216c:	00c5d593          	srli	a1,a1,0xc
   12170:	7ff7f793          	andi	a5,a5,2047
   12174:	0100006f          	j	12184 <__pack_d+0x98>
   12178:	00000793          	li	a5,0
   1217c:	00000713          	li	a4,0
   12180:	00000593          	li	a1,0
   12184:	00070613          	mv	a2,a4
   12188:	00100737          	lui	a4,0x100
   1218c:	00000693          	li	a3,0
   12190:	fff70713          	addi	a4,a4,-1 # fffff <_end+0xdf88f>
   12194:	fff00537          	lui	a0,0xfff00
   12198:	00d57533          	and	a0,a0,a3
   1219c:	00e5f5b3          	and	a1,a1,a4
   121a0:	01479713          	slli	a4,a5,0x14
   121a4:	801007b7          	lui	a5,0x80100
   121a8:	00b565b3          	or	a1,a0,a1
   121ac:	fff78793          	addi	a5,a5,-1 # 800fffff <_end+0x800df88f>
   121b0:	00f5f7b3          	and	a5,a1,a5
   121b4:	00e7e7b3          	or	a5,a5,a4
   121b8:	80000737          	lui	a4,0x80000
   121bc:	fff74713          	not	a4,a4
   121c0:	01f81813          	slli	a6,a6,0x1f
   121c4:	00e7f7b3          	and	a5,a5,a4
   121c8:	0107e6b3          	or	a3,a5,a6
   121cc:	00c12423          	sw	a2,8(sp)
   121d0:	00d12623          	sw	a3,12(sp)
   121d4:	00813507          	fld	fa0,8(sp)
   121d8:	01010113          	addi	sp,sp,16
   121dc:	00008067          	ret
   121e0:	01f59713          	slli	a4,a1,0x1f
   121e4:	0016d693          	srli	a3,a3,0x1
   121e8:	00d766b3          	or	a3,a4,a3
   121ec:	0015d593          	srli	a1,a1,0x1
   121f0:	40078793          	addi	a5,a5,1024
   121f4:	f69ff06f          	j	1215c <__pack_d+0x70>
   121f8:	7ff00793          	li	a5,2047
   121fc:	00000713          	li	a4,0
   12200:	00000593          	li	a1,0
   12204:	f81ff06f          	j	12184 <__pack_d+0x98>
   12208:	00080637          	lui	a2,0x80
   1220c:	0085d713          	srli	a4,a1,0x8
   12210:	fff60793          	addi	a5,a2,-1 # 7ffff <_end+0x5f88f>
   12214:	00f777b3          	and	a5,a4,a5
   12218:	01859713          	slli	a4,a1,0x18
   1221c:	00c7e5b3          	or	a1,a5,a2
   12220:	001007b7          	lui	a5,0x100
   12224:	fff78793          	addi	a5,a5,-1 # fffff <_end+0xdf88f>
   12228:	0086d693          	srli	a3,a3,0x8
   1222c:	00f5f5b3          	and	a1,a1,a5
   12230:	00d76733          	or	a4,a4,a3
   12234:	7ff00793          	li	a5,2047
   12238:	f4dff06f          	j	12184 <__pack_d+0x98>
   1223c:	1006f713          	andi	a4,a3,256
   12240:	f00708e3          	beqz	a4,12150 <__pack_d+0x64>
   12244:	00a68733          	add	a4,a3,a0
   12248:	00d736b3          	sltu	a3,a4,a3
   1224c:	00b685b3          	add	a1,a3,a1
   12250:	00070693          	mv	a3,a4
   12254:	efdff06f          	j	12150 <__pack_d+0x64>
   12258:	40f507b3          	sub	a5,a0,a5
   1225c:	03800713          	li	a4,56
   12260:	f0f74ce3          	blt	a4,a5,12178 <__pack_d+0x8c>
   12264:	0207f713          	andi	a4,a5,32
   12268:	0a070663          	beqz	a4,12314 <__pack_d+0x228>
   1226c:	00f5d733          	srl	a4,a1,a5
   12270:	00f61633          	sll	a2,a2,a5
   12274:	00000893          	li	a7,0
   12278:	00000793          	li	a5,0
   1227c:	fff78513          	addi	a0,a5,-1
   12280:	00f537b3          	sltu	a5,a0,a5
   12284:	fff60613          	addi	a2,a2,-1
   12288:	00c78633          	add	a2,a5,a2
   1228c:	00b675b3          	and	a1,a2,a1
   12290:	00d577b3          	and	a5,a0,a3
   12294:	00b7e7b3          	or	a5,a5,a1
   12298:	00f037b3          	snez	a5,a5
   1229c:	00f766b3          	or	a3,a4,a5
   122a0:	0ff6f713          	andi	a4,a3,255
   122a4:	08000793          	li	a5,128
   122a8:	02f71a63          	bne	a4,a5,122dc <__pack_d+0x1f0>
   122ac:	1006f793          	andi	a5,a3,256
   122b0:	08079663          	bnez	a5,1233c <__pack_d+0x250>
   122b4:	01889793          	slli	a5,a7,0x18
   122b8:	0086d713          	srli	a4,a3,0x8
   122bc:	00489593          	slli	a1,a7,0x4
   122c0:	100006b7          	lui	a3,0x10000
   122c4:	00e7e733          	or	a4,a5,a4
   122c8:	00c5d593          	srli	a1,a1,0xc
   122cc:	00100793          	li	a5,1
   122d0:	02d8ec63          	bltu	a7,a3,12308 <__pack_d+0x21c>
   122d4:	0017f793          	andi	a5,a5,1
   122d8:	eadff06f          	j	12184 <__pack_d+0x98>
   122dc:	07f68793          	addi	a5,a3,127 # 1000007f <_end+0xffdf90f>
   122e0:	00d7b733          	sltu	a4,a5,a3
   122e4:	011706b3          	add	a3,a4,a7
   122e8:	01869613          	slli	a2,a3,0x18
   122ec:	0087d713          	srli	a4,a5,0x8
   122f0:	00469593          	slli	a1,a3,0x4
   122f4:	00e66733          	or	a4,a2,a4
   122f8:	10000637          	lui	a2,0x10000
   122fc:	00c5d593          	srli	a1,a1,0xc
   12300:	00100793          	li	a5,1
   12304:	fcc6f8e3          	bleu	a2,a3,122d4 <__pack_d+0x1e8>
   12308:	00000793          	li	a5,0
   1230c:	0017f793          	andi	a5,a5,1
   12310:	e75ff06f          	j	12184 <__pack_d+0x98>
   12314:	fff7c713          	not	a4,a5
   12318:	00159613          	slli	a2,a1,0x1
   1231c:	00e61633          	sll	a2,a2,a4
   12320:	00100513          	li	a0,1
   12324:	00f6d733          	srl	a4,a3,a5
   12328:	00e66733          	or	a4,a2,a4
   1232c:	00f5d8b3          	srl	a7,a1,a5
   12330:	00000613          	li	a2,0
   12334:	00f517b3          	sll	a5,a0,a5
   12338:	f45ff06f          	j	1227c <__pack_d+0x190>
   1233c:	08068793          	addi	a5,a3,128
   12340:	fa1ff06f          	j	122e0 <__pack_d+0x1f4>

00012344 <__unpack_d>:
   12344:	00655683          	lhu	a3,6(a0) # fff00006 <_end+0xffedf896>
   12348:	00754703          	lbu	a4,7(a0)
   1234c:	00452803          	lw	a6,4(a0)
   12350:	0046d693          	srli	a3,a3,0x4
   12354:	001007b7          	lui	a5,0x100
   12358:	00775613          	srli	a2,a4,0x7
   1235c:	fff78793          	addi	a5,a5,-1 # fffff <_end+0xdf88f>
   12360:	7ff6f693          	andi	a3,a3,2047
   12364:	00052703          	lw	a4,0(a0)
   12368:	00f877b3          	and	a5,a6,a5
   1236c:	00c5a223          	sw	a2,4(a1)
   12370:	04069c63          	bnez	a3,123c8 <__unpack_d+0x84>
   12374:	00f766b3          	or	a3,a4,a5
   12378:	08068663          	beqz	a3,12404 <__unpack_d+0xc0>
   1237c:	01875693          	srli	a3,a4,0x18
   12380:	00879793          	slli	a5,a5,0x8
   12384:	00f6e7b3          	or	a5,a3,a5
   12388:	00300693          	li	a3,3
   1238c:	00d5a023          	sw	a3,0(a1)
   12390:	00871713          	slli	a4,a4,0x8
   12394:	c0100693          	li	a3,-1023
   12398:	10000537          	lui	a0,0x10000
   1239c:	01f75613          	srli	a2,a4,0x1f
   123a0:	00179793          	slli	a5,a5,0x1
   123a4:	00f667b3          	or	a5,a2,a5
   123a8:	00171713          	slli	a4,a4,0x1
   123ac:	00068613          	mv	a2,a3
   123b0:	fff68693          	addi	a3,a3,-1
   123b4:	fea7e4e3          	bltu	a5,a0,1239c <__unpack_d+0x58>
   123b8:	00c5a423          	sw	a2,8(a1)
   123bc:	00e5a823          	sw	a4,16(a1)
   123c0:	00f5aa23          	sw	a5,20(a1)
   123c4:	00008067          	ret
   123c8:	7ff00613          	li	a2,2047
   123cc:	04c68263          	beq	a3,a2,12410 <__unpack_d+0xcc>
   123d0:	01875613          	srli	a2,a4,0x18
   123d4:	00879793          	slli	a5,a5,0x8
   123d8:	00f667b3          	or	a5,a2,a5
   123dc:	c0168693          	addi	a3,a3,-1023
   123e0:	10000637          	lui	a2,0x10000
   123e4:	00871713          	slli	a4,a4,0x8
   123e8:	00c7e7b3          	or	a5,a5,a2
   123ec:	00d5a423          	sw	a3,8(a1)
   123f0:	00300693          	li	a3,3
   123f4:	00d5a023          	sw	a3,0(a1)
   123f8:	00e5a823          	sw	a4,16(a1)
   123fc:	00f5aa23          	sw	a5,20(a1)
   12400:	00008067          	ret
   12404:	00200793          	li	a5,2
   12408:	00f5a023          	sw	a5,0(a1)
   1240c:	00008067          	ret
   12410:	00f766b3          	or	a3,a4,a5
   12414:	02068e63          	beqz	a3,12450 <__unpack_d+0x10c>
   12418:	00c79693          	slli	a3,a5,0xc
   1241c:	0406d063          	bgez	a3,1245c <__unpack_d+0x118>
   12420:	00100693          	li	a3,1
   12424:	00d5a023          	sw	a3,0(a1)
   12428:	fff806b7          	lui	a3,0xfff80
   1242c:	fff68693          	addi	a3,a3,-1 # fff7ffff <_end+0xfff5f88f>
   12430:	00d7f7b3          	and	a5,a5,a3
   12434:	00879793          	slli	a5,a5,0x8
   12438:	01875693          	srli	a3,a4,0x18
   1243c:	00d7e7b3          	or	a5,a5,a3
   12440:	00871713          	slli	a4,a4,0x8
   12444:	00f5aa23          	sw	a5,20(a1)
   12448:	00e5a823          	sw	a4,16(a1)
   1244c:	00008067          	ret
   12450:	00400793          	li	a5,4
   12454:	00f5a023          	sw	a5,0(a1)
   12458:	00008067          	ret
   1245c:	0005a023          	sw	zero,0(a1)
   12460:	fc9ff06f          	j	12428 <__unpack_d+0xe4>

00012464 <__adddf3>:
   12464:	f9010113          	addi	sp,sp,-112
   12468:	01810593          	addi	a1,sp,24
   1246c:	00810513          	addi	a0,sp,8
   12470:	06112623          	sw	ra,108(sp)
   12474:	00a13427          	fsd	fa0,8(sp)
   12478:	00c13827          	fsd	fa2,16(sp)
   1247c:	ec9ff0ef          	jal	12344 <__unpack_d>
   12480:	03010593          	addi	a1,sp,48
   12484:	01010513          	addi	a0,sp,16
   12488:	ebdff0ef          	jal	12344 <__unpack_d>
   1248c:	04810613          	addi	a2,sp,72
   12490:	03010593          	addi	a1,sp,48
   12494:	01810513          	addi	a0,sp,24
   12498:	905ff0ef          	jal	11d9c <_fpadd_parts>
   1249c:	c51ff0ef          	jal	120ec <__pack_d>
   124a0:	06c12083          	lw	ra,108(sp)
   124a4:	07010113          	addi	sp,sp,112
   124a8:	00008067          	ret

000124ac <__subdf3>:
   124ac:	f9010113          	addi	sp,sp,-112
   124b0:	01810593          	addi	a1,sp,24
   124b4:	00810513          	addi	a0,sp,8
   124b8:	06112623          	sw	ra,108(sp)
   124bc:	00a13427          	fsd	fa0,8(sp)
   124c0:	00c13827          	fsd	fa2,16(sp)
   124c4:	e81ff0ef          	jal	12344 <__unpack_d>
   124c8:	03010593          	addi	a1,sp,48
   124cc:	01010513          	addi	a0,sp,16
   124d0:	e75ff0ef          	jal	12344 <__unpack_d>
   124d4:	03412783          	lw	a5,52(sp)
   124d8:	04810613          	addi	a2,sp,72
   124dc:	03010593          	addi	a1,sp,48
   124e0:	0017c793          	xori	a5,a5,1
   124e4:	01810513          	addi	a0,sp,24
   124e8:	02f12a23          	sw	a5,52(sp)
   124ec:	8b1ff0ef          	jal	11d9c <_fpadd_parts>
   124f0:	bfdff0ef          	jal	120ec <__pack_d>
   124f4:	06c12083          	lw	ra,108(sp)
   124f8:	07010113          	addi	sp,sp,112
   124fc:	00008067          	ret

00012500 <__muldf3>:
   12500:	f9010113          	addi	sp,sp,-112
   12504:	01810593          	addi	a1,sp,24
   12508:	00810513          	addi	a0,sp,8
   1250c:	06112623          	sw	ra,108(sp)
   12510:	00a13427          	fsd	fa0,8(sp)
   12514:	00c13827          	fsd	fa2,16(sp)
   12518:	e2dff0ef          	jal	12344 <__unpack_d>
   1251c:	03010593          	addi	a1,sp,48
   12520:	01010513          	addi	a0,sp,16
   12524:	e21ff0ef          	jal	12344 <__unpack_d>
   12528:	01812783          	lw	a5,24(sp)
   1252c:	00100693          	li	a3,1
   12530:	16f6fc63          	bleu	a5,a3,126a8 <__muldf3+0x1a8>
   12534:	03012703          	lw	a4,48(sp)
   12538:	14e6f063          	bleu	a4,a3,12678 <__muldf3+0x178>
   1253c:	00400693          	li	a3,4
   12540:	16d78063          	beq	a5,a3,126a0 <__muldf3+0x1a0>
   12544:	12d70663          	beq	a4,a3,12670 <__muldf3+0x170>
   12548:	00200693          	li	a3,2
   1254c:	14d78e63          	beq	a5,a3,126a8 <__muldf3+0x1a8>
   12550:	12d70463          	beq	a4,a3,12678 <__muldf3+0x178>
   12554:	02812503          	lw	a0,40(sp)
   12558:	02c12703          	lw	a4,44(sp)
   1255c:	04012783          	lw	a5,64(sp)
   12560:	04412803          	lw	a6,68(sp)
   12564:	02f70633          	mul	a2,a4,a5
   12568:	02a803b3          	mul	t2,a6,a0
   1256c:	02a832b3          	mulhu	t0,a6,a0
   12570:	00760333          	add	t1,a2,t2
   12574:	00c33633          	sltu	a2,t1,a2
   12578:	02f735b3          	mulhu	a1,a4,a5
   1257c:	005585b3          	add	a1,a1,t0
   12580:	00b60633          	add	a2,a2,a1
   12584:	030708b3          	mul	a7,a4,a6
   12588:	02a785b3          	mul	a1,a5,a0
   1258c:	03073833          	mulhu	a6,a4,a6
   12590:	02a7b533          	mulhu	a0,a5,a0
   12594:	14566063          	bltu	a2,t0,126d4 <__muldf3+0x1d4>
   12598:	12c28c63          	beq	t0,a2,126d0 <__muldf3+0x1d0>
   1259c:	00000793          	li	a5,0
   125a0:	00000713          	li	a4,0
   125a4:	00a306b3          	add	a3,t1,a0
   125a8:	00a6f463          	bleu	a0,a3,125b0 <__muldf3+0xb0>
   125ac:	00100793          	li	a5,1
   125b0:	011608b3          	add	a7,a2,a7
   125b4:	00c8b533          	sltu	a0,a7,a2
   125b8:	01050833          	add	a6,a0,a6
   125bc:	02012603          	lw	a2,32(sp)
   125c0:	03812503          	lw	a0,56(sp)
   125c4:	00f887b3          	add	a5,a7,a5
   125c8:	0117b8b3          	sltu	a7,a5,a7
   125cc:	00a60533          	add	a0,a2,a0
   125d0:	00e80633          	add	a2,a6,a4
   125d4:	01c12703          	lw	a4,28(sp)
   125d8:	03412803          	lw	a6,52(sp)
   125dc:	00450293          	addi	t0,a0,4 # 10000004 <_end+0xffdf894>
   125e0:	200003b7          	lui	t2,0x20000
   125e4:	41070833          	sub	a6,a4,a6
   125e8:	01003833          	snez	a6,a6
   125ec:	00c88733          	add	a4,a7,a2
   125f0:	04512823          	sw	t0,80(sp)
   125f4:	05012623          	sw	a6,76(sp)
   125f8:	00550613          	addi	a2,a0,5
   125fc:	80000eb7          	lui	t4,0x80000
   12600:	10776863          	bltu	a4,t2,12710 <__muldf3+0x210>
   12604:	0017f813          	andi	a6,a5,1
   12608:	01f71513          	slli	a0,a4,0x1f
   1260c:	0017d793          	srli	a5,a5,0x1
   12610:	00175713          	srli	a4,a4,0x1
   12614:	01f69313          	slli	t1,a3,0x1f
   12618:	0015d293          	srli	t0,a1,0x1
   1261c:	0016d893          	srli	a7,a3,0x1
   12620:	00060e13          	mv	t3,a2
   12624:	00080663          	beqz	a6,12630 <__muldf3+0x130>
   12628:	005365b3          	or	a1,t1,t0
   1262c:	01d8e6b3          	or	a3,a7,t4
   12630:	00f567b3          	or	a5,a0,a5
   12634:	00160613          	addi	a2,a2,1 # 10000001 <_end+0xffdf891>
   12638:	fc7776e3          	bleu	t2,a4,12604 <__muldf3+0x104>
   1263c:	05c12823          	sw	t3,80(sp)
   12640:	0ff7f613          	andi	a2,a5,255
   12644:	08000513          	li	a0,128
   12648:	08a60c63          	beq	a2,a0,126e0 <__muldf3+0x1e0>
   1264c:	04f12c23          	sw	a5,88(sp)
   12650:	00300793          	li	a5,3
   12654:	04e12e23          	sw	a4,92(sp)
   12658:	04f12423          	sw	a5,72(sp)
   1265c:	04810513          	addi	a0,sp,72
   12660:	a8dff0ef          	jal	120ec <__pack_d>
   12664:	06c12083          	lw	ra,108(sp)
   12668:	07010113          	addi	sp,sp,112
   1266c:	00008067          	ret
   12670:	00200713          	li	a4,2
   12674:	08e78863          	beq	a5,a4,12704 <__muldf3+0x204>
   12678:	03412703          	lw	a4,52(sp)
   1267c:	01c12783          	lw	a5,28(sp)
   12680:	03010513          	addi	a0,sp,48
   12684:	40e787b3          	sub	a5,a5,a4
   12688:	00f037b3          	snez	a5,a5
   1268c:	02f12a23          	sw	a5,52(sp)
   12690:	a5dff0ef          	jal	120ec <__pack_d>
   12694:	06c12083          	lw	ra,108(sp)
   12698:	07010113          	addi	sp,sp,112
   1269c:	00008067          	ret
   126a0:	00200793          	li	a5,2
   126a4:	06f70063          	beq	a4,a5,12704 <__muldf3+0x204>
   126a8:	03412703          	lw	a4,52(sp)
   126ac:	01c12783          	lw	a5,28(sp)
   126b0:	01810513          	addi	a0,sp,24
   126b4:	40e787b3          	sub	a5,a5,a4
   126b8:	00f037b3          	snez	a5,a5
   126bc:	00f12e23          	sw	a5,28(sp)
   126c0:	a2dff0ef          	jal	120ec <__pack_d>
   126c4:	06c12083          	lw	ra,108(sp)
   126c8:	07010113          	addi	sp,sp,112
   126cc:	00008067          	ret
   126d0:	ec7376e3          	bleu	t2,t1,1259c <__muldf3+0x9c>
   126d4:	00000793          	li	a5,0
   126d8:	00100713          	li	a4,1
   126dc:	ec9ff06f          	j	125a4 <__muldf3+0xa4>
   126e0:	1007f613          	andi	a2,a5,256
   126e4:	f60614e3          	bnez	a2,1264c <__muldf3+0x14c>
   126e8:	00d5e6b3          	or	a3,a1,a3
   126ec:	f60680e3          	beqz	a3,1264c <__muldf3+0x14c>
   126f0:	00a786b3          	add	a3,a5,a0
   126f4:	00f6b7b3          	sltu	a5,a3,a5
   126f8:	00e78733          	add	a4,a5,a4
   126fc:	f006f793          	andi	a5,a3,-256
   12700:	f4dff06f          	j	1264c <__muldf3+0x14c>
   12704:	0001c537          	lui	a0,0x1c
   12708:	d4850513          	addi	a0,a0,-696 # 1bd48 <__thenan_df>
   1270c:	f55ff06f          	j	12660 <__muldf3+0x160>
   12710:	10000337          	lui	t1,0x10000
   12714:	00350513          	addi	a0,a0,3
   12718:	f26774e3          	bleu	t1,a4,12640 <__muldf3+0x140>
   1271c:	01f7d813          	srli	a6,a5,0x1f
   12720:	00171613          	slli	a2,a4,0x1
   12724:	00c86633          	or	a2,a6,a2
   12728:	01f5d893          	srli	a7,a1,0x1f
   1272c:	00169813          	slli	a6,a3,0x1
   12730:	00050293          	mv	t0,a0
   12734:	00179793          	slli	a5,a5,0x1
   12738:	00060713          	mv	a4,a2
   1273c:	0006d463          	bgez	a3,12744 <__muldf3+0x244>
   12740:	0017e793          	ori	a5,a5,1
   12744:	00159593          	slli	a1,a1,0x1
   12748:	0108e6b3          	or	a3,a7,a6
   1274c:	fff50513          	addi	a0,a0,-1
   12750:	fc6666e3          	bltu	a2,t1,1271c <__muldf3+0x21c>
   12754:	04512823          	sw	t0,80(sp)
   12758:	ee9ff06f          	j	12640 <__muldf3+0x140>

0001275c <__divdf3>:
   1275c:	fb010113          	addi	sp,sp,-80
   12760:	01010593          	addi	a1,sp,16
   12764:	00010513          	mv	a0,sp
   12768:	04112623          	sw	ra,76(sp)
   1276c:	00a13027          	fsd	fa0,0(sp)
   12770:	00c13427          	fsd	fa2,8(sp)
   12774:	bd1ff0ef          	jal	12344 <__unpack_d>
   12778:	02810593          	addi	a1,sp,40
   1277c:	00810513          	addi	a0,sp,8
   12780:	bc5ff0ef          	jal	12344 <__unpack_d>
   12784:	01012603          	lw	a2,16(sp)
   12788:	00100793          	li	a5,1
   1278c:	0ec7fa63          	bleu	a2,a5,12880 <__divdf3+0x124>
   12790:	02812683          	lw	a3,40(sp)
   12794:	14d7fe63          	bleu	a3,a5,128f0 <__divdf3+0x194>
   12798:	01412583          	lw	a1,20(sp)
   1279c:	02c12703          	lw	a4,44(sp)
   127a0:	ffe60793          	addi	a5,a2,-2
   127a4:	ffd7f793          	andi	a5,a5,-3
   127a8:	00e5c733          	xor	a4,a1,a4
   127ac:	00e12a23          	sw	a4,20(sp)
   127b0:	0e078263          	beqz	a5,12894 <__divdf3+0x138>
   127b4:	00400793          	li	a5,4
   127b8:	0ef68663          	beq	a3,a5,128a4 <__divdf3+0x148>
   127bc:	00200713          	li	a4,2
   127c0:	12e68263          	beq	a3,a4,128e4 <__divdf3+0x188>
   127c4:	01812703          	lw	a4,24(sp)
   127c8:	03012603          	lw	a2,48(sp)
   127cc:	02412783          	lw	a5,36(sp)
   127d0:	03c12883          	lw	a7,60(sp)
   127d4:	40c70633          	sub	a2,a4,a2
   127d8:	00c12c23          	sw	a2,24(sp)
   127dc:	02012683          	lw	a3,32(sp)
   127e0:	03812f03          	lw	t5,56(sp)
   127e4:	0117e663          	bltu	a5,a7,127f0 <__divdf3+0x94>
   127e8:	02f89063          	bne	a7,a5,12808 <__divdf3+0xac>
   127ec:	01e6fe63          	bleu	t5,a3,12808 <__divdf3+0xac>
   127f0:	01f6d593          	srli	a1,a3,0x1f
   127f4:	00179713          	slli	a4,a5,0x1
   127f8:	fff60613          	addi	a2,a2,-1
   127fc:	00e5e7b3          	or	a5,a1,a4
   12800:	00169693          	slli	a3,a3,0x1
   12804:	00c12c23          	sw	a2,24(sp)
   12808:	03d00513          	li	a0,61
   1280c:	00000393          	li	t2,0
   12810:	00000e13          	li	t3,0
   12814:	00000813          	li	a6,0
   12818:	100005b7          	lui	a1,0x10000
   1281c:	01f59313          	slli	t1,a1,0x1f
   12820:	00185293          	srli	t0,a6,0x1
   12824:	fff50513          	addi	a0,a0,-1
   12828:	0317e463          	bltu	a5,a7,12850 <__divdf3+0xf4>
   1282c:	41e68733          	sub	a4,a3,t5
   12830:	00e6b633          	sltu	a2,a3,a4
   12834:	41178eb3          	sub	t4,a5,a7
   12838:	00f89463          	bne	a7,a5,12840 <__divdf3+0xe4>
   1283c:	01e6ea63          	bltu	a3,t5,12850 <__divdf3+0xf4>
   12840:	00070693          	mv	a3,a4
   12844:	40ce87b3          	sub	a5,t4,a2
   12848:	0103e3b3          	or	t2,t2,a6
   1284c:	00be6e33          	or	t3,t3,a1
   12850:	01f6d613          	srli	a2,a3,0x1f
   12854:	00179713          	slli	a4,a5,0x1
   12858:	00536833          	or	a6,t1,t0
   1285c:	0015d593          	srli	a1,a1,0x1
   12860:	00e667b3          	or	a5,a2,a4
   12864:	00169693          	slli	a3,a3,0x1
   12868:	fa051ae3          	bnez	a0,1281c <__divdf3+0xc0>
   1286c:	0ff3f713          	andi	a4,t2,255
   12870:	08000613          	li	a2,128
   12874:	04c70663          	beq	a4,a2,128c0 <__divdf3+0x164>
   12878:	02712023          	sw	t2,32(sp)
   1287c:	03c12223          	sw	t3,36(sp)
   12880:	01010513          	addi	a0,sp,16
   12884:	869ff0ef          	jal	120ec <__pack_d>
   12888:	04c12083          	lw	ra,76(sp)
   1288c:	05010113          	addi	sp,sp,80
   12890:	00008067          	ret
   12894:	fed616e3          	bne	a2,a3,12880 <__divdf3+0x124>
   12898:	0001c537          	lui	a0,0x1c
   1289c:	d4850513          	addi	a0,a0,-696 # 1bd48 <__thenan_df>
   128a0:	fe5ff06f          	j	12884 <__divdf3+0x128>
   128a4:	00000713          	li	a4,0
   128a8:	00000793          	li	a5,0
   128ac:	02e12023          	sw	a4,32(sp)
   128b0:	02f12223          	sw	a5,36(sp)
   128b4:	00012c23          	sw	zero,24(sp)
   128b8:	01010513          	addi	a0,sp,16
   128bc:	fc9ff06f          	j	12884 <__divdf3+0x128>
   128c0:	1003f713          	andi	a4,t2,256
   128c4:	fa071ae3          	bnez	a4,12878 <__divdf3+0x11c>
   128c8:	00f6e7b3          	or	a5,a3,a5
   128cc:	fa0786e3          	beqz	a5,12878 <__divdf3+0x11c>
   128d0:	00c387b3          	add	a5,t2,a2
   128d4:	0077b3b3          	sltu	t2,a5,t2
   128d8:	01c38e33          	add	t3,t2,t3
   128dc:	f007f393          	andi	t2,a5,-256
   128e0:	f99ff06f          	j	12878 <__divdf3+0x11c>
   128e4:	00f12823          	sw	a5,16(sp)
   128e8:	01010513          	addi	a0,sp,16
   128ec:	f99ff06f          	j	12884 <__divdf3+0x128>
   128f0:	02810513          	addi	a0,sp,40
   128f4:	f91ff06f          	j	12884 <__divdf3+0x128>

000128f8 <__fpcmp_parts_d>:
   128f8:	00052703          	lw	a4,0(a0)
   128fc:	00100793          	li	a5,1
   12900:	00050613          	mv	a2,a0
   12904:	08e7f263          	bleu	a4,a5,12988 <__fpcmp_parts_d+0x90>
   12908:	0005a683          	lw	a3,0(a1) # 10000000 <_end+0xffdf890>
   1290c:	00078513          	mv	a0,a5
   12910:	04d7f263          	bleu	a3,a5,12954 <__fpcmp_parts_d+0x5c>
   12914:	00400793          	li	a5,4
   12918:	04f70c63          	beq	a4,a5,12970 <__fpcmp_parts_d+0x78>
   1291c:	04f68063          	beq	a3,a5,1295c <__fpcmp_parts_d+0x64>
   12920:	00200793          	li	a5,2
   12924:	02f70a63          	beq	a4,a5,12958 <__fpcmp_parts_d+0x60>
   12928:	04f68663          	beq	a3,a5,12974 <__fpcmp_parts_d+0x7c>
   1292c:	00462783          	lw	a5,4(a2)
   12930:	0045a703          	lw	a4,4(a1)
   12934:	04e78e63          	beq	a5,a4,12990 <__fpcmp_parts_d+0x98>
   12938:	00f03533          	snez	a0,a5
   1293c:	40a00533          	neg	a0,a0
   12940:	00156513          	ori	a0,a0,1
   12944:	00008067          	ret
   12948:	00e69463          	bne	a3,a4,12950 <__fpcmp_parts_d+0x58>
   1294c:	06b66a63          	bltu	a2,a1,129c0 <__fpcmp_parts_d+0xc8>
   12950:	00000513          	li	a0,0
   12954:	00008067          	ret
   12958:	fee68ce3          	beq	a3,a4,12950 <__fpcmp_parts_d+0x58>
   1295c:	0045a503          	lw	a0,4(a1)
   12960:	00153513          	seqz	a0,a0
   12964:	40a00533          	neg	a0,a0
   12968:	00156513          	ori	a0,a0,1
   1296c:	00008067          	ret
   12970:	06e68063          	beq	a3,a4,129d0 <__fpcmp_parts_d+0xd8>
   12974:	00462503          	lw	a0,4(a2)
   12978:	00a03533          	snez	a0,a0
   1297c:	40a00533          	neg	a0,a0
   12980:	00156513          	ori	a0,a0,1
   12984:	00008067          	ret
   12988:	00078513          	mv	a0,a5
   1298c:	00008067          	ret
   12990:	00862683          	lw	a3,8(a2)
   12994:	0085a703          	lw	a4,8(a1)
   12998:	fad740e3          	blt	a4,a3,12938 <__fpcmp_parts_d+0x40>
   1299c:	02e6c263          	blt	a3,a4,129c0 <__fpcmp_parts_d+0xc8>
   129a0:	01462703          	lw	a4,20(a2)
   129a4:	0145a683          	lw	a3,20(a1)
   129a8:	01062603          	lw	a2,16(a2)
   129ac:	0105a583          	lw	a1,16(a1)
   129b0:	f8e6e4e3          	bltu	a3,a4,12938 <__fpcmp_parts_d+0x40>
   129b4:	00d71463          	bne	a4,a3,129bc <__fpcmp_parts_d+0xc4>
   129b8:	f8c5e0e3          	bltu	a1,a2,12938 <__fpcmp_parts_d+0x40>
   129bc:	f8d776e3          	bleu	a3,a4,12948 <__fpcmp_parts_d+0x50>
   129c0:	0017b513          	seqz	a0,a5
   129c4:	40a00533          	neg	a0,a0
   129c8:	00156513          	ori	a0,a0,1
   129cc:	00008067          	ret
   129d0:	0045a783          	lw	a5,4(a1)
   129d4:	00462503          	lw	a0,4(a2)
   129d8:	40a78533          	sub	a0,a5,a0
   129dc:	00008067          	ret

000129e0 <__cmpdf2>:
   129e0:	fb010113          	addi	sp,sp,-80
   129e4:	01010593          	addi	a1,sp,16
   129e8:	00010513          	mv	a0,sp
   129ec:	04112623          	sw	ra,76(sp)
   129f0:	00a13027          	fsd	fa0,0(sp)
   129f4:	00c13427          	fsd	fa2,8(sp)
   129f8:	94dff0ef          	jal	12344 <__unpack_d>
   129fc:	02810593          	addi	a1,sp,40
   12a00:	00810513          	addi	a0,sp,8
   12a04:	941ff0ef          	jal	12344 <__unpack_d>
   12a08:	02810593          	addi	a1,sp,40
   12a0c:	01010513          	addi	a0,sp,16
   12a10:	ee9ff0ef          	jal	128f8 <__fpcmp_parts_d>
   12a14:	04c12083          	lw	ra,76(sp)
   12a18:	05010113          	addi	sp,sp,80
   12a1c:	00008067          	ret

00012a20 <__gedf2>:
   12a20:	fb010113          	addi	sp,sp,-80
   12a24:	01010593          	addi	a1,sp,16
   12a28:	00010513          	mv	a0,sp
   12a2c:	04112623          	sw	ra,76(sp)
   12a30:	00a13027          	fsd	fa0,0(sp)
   12a34:	00c13427          	fsd	fa2,8(sp)
   12a38:	90dff0ef          	jal	12344 <__unpack_d>
   12a3c:	00810513          	addi	a0,sp,8
   12a40:	02810593          	addi	a1,sp,40
   12a44:	901ff0ef          	jal	12344 <__unpack_d>
   12a48:	01012703          	lw	a4,16(sp)
   12a4c:	00100793          	li	a5,1
   12a50:	fff00513          	li	a0,-1
   12a54:	00e7fc63          	bleu	a4,a5,12a6c <__gedf2+0x4c>
   12a58:	02812703          	lw	a4,40(sp)
   12a5c:	00e7f863          	bleu	a4,a5,12a6c <__gedf2+0x4c>
   12a60:	02810593          	addi	a1,sp,40
   12a64:	01010513          	addi	a0,sp,16
   12a68:	e91ff0ef          	jal	128f8 <__fpcmp_parts_d>
   12a6c:	04c12083          	lw	ra,76(sp)
   12a70:	05010113          	addi	sp,sp,80
   12a74:	00008067          	ret

00012a78 <__gtdf2>:
   12a78:	fa9ff06f          	j	12a20 <__gedf2>

00012a7c <__ledf2>:
   12a7c:	fb010113          	addi	sp,sp,-80
   12a80:	01010593          	addi	a1,sp,16
   12a84:	00010513          	mv	a0,sp
   12a88:	04112623          	sw	ra,76(sp)
   12a8c:	00a13027          	fsd	fa0,0(sp)
   12a90:	00c13427          	fsd	fa2,8(sp)
   12a94:	8b1ff0ef          	jal	12344 <__unpack_d>
   12a98:	00810513          	addi	a0,sp,8
   12a9c:	02810593          	addi	a1,sp,40
   12aa0:	8a5ff0ef          	jal	12344 <__unpack_d>
   12aa4:	01012783          	lw	a5,16(sp)
   12aa8:	00100513          	li	a0,1
   12aac:	00f57c63          	bleu	a5,a0,12ac4 <__ledf2+0x48>
   12ab0:	02812783          	lw	a5,40(sp)
   12ab4:	00f57863          	bleu	a5,a0,12ac4 <__ledf2+0x48>
   12ab8:	02810593          	addi	a1,sp,40
   12abc:	01010513          	addi	a0,sp,16
   12ac0:	e39ff0ef          	jal	128f8 <__fpcmp_parts_d>
   12ac4:	04c12083          	lw	ra,76(sp)
   12ac8:	05010113          	addi	sp,sp,80
   12acc:	00008067          	ret

00012ad0 <__ltdf2>:
   12ad0:	fadff06f          	j	12a7c <__ledf2>

00012ad4 <__nedf2>:
   12ad4:	fa9ff06f          	j	12a7c <__ledf2>

00012ad8 <__eqdf2>:
   12ad8:	fa5ff06f          	j	12a7c <__ledf2>

00012adc <__unorddf2>:
   12adc:	fb010113          	addi	sp,sp,-80
   12ae0:	01010593          	addi	a1,sp,16
   12ae4:	00010513          	mv	a0,sp
   12ae8:	04112623          	sw	ra,76(sp)
   12aec:	00a13027          	fsd	fa0,0(sp)
   12af0:	00c13427          	fsd	fa2,8(sp)
   12af4:	851ff0ef          	jal	12344 <__unpack_d>
   12af8:	00810513          	addi	a0,sp,8
   12afc:	02810593          	addi	a1,sp,40
   12b00:	845ff0ef          	jal	12344 <__unpack_d>
   12b04:	01012783          	lw	a5,16(sp)
   12b08:	00100513          	li	a0,1
   12b0c:	00f57663          	bleu	a5,a0,12b18 <__unorddf2+0x3c>
   12b10:	02812503          	lw	a0,40(sp)
   12b14:	00253513          	sltiu	a0,a0,2
   12b18:	04c12083          	lw	ra,76(sp)
   12b1c:	05010113          	addi	sp,sp,80
   12b20:	00008067          	ret

00012b24 <__floatsidf>:
   12b24:	fd010113          	addi	sp,sp,-48
   12b28:	01f55793          	srli	a5,a0,0x1f
   12b2c:	00300713          	li	a4,3
   12b30:	02112623          	sw	ra,44(sp)
   12b34:	02812423          	sw	s0,40(sp)
   12b38:	00e12423          	sw	a4,8(sp)
   12b3c:	00f12623          	sw	a5,12(sp)
   12b40:	02051263          	bnez	a0,12b64 <__floatsidf+0x40>
   12b44:	00200793          	li	a5,2
   12b48:	00f12423          	sw	a5,8(sp)
   12b4c:	00810513          	addi	a0,sp,8
   12b50:	d9cff0ef          	jal	120ec <__pack_d>
   12b54:	02c12083          	lw	ra,44(sp)
   12b58:	02812403          	lw	s0,40(sp)
   12b5c:	03010113          	addi	sp,sp,48
   12b60:	00008067          	ret
   12b64:	02054c63          	bltz	a0,12b9c <__floatsidf+0x78>
   12b68:	00050413          	mv	s0,a0
   12b6c:	00040513          	mv	a0,s0
   12b70:	26c000ef          	jal	12ddc <__clzsi2>
   12b74:	01d50513          	addi	a0,a0,29
   12b78:	02057793          	andi	a5,a0,32
   12b7c:	04078063          	beqz	a5,12bbc <__floatsidf+0x98>
   12b80:	00a41433          	sll	s0,s0,a0
   12b84:	00812e23          	sw	s0,28(sp)
   12b88:	00012c23          	sw	zero,24(sp)
   12b8c:	03c00793          	li	a5,60
   12b90:	40a78533          	sub	a0,a5,a0
   12b94:	00a12823          	sw	a0,16(sp)
   12b98:	fb5ff06f          	j	12b4c <__floatsidf+0x28>
   12b9c:	800007b7          	lui	a5,0x80000
   12ba0:	02f50c63          	beq	a0,a5,12bd8 <__floatsidf+0xb4>
   12ba4:	40a00433          	neg	s0,a0
   12ba8:	00040513          	mv	a0,s0
   12bac:	230000ef          	jal	12ddc <__clzsi2>
   12bb0:	01d50513          	addi	a0,a0,29
   12bb4:	02057793          	andi	a5,a0,32
   12bb8:	fc0794e3          	bnez	a5,12b80 <__floatsidf+0x5c>
   12bbc:	00145793          	srli	a5,s0,0x1
   12bc0:	fff54713          	not	a4,a0
   12bc4:	00e7d7b3          	srl	a5,a5,a4
   12bc8:	00a41433          	sll	s0,s0,a0
   12bcc:	00f12e23          	sw	a5,28(sp)
   12bd0:	00812c23          	sw	s0,24(sp)
   12bd4:	fb9ff06f          	j	12b8c <__floatsidf+0x68>
   12bd8:	8201b507          	fld	fa0,-2016(gp) # 1de90 <__wctomb+0x8>
   12bdc:	f79ff06f          	j	12b54 <__floatsidf+0x30>

00012be0 <__floatunsidf>:
   12be0:	fd010113          	addi	sp,sp,-48
   12be4:	02112623          	sw	ra,44(sp)
   12be8:	02812423          	sw	s0,40(sp)
   12bec:	00012623          	sw	zero,12(sp)
   12bf0:	06050663          	beqz	a0,12c5c <__floatunsidf+0x7c>
   12bf4:	00300793          	li	a5,3
   12bf8:	00f12423          	sw	a5,8(sp)
   12bfc:	00050413          	mv	s0,a0
   12c00:	1dc000ef          	jal	12ddc <__clzsi2>
   12c04:	01d50513          	addi	a0,a0,29
   12c08:	02057793          	andi	a5,a0,32
   12c0c:	02078a63          	beqz	a5,12c40 <__floatunsidf+0x60>
   12c10:	00a41433          	sll	s0,s0,a0
   12c14:	00812e23          	sw	s0,28(sp)
   12c18:	00012c23          	sw	zero,24(sp)
   12c1c:	03c00793          	li	a5,60
   12c20:	40a78533          	sub	a0,a5,a0
   12c24:	00a12823          	sw	a0,16(sp)
   12c28:	00810513          	addi	a0,sp,8
   12c2c:	cc0ff0ef          	jal	120ec <__pack_d>
   12c30:	02c12083          	lw	ra,44(sp)
   12c34:	02812403          	lw	s0,40(sp)
   12c38:	03010113          	addi	sp,sp,48
   12c3c:	00008067          	ret
   12c40:	00145793          	srli	a5,s0,0x1
   12c44:	fff54713          	not	a4,a0
   12c48:	00e7d7b3          	srl	a5,a5,a4
   12c4c:	00a41433          	sll	s0,s0,a0
   12c50:	00f12e23          	sw	a5,28(sp)
   12c54:	00812c23          	sw	s0,24(sp)
   12c58:	fc5ff06f          	j	12c1c <__floatunsidf+0x3c>
   12c5c:	00200793          	li	a5,2
   12c60:	00f12423          	sw	a5,8(sp)
   12c64:	fc5ff06f          	j	12c28 <__floatunsidf+0x48>

00012c68 <__fixdfsi>:
   12c68:	fd010113          	addi	sp,sp,-48
   12c6c:	00810593          	addi	a1,sp,8
   12c70:	00010513          	mv	a0,sp
   12c74:	02112623          	sw	ra,44(sp)
   12c78:	00a13027          	fsd	fa0,0(sp)
   12c7c:	ec8ff0ef          	jal	12344 <__unpack_d>
   12c80:	00812783          	lw	a5,8(sp)
   12c84:	00200713          	li	a4,2
   12c88:	06f77463          	bleu	a5,a4,12cf0 <__fixdfsi+0x88>
   12c8c:	00400713          	li	a4,4
   12c90:	00e78a63          	beq	a5,a4,12ca4 <__fixdfsi+0x3c>
   12c94:	01012503          	lw	a0,16(sp)
   12c98:	04054c63          	bltz	a0,12cf0 <__fixdfsi+0x88>
   12c9c:	01e00793          	li	a5,30
   12ca0:	02a7d063          	ble	a0,a5,12cc0 <__fixdfsi+0x58>
   12ca4:	00c12783          	lw	a5,12(sp)
   12ca8:	80000537          	lui	a0,0x80000
   12cac:	00079463          	bnez	a5,12cb4 <__fixdfsi+0x4c>
   12cb0:	fff54513          	not	a0,a0
   12cb4:	02c12083          	lw	ra,44(sp)
   12cb8:	03010113          	addi	sp,sp,48
   12cbc:	00008067          	ret
   12cc0:	03c00793          	li	a5,60
   12cc4:	40a78533          	sub	a0,a5,a0
   12cc8:	02057793          	andi	a5,a0,32
   12ccc:	02078a63          	beqz	a5,12d00 <__fixdfsi+0x98>
   12cd0:	01c12783          	lw	a5,28(sp)
   12cd4:	00a7d533          	srl	a0,a5,a0
   12cd8:	00c12783          	lw	a5,12(sp)
   12cdc:	fc078ce3          	beqz	a5,12cb4 <__fixdfsi+0x4c>
   12ce0:	02c12083          	lw	ra,44(sp)
   12ce4:	40a00533          	neg	a0,a0
   12ce8:	03010113          	addi	sp,sp,48
   12cec:	00008067          	ret
   12cf0:	02c12083          	lw	ra,44(sp)
   12cf4:	00000513          	li	a0,0
   12cf8:	03010113          	addi	sp,sp,48
   12cfc:	00008067          	ret
   12d00:	01c12783          	lw	a5,28(sp)
   12d04:	fff54713          	not	a4,a0
   12d08:	00179793          	slli	a5,a5,0x1
   12d0c:	00e797b3          	sll	a5,a5,a4
   12d10:	01812703          	lw	a4,24(sp)
   12d14:	00a75533          	srl	a0,a4,a0
   12d18:	00a7e533          	or	a0,a5,a0
   12d1c:	fbdff06f          	j	12cd8 <__fixdfsi+0x70>

00012d20 <__negdf2>:
   12d20:	fd010113          	addi	sp,sp,-48
   12d24:	00010513          	mv	a0,sp
   12d28:	00810593          	addi	a1,sp,8
   12d2c:	02112623          	sw	ra,44(sp)
   12d30:	00a13027          	fsd	fa0,0(sp)
   12d34:	e10ff0ef          	jal	12344 <__unpack_d>
   12d38:	00c12783          	lw	a5,12(sp)
   12d3c:	00810513          	addi	a0,sp,8
   12d40:	0017b793          	seqz	a5,a5
   12d44:	00f12623          	sw	a5,12(sp)
   12d48:	ba4ff0ef          	jal	120ec <__pack_d>
   12d4c:	02c12083          	lw	ra,44(sp)
   12d50:	03010113          	addi	sp,sp,48
   12d54:	00008067          	ret

00012d58 <__make_dp>:
   12d58:	fd010113          	addi	sp,sp,-48
   12d5c:	00a12423          	sw	a0,8(sp)
   12d60:	00810513          	addi	a0,sp,8
   12d64:	02112623          	sw	ra,44(sp)
   12d68:	00b12623          	sw	a1,12(sp)
   12d6c:	00c12823          	sw	a2,16(sp)
   12d70:	00e12c23          	sw	a4,24(sp)
   12d74:	00f12e23          	sw	a5,28(sp)
   12d78:	b74ff0ef          	jal	120ec <__pack_d>
   12d7c:	02c12083          	lw	ra,44(sp)
   12d80:	03010113          	addi	sp,sp,48
   12d84:	00008067          	ret

00012d88 <__truncdfsf2>:
   12d88:	fd010113          	addi	sp,sp,-48
   12d8c:	00810593          	addi	a1,sp,8
   12d90:	00010513          	mv	a0,sp
   12d94:	02112623          	sw	ra,44(sp)
   12d98:	00a13027          	fsd	fa0,0(sp)
   12d9c:	da8ff0ef          	jal	12344 <__unpack_d>
   12da0:	01812703          	lw	a4,24(sp)
   12da4:	01c12683          	lw	a3,28(sp)
   12da8:	01e75793          	srli	a5,a4,0x1e
   12dac:	00269693          	slli	a3,a3,0x2
   12db0:	00f6e6b3          	or	a3,a3,a5
   12db4:	00271793          	slli	a5,a4,0x2
   12db8:	00078463          	beqz	a5,12dc0 <__truncdfsf2+0x38>
   12dbc:	0016e693          	ori	a3,a3,1
   12dc0:	01012603          	lw	a2,16(sp)
   12dc4:	00c12583          	lw	a1,12(sp)
   12dc8:	00812503          	lw	a0,8(sp)
   12dcc:	f65fe0ef          	jal	11d30 <__make_fp>
   12dd0:	02c12083          	lw	ra,44(sp)
   12dd4:	03010113          	addi	sp,sp,48
   12dd8:	00008067          	ret

00012ddc <__clzsi2>:
   12ddc:	000107b7          	lui	a5,0x10
   12de0:	02f57c63          	bleu	a5,a0,12e18 <__clzsi2+0x3c>
   12de4:	0ff00693          	li	a3,255
   12de8:	01800713          	li	a4,24
   12dec:	00800793          	li	a5,8
   12df0:	00a6e663          	bltu	a3,a0,12dfc <__clzsi2+0x20>
   12df4:	02000713          	li	a4,32
   12df8:	00000793          	li	a5,0
   12dfc:	00f55533          	srl	a0,a0,a5
   12e00:	0001c7b7          	lui	a5,0x1c
   12e04:	d6078793          	addi	a5,a5,-672 # 1bd60 <__clz_tab>
   12e08:	00f507b3          	add	a5,a0,a5
   12e0c:	0007c503          	lbu	a0,0(a5)
   12e10:	40a70533          	sub	a0,a4,a0
   12e14:	00008067          	ret
   12e18:	010006b7          	lui	a3,0x1000
   12e1c:	00800713          	li	a4,8
   12e20:	01800793          	li	a5,24
   12e24:	fcd57ce3          	bleu	a3,a0,12dfc <__clzsi2+0x20>
   12e28:	01000713          	li	a4,16
   12e2c:	00070793          	mv	a5,a4
   12e30:	00f55533          	srl	a0,a0,a5
   12e34:	0001c7b7          	lui	a5,0x1c
   12e38:	d6078793          	addi	a5,a5,-672 # 1bd60 <__clz_tab>
   12e3c:	00f507b3          	add	a5,a0,a5
   12e40:	0007c503          	lbu	a0,0(a5)
   12e44:	40a70533          	sub	a0,a4,a0
   12e48:	00008067          	ret

00012e4c <atexit>:
   12e4c:	00050593          	mv	a1,a0
   12e50:	00000693          	li	a3,0
   12e54:	00000613          	li	a2,0
   12e58:	00000513          	li	a0,0
   12e5c:	5380206f          	j	15394 <__register_exitproc>

00012e60 <exit>:
   12e60:	ff010113          	addi	sp,sp,-16
   12e64:	00000593          	li	a1,0
   12e68:	00812423          	sw	s0,8(sp)
   12e6c:	00112623          	sw	ra,12(sp)
   12e70:	00050413          	mv	s0,a0
   12e74:	614020ef          	jal	15488 <__call_exitprocs>
   12e78:	8041a503          	lw	a0,-2044(gp) # 1de74 <_global_impure_ptr>
   12e7c:	03c52783          	lw	a5,60(a0) # 8000003c <_end+0x7ffdf8cc>
   12e80:	00078463          	beqz	a5,12e88 <exit+0x28>
   12e84:	000780e7          	jalr	a5
   12e88:	00040513          	mv	a0,s0
   12e8c:	08d080ef          	jal	1b718 <_exit>

00012e90 <__libc_init_array>:
   12e90:	ff010113          	addi	sp,sp,-16
   12e94:	00812423          	sw	s0,8(sp)
   12e98:	0001c7b7          	lui	a5,0x1c
   12e9c:	0001c437          	lui	s0,0x1c
   12ea0:	01212023          	sw	s2,0(sp)
   12ea4:	33478793          	addi	a5,a5,820 # 1c334 <_etext>
   12ea8:	33440913          	addi	s2,s0,820 # 1c334 <_etext>
   12eac:	41278933          	sub	s2,a5,s2
   12eb0:	40295913          	srai	s2,s2,0x2
   12eb4:	00912223          	sw	s1,4(sp)
   12eb8:	00112623          	sw	ra,12(sp)
   12ebc:	33440413          	addi	s0,s0,820
   12ec0:	00000493          	li	s1,0
   12ec4:	00090c63          	beqz	s2,12edc <__libc_init_array+0x4c>
   12ec8:	00042783          	lw	a5,0(s0)
   12ecc:	00148493          	addi	s1,s1,1
   12ed0:	00440413          	addi	s0,s0,4
   12ed4:	000780e7          	jalr	a5
   12ed8:	fe9918e3          	bne	s2,s1,12ec8 <__libc_init_array+0x38>
   12edc:	0001c437          	lui	s0,0x1c
   12ee0:	968fd0ef          	jal	10048 <_fini>
   12ee4:	0001c7b7          	lui	a5,0x1c
   12ee8:	33440913          	addi	s2,s0,820 # 1c334 <_etext>
   12eec:	33878793          	addi	a5,a5,824 # 1c338 <__init_array_end>
   12ef0:	41278933          	sub	s2,a5,s2
   12ef4:	40295913          	srai	s2,s2,0x2
   12ef8:	33440413          	addi	s0,s0,820
   12efc:	00000493          	li	s1,0
   12f00:	00090c63          	beqz	s2,12f18 <__libc_init_array+0x88>
   12f04:	00042783          	lw	a5,0(s0)
   12f08:	00148493          	addi	s1,s1,1
   12f0c:	00440413          	addi	s0,s0,4
   12f10:	000780e7          	jalr	a5
   12f14:	fe9918e3          	bne	s2,s1,12f04 <__libc_init_array+0x74>
   12f18:	00c12083          	lw	ra,12(sp)
   12f1c:	00812403          	lw	s0,8(sp)
   12f20:	00412483          	lw	s1,4(sp)
   12f24:	00012903          	lw	s2,0(sp)
   12f28:	01010113          	addi	sp,sp,16
   12f2c:	00008067          	ret

00012f30 <__libc_fini_array>:
   12f30:	ff010113          	addi	sp,sp,-16
   12f34:	00812423          	sw	s0,8(sp)
   12f38:	00912223          	sw	s1,4(sp)
   12f3c:	0001c437          	lui	s0,0x1c
   12f40:	0001c4b7          	lui	s1,0x1c
   12f44:	33848493          	addi	s1,s1,824 # 1c338 <__init_array_end>
   12f48:	33c40413          	addi	s0,s0,828 # 1c33c <__fini_array_end>
   12f4c:	40940433          	sub	s0,s0,s1
   12f50:	40245413          	srai	s0,s0,0x2
   12f54:	00241793          	slli	a5,s0,0x2
   12f58:	ffc78793          	addi	a5,a5,-4
   12f5c:	00112623          	sw	ra,12(sp)
   12f60:	009784b3          	add	s1,a5,s1
   12f64:	00040c63          	beqz	s0,12f7c <__libc_fini_array+0x4c>
   12f68:	0004a783          	lw	a5,0(s1)
   12f6c:	fff40413          	addi	s0,s0,-1
   12f70:	ffc48493          	addi	s1,s1,-4
   12f74:	000780e7          	jalr	a5
   12f78:	fe0418e3          	bnez	s0,12f68 <__libc_fini_array+0x38>
   12f7c:	00c12083          	lw	ra,12(sp)
   12f80:	00812403          	lw	s0,8(sp)
   12f84:	00412483          	lw	s1,4(sp)
   12f88:	01010113          	addi	sp,sp,16
   12f8c:	8bcfd06f          	j	10048 <_fini>

00012f90 <memcpy>:
   12f90:	00a5c7b3          	xor	a5,a1,a0
   12f94:	0037f793          	andi	a5,a5,3
   12f98:	00c508b3          	add	a7,a0,a2
   12f9c:	0e079263          	bnez	a5,13080 <memcpy+0xf0>
   12fa0:	00300793          	li	a5,3
   12fa4:	0ec7fe63          	bleu	a2,a5,130a0 <memcpy+0x110>
   12fa8:	00357793          	andi	a5,a0,3
   12fac:	04079a63          	bnez	a5,13000 <memcpy+0x70>
   12fb0:	ffc8f813          	andi	a6,a7,-4
   12fb4:	fe080793          	addi	a5,a6,-32
   12fb8:	00050713          	mv	a4,a0
   12fbc:	06f56663          	bltu	a0,a5,13028 <memcpy+0x98>
   12fc0:	00058693          	mv	a3,a1
   12fc4:	00070793          	mv	a5,a4
   12fc8:	03077863          	bleu	a6,a4,12ff8 <memcpy+0x68>
   12fcc:	0006a603          	lw	a2,0(a3) # 1000000 <_end+0xfdf890>
   12fd0:	00478793          	addi	a5,a5,4
   12fd4:	00468693          	addi	a3,a3,4
   12fd8:	fec7ae23          	sw	a2,-4(a5)
   12fdc:	ff07e8e3          	bltu	a5,a6,12fcc <memcpy+0x3c>
   12fe0:	fff74793          	not	a5,a4
   12fe4:	01078833          	add	a6,a5,a6
   12fe8:	ffc87813          	andi	a6,a6,-4
   12fec:	00480813          	addi	a6,a6,4
   12ff0:	01070733          	add	a4,a4,a6
   12ff4:	010585b3          	add	a1,a1,a6
   12ff8:	09176863          	bltu	a4,a7,13088 <memcpy+0xf8>
   12ffc:	00008067          	ret
   13000:	00050713          	mv	a4,a0
   13004:	0005c683          	lbu	a3,0(a1)
   13008:	00170713          	addi	a4,a4,1 # 80000001 <_end+0x7ffdf891>
   1300c:	00377793          	andi	a5,a4,3
   13010:	00158593          	addi	a1,a1,1
   13014:	fed70fa3          	sb	a3,-1(a4)
   13018:	fe0796e3          	bnez	a5,13004 <memcpy+0x74>
   1301c:	ffc8f813          	andi	a6,a7,-4
   13020:	fe080793          	addi	a5,a6,-32
   13024:	f8f77ee3          	bleu	a5,a4,12fc0 <memcpy+0x30>
   13028:	0005af83          	lw	t6,0(a1)
   1302c:	0045af03          	lw	t5,4(a1)
   13030:	0085ae83          	lw	t4,8(a1)
   13034:	00c5ae03          	lw	t3,12(a1)
   13038:	0105a383          	lw	t2,16(a1)
   1303c:	0145a303          	lw	t1,20(a1)
   13040:	0185a283          	lw	t0,24(a1)
   13044:	01c5a603          	lw	a2,28(a1)
   13048:	02458593          	addi	a1,a1,36
   1304c:	02470713          	addi	a4,a4,36
   13050:	ffc5a683          	lw	a3,-4(a1)
   13054:	fdf72e23          	sw	t6,-36(a4)
   13058:	ffe72023          	sw	t5,-32(a4)
   1305c:	ffd72223          	sw	t4,-28(a4)
   13060:	ffc72423          	sw	t3,-24(a4)
   13064:	fe772623          	sw	t2,-20(a4)
   13068:	fe672823          	sw	t1,-16(a4)
   1306c:	fe572a23          	sw	t0,-12(a4)
   13070:	fec72c23          	sw	a2,-8(a4)
   13074:	fed72e23          	sw	a3,-4(a4)
   13078:	faf768e3          	bltu	a4,a5,13028 <memcpy+0x98>
   1307c:	f45ff06f          	j	12fc0 <memcpy+0x30>
   13080:	00050713          	mv	a4,a0
   13084:	03157463          	bleu	a7,a0,130ac <memcpy+0x11c>
   13088:	0005c783          	lbu	a5,0(a1)
   1308c:	00170713          	addi	a4,a4,1
   13090:	00158593          	addi	a1,a1,1
   13094:	fef70fa3          	sb	a5,-1(a4)
   13098:	ff1768e3          	bltu	a4,a7,13088 <memcpy+0xf8>
   1309c:	00008067          	ret
   130a0:	00050713          	mv	a4,a0
   130a4:	ff1562e3          	bltu	a0,a7,13088 <memcpy+0xf8>
   130a8:	f55ff06f          	j	12ffc <memcpy+0x6c>
   130ac:	00008067          	ret

000130b0 <_printf_r>:
   130b0:	fc010113          	addi	sp,sp,-64
   130b4:	02c12423          	sw	a2,40(sp)
   130b8:	02d12623          	sw	a3,44(sp)
   130bc:	02f12a23          	sw	a5,52(sp)
   130c0:	02e12823          	sw	a4,48(sp)
   130c4:	03012c23          	sw	a6,56(sp)
   130c8:	03112e23          	sw	a7,60(sp)
   130cc:	00058613          	mv	a2,a1
   130d0:	00852583          	lw	a1,8(a0)
   130d4:	02810793          	addi	a5,sp,40
   130d8:	00078693          	mv	a3,a5
   130dc:	00112e23          	sw	ra,28(sp)
   130e0:	00f12623          	sw	a5,12(sp)
   130e4:	448000ef          	jal	1352c <_vfprintf_r>
   130e8:	01c12083          	lw	ra,28(sp)
   130ec:	04010113          	addi	sp,sp,64
   130f0:	00008067          	ret

000130f4 <printf>:
   130f4:	8081a283          	lw	t0,-2040(gp) # 1de78 <_impure_ptr>
   130f8:	fc010113          	addi	sp,sp,-64
   130fc:	02c12423          	sw	a2,40(sp)
   13100:	02d12623          	sw	a3,44(sp)
   13104:	02f12a23          	sw	a5,52(sp)
   13108:	02b12223          	sw	a1,36(sp)
   1310c:	02e12823          	sw	a4,48(sp)
   13110:	03012c23          	sw	a6,56(sp)
   13114:	03112e23          	sw	a7,60(sp)
   13118:	0082a583          	lw	a1,8(t0)
   1311c:	02410793          	addi	a5,sp,36
   13120:	00050613          	mv	a2,a0
   13124:	00078693          	mv	a3,a5
   13128:	00028513          	mv	a0,t0
   1312c:	00112e23          	sw	ra,28(sp)
   13130:	00f12623          	sw	a5,12(sp)
   13134:	3f8000ef          	jal	1352c <_vfprintf_r>
   13138:	01c12083          	lw	ra,28(sp)
   1313c:	04010113          	addi	sp,sp,64
   13140:	00008067          	ret

00013144 <_putchar_r>:
   13144:	00852603          	lw	a2,8(a0)
   13148:	0180006f          	j	13160 <_putc_r>

0001314c <putchar>:
   1314c:	8081a783          	lw	a5,-2040(gp) # 1de78 <_impure_ptr>
   13150:	00050593          	mv	a1,a0
   13154:	0087a603          	lw	a2,8(a5)
   13158:	00078513          	mv	a0,a5
   1315c:	0040006f          	j	13160 <_putc_r>

00013160 <_putc_r>:
   13160:	fe010113          	addi	sp,sp,-32
   13164:	00812c23          	sw	s0,24(sp)
   13168:	00112e23          	sw	ra,28(sp)
   1316c:	00050413          	mv	s0,a0
   13170:	00050663          	beqz	a0,1317c <_putc_r+0x1c>
   13174:	03852783          	lw	a5,56(a0)
   13178:	06078863          	beqz	a5,131e8 <_putc_r+0x88>
   1317c:	00862783          	lw	a5,8(a2)
   13180:	fff78793          	addi	a5,a5,-1
   13184:	00f62423          	sw	a5,8(a2)
   13188:	0207c663          	bltz	a5,131b4 <_putc_r+0x54>
   1318c:	00062783          	lw	a5,0(a2)
   13190:	00b78023          	sb	a1,0(a5)
   13194:	00062783          	lw	a5,0(a2)
   13198:	01c12083          	lw	ra,28(sp)
   1319c:	00178713          	addi	a4,a5,1
   131a0:	00e62023          	sw	a4,0(a2)
   131a4:	0007c503          	lbu	a0,0(a5)
   131a8:	01812403          	lw	s0,24(sp)
   131ac:	02010113          	addi	sp,sp,32
   131b0:	00008067          	ret
   131b4:	01862703          	lw	a4,24(a2)
   131b8:	00e7ce63          	blt	a5,a4,131d4 <_putc_r+0x74>
   131bc:	00062783          	lw	a5,0(a2)
   131c0:	00a00713          	li	a4,10
   131c4:	00b78023          	sb	a1,0(a5)
   131c8:	00062783          	lw	a5,0(a2)
   131cc:	0007c583          	lbu	a1,0(a5)
   131d0:	fce594e3          	bne	a1,a4,13198 <_putc_r+0x38>
   131d4:	00040513          	mv	a0,s0
   131d8:	01c12083          	lw	ra,28(sp)
   131dc:	01812403          	lw	s0,24(sp)
   131e0:	02010113          	addi	sp,sp,32
   131e4:	6d90106f          	j	150bc <__swbuf_r>
   131e8:	00b12623          	sw	a1,12(sp)
   131ec:	00c12423          	sw	a2,8(sp)
   131f0:	455030ef          	jal	16e44 <__sinit>
   131f4:	00812603          	lw	a2,8(sp)
   131f8:	00c12583          	lw	a1,12(sp)
   131fc:	f81ff06f          	j	1317c <_putc_r+0x1c>

00013200 <putc>:
   13200:	fe010113          	addi	sp,sp,-32
   13204:	00812c23          	sw	s0,24(sp)
   13208:	8081a783          	lw	a5,-2040(gp) # 1de78 <_impure_ptr>
   1320c:	00912a23          	sw	s1,20(sp)
   13210:	00112e23          	sw	ra,28(sp)
   13214:	00050493          	mv	s1,a0
   13218:	00078663          	beqz	a5,13224 <putc+0x24>
   1321c:	0387a703          	lw	a4,56(a5)
   13220:	06070863          	beqz	a4,13290 <putc+0x90>
   13224:	0085a783          	lw	a5,8(a1)
   13228:	fff78793          	addi	a5,a5,-1
   1322c:	00f5a423          	sw	a5,8(a1)
   13230:	0207c863          	bltz	a5,13260 <putc+0x60>
   13234:	0005a783          	lw	a5,0(a1)
   13238:	00978023          	sb	s1,0(a5)
   1323c:	0005a783          	lw	a5,0(a1)
   13240:	01c12083          	lw	ra,28(sp)
   13244:	00178713          	addi	a4,a5,1
   13248:	00e5a023          	sw	a4,0(a1)
   1324c:	0007c503          	lbu	a0,0(a5)
   13250:	01812403          	lw	s0,24(sp)
   13254:	01412483          	lw	s1,20(sp)
   13258:	02010113          	addi	sp,sp,32
   1325c:	00008067          	ret
   13260:	0185a703          	lw	a4,24(a1)
   13264:	04e7c063          	blt	a5,a4,132a4 <putc+0xa4>
   13268:	0005a783          	lw	a5,0(a1)
   1326c:	00a00693          	li	a3,10
   13270:	00978023          	sb	s1,0(a5)
   13274:	0005a783          	lw	a5,0(a1)
   13278:	0007c703          	lbu	a4,0(a5)
   1327c:	fcd712e3          	bne	a4,a3,13240 <putc+0x40>
   13280:	00058613          	mv	a2,a1
   13284:	8081a503          	lw	a0,-2040(gp) # 1de78 <_impure_ptr>
   13288:	00070593          	mv	a1,a4
   1328c:	0240006f          	j	132b0 <putc+0xb0>
   13290:	00078513          	mv	a0,a5
   13294:	00b12623          	sw	a1,12(sp)
   13298:	3ad030ef          	jal	16e44 <__sinit>
   1329c:	00c12583          	lw	a1,12(sp)
   132a0:	f85ff06f          	j	13224 <putc+0x24>
   132a4:	8081a503          	lw	a0,-2040(gp) # 1de78 <_impure_ptr>
   132a8:	00058613          	mv	a2,a1
   132ac:	00048593          	mv	a1,s1
   132b0:	01c12083          	lw	ra,28(sp)
   132b4:	01812403          	lw	s0,24(sp)
   132b8:	01412483          	lw	s1,20(sp)
   132bc:	02010113          	addi	sp,sp,32
   132c0:	5fd0106f          	j	150bc <__swbuf_r>

000132c4 <_puts_r>:
   132c4:	fd010113          	addi	sp,sp,-48
   132c8:	02812423          	sw	s0,40(sp)
   132cc:	00050413          	mv	s0,a0
   132d0:	00058513          	mv	a0,a1
   132d4:	02912223          	sw	s1,36(sp)
   132d8:	02112623          	sw	ra,44(sp)
   132dc:	00058493          	mv	s1,a1
   132e0:	1bc000ef          	jal	1349c <strlen>
   132e4:	8081a783          	lw	a5,-2040(gp) # 1de78 <_impure_ptr>
   132e8:	00150613          	addi	a2,a0,1
   132ec:	00912823          	sw	s1,16(sp)
   132f0:	0087a703          	lw	a4,8(a5)
   132f4:	0001c7b7          	lui	a5,0x1c
   132f8:	2d078793          	addi	a5,a5,720 # 1c2d0 <zeroes.3949+0x14>
   132fc:	00c71683          	lh	a3,12(a4)
   13300:	00f12c23          	sw	a5,24(sp)
   13304:	00100793          	li	a5,1
   13308:	00f12e23          	sw	a5,28(sp)
   1330c:	01010793          	addi	a5,sp,16
   13310:	00f12223          	sw	a5,4(sp)
   13314:	00200793          	li	a5,2
   13318:	00f12423          	sw	a5,8(sp)
   1331c:	01269793          	slli	a5,a3,0x12
   13320:	00a12a23          	sw	a0,20(sp)
   13324:	00c12623          	sw	a2,12(sp)
   13328:	0207c263          	bltz	a5,1334c <_puts_r+0x88>
   1332c:	06472583          	lw	a1,100(a4)
   13330:	ffffe7b7          	lui	a5,0xffffe
   13334:	00002637          	lui	a2,0x2
   13338:	fff78793          	addi	a5,a5,-1 # ffffdfff <_end+0xfffdd88f>
   1333c:	00c6e6b3          	or	a3,a3,a2
   13340:	00f5f7b3          	and	a5,a1,a5
   13344:	00d71623          	sh	a3,12(a4)
   13348:	06f72223          	sw	a5,100(a4)
   1334c:	00842583          	lw	a1,8(s0)
   13350:	00410613          	addi	a2,sp,4
   13354:	00040513          	mv	a0,s0
   13358:	709030ef          	jal	17260 <__sfvwrite_r>
   1335c:	02c12083          	lw	ra,44(sp)
   13360:	00a03533          	snez	a0,a0
   13364:	40a00533          	neg	a0,a0
   13368:	00a56513          	ori	a0,a0,10
   1336c:	02812403          	lw	s0,40(sp)
   13370:	02412483          	lw	s1,36(sp)
   13374:	03010113          	addi	sp,sp,48
   13378:	00008067          	ret

0001337c <puts>:
   1337c:	00050593          	mv	a1,a0
   13380:	8081a503          	lw	a0,-2040(gp) # 1de78 <_impure_ptr>
   13384:	f41ff06f          	j	132c4 <_puts_r>

00013388 <strcmp>:
   13388:	00b56733          	or	a4,a0,a1
   1338c:	fff00393          	li	t2,-1
   13390:	00377713          	andi	a4,a4,3
   13394:	0c071063          	bnez	a4,13454 <strcmp+0xcc>
   13398:	7f7f8e37          	lui	t3,0x7f7f8
   1339c:	f7fe0e13          	addi	t3,t3,-129 # 7f7f7f7f <_end+0x7f7d780f>
   133a0:	00052603          	lw	a2,0(a0)
   133a4:	0005a683          	lw	a3,0(a1)
   133a8:	01c672b3          	and	t0,a2,t3
   133ac:	01c66333          	or	t1,a2,t3
   133b0:	01c282b3          	add	t0,t0,t3
   133b4:	0062e2b3          	or	t0,t0,t1
   133b8:	0c729263          	bne	t0,t2,1347c <strcmp+0xf4>
   133bc:	04d61663          	bne	a2,a3,13408 <strcmp+0x80>
   133c0:	00452603          	lw	a2,4(a0)
   133c4:	0045a683          	lw	a3,4(a1)
   133c8:	01c672b3          	and	t0,a2,t3
   133cc:	01c66333          	or	t1,a2,t3
   133d0:	01c282b3          	add	t0,t0,t3
   133d4:	0062e2b3          	or	t0,t0,t1
   133d8:	08729e63          	bne	t0,t2,13474 <strcmp+0xec>
   133dc:	02d61663          	bne	a2,a3,13408 <strcmp+0x80>
   133e0:	00852603          	lw	a2,8(a0)
   133e4:	0085a683          	lw	a3,8(a1)
   133e8:	01c672b3          	and	t0,a2,t3
   133ec:	01c66333          	or	t1,a2,t3
   133f0:	01c282b3          	add	t0,t0,t3
   133f4:	0062e2b3          	or	t0,t0,t1
   133f8:	08729863          	bne	t0,t2,13488 <strcmp+0x100>
   133fc:	00c50513          	addi	a0,a0,12
   13400:	00c58593          	addi	a1,a1,12
   13404:	f8d60ee3          	beq	a2,a3,133a0 <strcmp+0x18>
   13408:	01061713          	slli	a4,a2,0x10
   1340c:	01069793          	slli	a5,a3,0x10
   13410:	00f71e63          	bne	a4,a5,1342c <strcmp+0xa4>
   13414:	01065713          	srli	a4,a2,0x10
   13418:	0106d793          	srli	a5,a3,0x10
   1341c:	40f70533          	sub	a0,a4,a5
   13420:	0ff57593          	andi	a1,a0,255
   13424:	02059063          	bnez	a1,13444 <strcmp+0xbc>
   13428:	00008067          	ret
   1342c:	01075713          	srli	a4,a4,0x10
   13430:	0107d793          	srli	a5,a5,0x10
   13434:	40f70533          	sub	a0,a4,a5
   13438:	0ff57593          	andi	a1,a0,255
   1343c:	00059463          	bnez	a1,13444 <strcmp+0xbc>
   13440:	00008067          	ret
   13444:	0ff77713          	andi	a4,a4,255
   13448:	0ff7f793          	andi	a5,a5,255
   1344c:	40f70533          	sub	a0,a4,a5
   13450:	00008067          	ret
   13454:	00054603          	lbu	a2,0(a0)
   13458:	0005c683          	lbu	a3,0(a1)
   1345c:	00150513          	addi	a0,a0,1
   13460:	00158593          	addi	a1,a1,1
   13464:	00d61463          	bne	a2,a3,1346c <strcmp+0xe4>
   13468:	fe0616e3          	bnez	a2,13454 <strcmp+0xcc>
   1346c:	40d60533          	sub	a0,a2,a3
   13470:	00008067          	ret
   13474:	00450513          	addi	a0,a0,4
   13478:	00458593          	addi	a1,a1,4
   1347c:	fcd61ce3          	bne	a2,a3,13454 <strcmp+0xcc>
   13480:	00000513          	li	a0,0
   13484:	00008067          	ret
   13488:	00850513          	addi	a0,a0,8
   1348c:	00858593          	addi	a1,a1,8
   13490:	fcd612e3          	bne	a2,a3,13454 <strcmp+0xcc>
   13494:	00000513          	li	a0,0
   13498:	00008067          	ret

0001349c <strlen>:
   1349c:	00357793          	andi	a5,a0,3
   134a0:	00050593          	mv	a1,a0
   134a4:	04079a63          	bnez	a5,134f8 <strlen+0x5c>
   134a8:	7f7f86b7          	lui	a3,0x7f7f8
   134ac:	f7f68693          	addi	a3,a3,-129 # 7f7f7f7f <_end+0x7f7d780f>
   134b0:	fff00613          	li	a2,-1
   134b4:	00450513          	addi	a0,a0,4
   134b8:	ffc52783          	lw	a5,-4(a0)
   134bc:	00d7f733          	and	a4,a5,a3
   134c0:	00d70733          	add	a4,a4,a3
   134c4:	00d7e7b3          	or	a5,a5,a3
   134c8:	00f767b3          	or	a5,a4,a5
   134cc:	fec784e3          	beq	a5,a2,134b4 <strlen+0x18>
   134d0:	ffc54703          	lbu	a4,-4(a0)
   134d4:	40b507b3          	sub	a5,a0,a1
   134d8:	ffd54683          	lbu	a3,-3(a0)
   134dc:	ffe54603          	lbu	a2,-2(a0)
   134e0:	02070e63          	beqz	a4,1351c <strlen+0x80>
   134e4:	02068863          	beqz	a3,13514 <strlen+0x78>
   134e8:	fff78513          	addi	a0,a5,-1
   134ec:	02060c63          	beqz	a2,13524 <strlen+0x88>
   134f0:	00008067          	ret
   134f4:	fa070ae3          	beqz	a4,134a8 <strlen+0xc>
   134f8:	00054783          	lbu	a5,0(a0)
   134fc:	00150513          	addi	a0,a0,1
   13500:	00357713          	andi	a4,a0,3
   13504:	fe0798e3          	bnez	a5,134f4 <strlen+0x58>
   13508:	40b50533          	sub	a0,a0,a1
   1350c:	fff50513          	addi	a0,a0,-1
   13510:	00008067          	ret
   13514:	ffd78513          	addi	a0,a5,-3
   13518:	00008067          	ret
   1351c:	ffc78513          	addi	a0,a5,-4
   13520:	00008067          	ret
   13524:	ffe78513          	addi	a0,a5,-2
   13528:	00008067          	ret

0001352c <_vfprintf_r>:
   1352c:	ab010113          	addi	sp,sp,-1360
   13530:	54112623          	sw	ra,1356(sp)
   13534:	55212023          	sw	s2,1344(sp)
   13538:	53312e23          	sw	s3,1340(sp)
   1353c:	53612823          	sw	s6,1328(sp)
   13540:	00058993          	mv	s3,a1
   13544:	00060913          	mv	s2,a2
   13548:	02d12a23          	sw	a3,52(sp)
   1354c:	54812423          	sw	s0,1352(sp)
   13550:	54912223          	sw	s1,1348(sp)
   13554:	53412c23          	sw	s4,1336(sp)
   13558:	53512a23          	sw	s5,1332(sp)
   1355c:	53712623          	sw	s7,1324(sp)
   13560:	53812423          	sw	s8,1320(sp)
   13564:	53912223          	sw	s9,1316(sp)
   13568:	53a12023          	sw	s10,1312(sp)
   1356c:	51b12e23          	sw	s11,1308(sp)
   13570:	50813427          	fsd	fs0,1288(sp)
   13574:	00050b13          	mv	s6,a0
   13578:	374040ef          	jal	178ec <_localeconv_r>
   1357c:	00052503          	lw	a0,0(a0)
   13580:	04a12023          	sw	a0,64(sp)
   13584:	f19ff0ef          	jal	1349c <strlen>
   13588:	04a12623          	sw	a0,76(sp)
   1358c:	000b0663          	beqz	s6,13598 <_vfprintf_r+0x6c>
   13590:	038b2783          	lw	a5,56(s6)
   13594:	32078663          	beqz	a5,138c0 <_vfprintf_r+0x394>
   13598:	00c99703          	lh	a4,12(s3)
   1359c:	01071793          	slli	a5,a4,0x10
   135a0:	0107d793          	srli	a5,a5,0x10
   135a4:	01279293          	slli	t0,a5,0x12
   135a8:	0202c663          	bltz	t0,135d4 <_vfprintf_r+0xa8>
   135ac:	0649a683          	lw	a3,100(s3)
   135b0:	000027b7          	lui	a5,0x2
   135b4:	00f76733          	or	a4,a4,a5
   135b8:	ffffe7b7          	lui	a5,0xffffe
   135bc:	fff78793          	addi	a5,a5,-1 # ffffdfff <_end+0xfffdd88f>
   135c0:	00f6f7b3          	and	a5,a3,a5
   135c4:	06f9a223          	sw	a5,100(s3)
   135c8:	01071793          	slli	a5,a4,0x10
   135cc:	00e99623          	sh	a4,12(s3)
   135d0:	0107d793          	srli	a5,a5,0x10
   135d4:	0087f693          	andi	a3,a5,8
   135d8:	18068e63          	beqz	a3,13774 <_vfprintf_r+0x248>
   135dc:	0109a683          	lw	a3,16(s3)
   135e0:	18068a63          	beqz	a3,13774 <_vfprintf_r+0x248>
   135e4:	01a7f793          	andi	a5,a5,26
   135e8:	00a00693          	li	a3,10
   135ec:	1ad78a63          	beq	a5,a3,137a0 <_vfprintf_r+0x274>
   135f0:	0001c7b7          	lui	a5,0x1c
   135f4:	10010b93          	addi	s7,sp,256
   135f8:	fc478c13          	addi	s8,a5,-60 # 1bfc4 <blanks.4004>
   135fc:	0001c7b7          	lui	a5,0x1c
   13600:	04012823          	sw	zero,80(sp)
   13604:	04012a23          	sw	zero,84(sp)
   13608:	09712623          	sw	s7,140(sp)
   1360c:	08012a23          	sw	zero,148(sp)
   13610:	08012823          	sw	zero,144(sp)
   13614:	04012223          	sw	zero,68(sp)
   13618:	04012c23          	sw	zero,88(sp)
   1361c:	04012e23          	sw	zero,92(sp)
   13620:	02012c23          	sw	zero,56(sp)
   13624:	000b8693          	mv	a3,s7
   13628:	fd478c93          	addi	s9,a5,-44 # 1bfd4 <zeroes.4005>
   1362c:	00094783          	lbu	a5,0(s2)
   13630:	120782e3          	beqz	a5,13f54 <_vfprintf_r+0xa28>
   13634:	02500713          	li	a4,37
   13638:	00090413          	mv	s0,s2
   1363c:	00e79663          	bne	a5,a4,13648 <_vfprintf_r+0x11c>
   13640:	0540006f          	j	13694 <_vfprintf_r+0x168>
   13644:	00e78863          	beq	a5,a4,13654 <_vfprintf_r+0x128>
   13648:	00140413          	addi	s0,s0,1
   1364c:	00044783          	lbu	a5,0(s0)
   13650:	fe079ae3          	bnez	a5,13644 <_vfprintf_r+0x118>
   13654:	412404b3          	sub	s1,s0,s2
   13658:	02048e63          	beqz	s1,13694 <_vfprintf_r+0x168>
   1365c:	09412703          	lw	a4,148(sp)
   13660:	09012783          	lw	a5,144(sp)
   13664:	0126a023          	sw	s2,0(a3)
   13668:	00970733          	add	a4,a4,s1
   1366c:	00178793          	addi	a5,a5,1
   13670:	08e12a23          	sw	a4,148(sp)
   13674:	00700713          	li	a4,7
   13678:	0096a223          	sw	s1,4(a3)
   1367c:	08f12823          	sw	a5,144(sp)
   13680:	00868693          	addi	a3,a3,8
   13684:	1af74a63          	blt	a4,a5,13838 <_vfprintf_r+0x30c>
   13688:	03812283          	lw	t0,56(sp)
   1368c:	009282b3          	add	t0,t0,s1
   13690:	02512c23          	sw	t0,56(sp)
   13694:	00044783          	lbu	a5,0(s0)
   13698:	1a078e63          	beqz	a5,13854 <_vfprintf_r+0x328>
   1369c:	00140913          	addi	s2,s0,1
   136a0:	060107a3          	sb	zero,111(sp)
   136a4:	00000593          	li	a1,0
   136a8:	00000513          	li	a0,0
   136ac:	fff00413          	li	s0,-1
   136b0:	02012423          	sw	zero,40(sp)
   136b4:	00000a93          	li	s5,0
   136b8:	05800713          	li	a4,88
   136bc:	00900613          	li	a2,9
   136c0:	02a00813          	li	a6,42
   136c4:	00000893          	li	a7,0
   136c8:	00094d03          	lbu	s10,0(s2)
   136cc:	00190913          	addi	s2,s2,1
   136d0:	fe0d0793          	addi	a5,s10,-32
   136d4:	7ef76863          	bltu	a4,a5,13ec4 <_vfprintf_r+0x998>
   136d8:	0001c2b7          	lui	t0,0x1c
   136dc:	00279793          	slli	a5,a5,0x2
   136e0:	e6028293          	addi	t0,t0,-416 # 1be60 <__clz_tab+0x100>
   136e4:	005787b3          	add	a5,a5,t0
   136e8:	0007a783          	lw	a5,0(a5)
   136ec:	00078067          	jr	a5
   136f0:	010aea93          	ori	s5,s5,16
   136f4:	fd5ff06f          	j	136c8 <_vfprintf_r+0x19c>
   136f8:	03412283          	lw	t0,52(sp)
   136fc:	0002a883          	lw	a7,0(t0)
   13700:	00428293          	addi	t0,t0,4
   13704:	02512a23          	sw	t0,52(sp)
   13708:	fc08d0e3          	bgez	a7,136c8 <_vfprintf_r+0x19c>
   1370c:	411008b3          	neg	a7,a7
   13710:	004aea93          	ori	s5,s5,4
   13714:	fb5ff06f          	j	136c8 <_vfprintf_r+0x19c>
   13718:	03412283          	lw	t0,52(sp)
   1371c:	03000613          	li	a2,48
   13720:	06c10823          	sb	a2,112(sp)
   13724:	07800613          	li	a2,120
   13728:	03112423          	sw	a7,40(sp)
   1372c:	00428713          	addi	a4,t0,4
   13730:	0002a783          	lw	a5,0(t0)
   13734:	002ae593          	ori	a1,s5,2
   13738:	06c108a3          	sb	a2,113(sp)
   1373c:	060107a3          	sb	zero,111(sp)
   13740:	7a044a63          	bltz	s0,13ef4 <_vfprintf_r+0x9c8>
   13744:	f7fafa93          	andi	s5,s5,-129
   13748:	002aea93          	ori	s5,s5,2
   1374c:	02e12a23          	sw	a4,52(sp)
   13750:	74079e63          	bnez	a5,13eac <_vfprintf_r+0x980>
   13754:	0001c7b7          	lui	a5,0x1c
   13758:	2f878793          	addi	a5,a5,760 # 1c2f8 <zeroes.3949+0x3c>
   1375c:	04f12c23          	sw	a5,88(sp)
   13760:	07800d13          	li	s10,120
   13764:	00000813          	li	a6,0
   13768:	00000793          	li	a5,0
   1376c:	64041c63          	bnez	s0,13dc4 <_vfprintf_r+0x898>
   13770:	4b40006f          	j	13c24 <_vfprintf_r+0x6f8>
   13774:	00098593          	mv	a1,s3
   13778:	000b0513          	mv	a0,s6
   1377c:	2cd010ef          	jal	15248 <__swsetup_r>
   13780:	00050463          	beqz	a0,13788 <_vfprintf_r+0x25c>
   13784:	2f40106f          	j	14a78 <_vfprintf_r+0x154c>
   13788:	00c99703          	lh	a4,12(s3)
   1378c:	00a00693          	li	a3,10
   13790:	01071793          	slli	a5,a4,0x10
   13794:	0107d793          	srli	a5,a5,0x10
   13798:	01a7f793          	andi	a5,a5,26
   1379c:	e4d79ae3          	bne	a5,a3,135f0 <_vfprintf_r+0xc4>
   137a0:	00e99783          	lh	a5,14(s3)
   137a4:	e407c6e3          	bltz	a5,135f0 <_vfprintf_r+0xc4>
   137a8:	0649a303          	lw	t1,100(s3)
   137ac:	01c9a283          	lw	t0,28(s3)
   137b0:	0249a883          	lw	a7,36(s3)
   137b4:	03412683          	lw	a3,52(sp)
   137b8:	ffd77713          	andi	a4,a4,-3
   137bc:	40000813          	li	a6,1024
   137c0:	0ae11223          	sh	a4,164(sp)
   137c4:	00090613          	mv	a2,s2
   137c8:	10010713          	addi	a4,sp,256
   137cc:	09810593          	addi	a1,sp,152
   137d0:	000b0513          	mv	a0,s6
   137d4:	0e612e23          	sw	t1,252(sp)
   137d8:	0af11323          	sh	a5,166(sp)
   137dc:	0a512a23          	sw	t0,180(sp)
   137e0:	0b112e23          	sw	a7,188(sp)
   137e4:	08e12c23          	sw	a4,152(sp)
   137e8:	0ae12423          	sw	a4,168(sp)
   137ec:	0b012023          	sw	a6,160(sp)
   137f0:	0b012623          	sw	a6,172(sp)
   137f4:	0a012823          	sw	zero,176(sp)
   137f8:	d35ff0ef          	jal	1352c <_vfprintf_r>
   137fc:	00050413          	mv	s0,a0
   13800:	00054c63          	bltz	a0,13818 <_vfprintf_r+0x2ec>
   13804:	09810593          	addi	a1,sp,152
   13808:	000b0513          	mv	a0,s6
   1380c:	048030ef          	jal	16854 <_fflush_r>
   13810:	00050463          	beqz	a0,13818 <_vfprintf_r+0x2ec>
   13814:	7bc0106f          	j	14fd0 <_vfprintf_r+0x1aa4>
   13818:	0a415783          	lhu	a5,164(sp)
   1381c:	0407f793          	andi	a5,a5,64
   13820:	00078863          	beqz	a5,13830 <_vfprintf_r+0x304>
   13824:	00c9d783          	lhu	a5,12(s3)
   13828:	0407e793          	ori	a5,a5,64
   1382c:	00f99623          	sh	a5,12(s3)
   13830:	00040513          	mv	a0,s0
   13834:	04c0006f          	j	13880 <_vfprintf_r+0x354>
   13838:	08c10613          	addi	a2,sp,140
   1383c:	00098593          	mv	a1,s3
   13840:	000b0513          	mv	a0,s6
   13844:	4ac060ef          	jal	19cf0 <__sprint_r>
   13848:	02051263          	bnez	a0,1386c <_vfprintf_r+0x340>
   1384c:	000b8693          	mv	a3,s7
   13850:	e39ff06f          	j	13688 <_vfprintf_r+0x15c>
   13854:	09412783          	lw	a5,148(sp)
   13858:	00078a63          	beqz	a5,1386c <_vfprintf_r+0x340>
   1385c:	08c10613          	addi	a2,sp,140
   13860:	00098593          	mv	a1,s3
   13864:	000b0513          	mv	a0,s6
   13868:	488060ef          	jal	19cf0 <__sprint_r>
   1386c:	00c9d783          	lhu	a5,12(s3)
   13870:	0407f793          	andi	a5,a5,64
   13874:	00078463          	beqz	a5,1387c <_vfprintf_r+0x350>
   13878:	2000106f          	j	14a78 <_vfprintf_r+0x154c>
   1387c:	03812503          	lw	a0,56(sp)
   13880:	54c12083          	lw	ra,1356(sp)
   13884:	54812403          	lw	s0,1352(sp)
   13888:	54412483          	lw	s1,1348(sp)
   1388c:	54012903          	lw	s2,1344(sp)
   13890:	53c12983          	lw	s3,1340(sp)
   13894:	53812a03          	lw	s4,1336(sp)
   13898:	53412a83          	lw	s5,1332(sp)
   1389c:	53012b03          	lw	s6,1328(sp)
   138a0:	52c12b83          	lw	s7,1324(sp)
   138a4:	52812c03          	lw	s8,1320(sp)
   138a8:	52412c83          	lw	s9,1316(sp)
   138ac:	52012d03          	lw	s10,1312(sp)
   138b0:	51c12d83          	lw	s11,1308(sp)
   138b4:	50813407          	fld	fs0,1288(sp)
   138b8:	55010113          	addi	sp,sp,1360
   138bc:	00008067          	ret
   138c0:	000b0513          	mv	a0,s6
   138c4:	580030ef          	jal	16e44 <__sinit>
   138c8:	cd1ff06f          	j	13598 <_vfprintf_r+0x6c>
   138cc:	00100593          	li	a1,1
   138d0:	02b00513          	li	a0,43
   138d4:	df5ff06f          	j	136c8 <_vfprintf_r+0x19c>
   138d8:	03112423          	sw	a7,40(sp)
   138dc:	00058463          	beqz	a1,138e4 <_vfprintf_r+0x3b8>
   138e0:	7600106f          	j	15040 <_vfprintf_r+0x1b14>
   138e4:	010af793          	andi	a5,s5,16
   138e8:	40078263          	beqz	a5,13cec <_vfprintf_r+0x7c0>
   138ec:	03412283          	lw	t0,52(sp)
   138f0:	0002a783          	lw	a5,0(t0)
   138f4:	00428713          	addi	a4,t0,4
   138f8:	060107a3          	sb	zero,111(sp)
   138fc:	40044663          	bltz	s0,13d08 <_vfprintf_r+0x7dc>
   13900:	f7fafa93          	andi	s5,s5,-129
   13904:	02e12a23          	sw	a4,52(sp)
   13908:	40079663          	bnez	a5,13d14 <_vfprintf_r+0x7e8>
   1390c:	00000813          	li	a6,0
   13910:	00000793          	li	a5,0
   13914:	00041463          	bnez	s0,1391c <_vfprintf_r+0x3f0>
   13918:	6f80106f          	j	15010 <_vfprintf_r+0x1ae4>
   1391c:	0c010893          	addi	a7,sp,192
   13920:	00088a13          	mv	s4,a7
   13924:	0077f713          	andi	a4,a5,7
   13928:	fffa0a13          	addi	s4,s4,-1
   1392c:	03070713          	addi	a4,a4,48
   13930:	0037d793          	srli	a5,a5,0x3
   13934:	00ea0023          	sb	a4,0(s4)
   13938:	fe0796e3          	bnez	a5,13924 <_vfprintf_r+0x3f8>
   1393c:	001af793          	andi	a5,s5,1
   13940:	26078663          	beqz	a5,13bac <_vfprintf_r+0x680>
   13944:	03000793          	li	a5,48
   13948:	26f70263          	beq	a4,a5,13bac <_vfprintf_r+0x680>
   1394c:	fffa0713          	addi	a4,s4,-1
   13950:	40e888b3          	sub	a7,a7,a4
   13954:	fefa0fa3          	sb	a5,-1(s4)
   13958:	03112823          	sw	a7,48(sp)
   1395c:	00070a13          	mv	s4,a4
   13960:	03012783          	lw	a5,48(sp)
   13964:	0087d463          	ble	s0,a5,1396c <_vfprintf_r+0x440>
   13968:	00040793          	mv	a5,s0
   1396c:	02f12223          	sw	a5,36(sp)
   13970:	00080863          	beqz	a6,13980 <_vfprintf_r+0x454>
   13974:	02412283          	lw	t0,36(sp)
   13978:	00128293          	addi	t0,t0,1
   1397c:	02512223          	sw	t0,36(sp)
   13980:	002af713          	andi	a4,s5,2
   13984:	02e12623          	sw	a4,44(sp)
   13988:	00070863          	beqz	a4,13998 <_vfprintf_r+0x46c>
   1398c:	02412783          	lw	a5,36(sp)
   13990:	00278793          	addi	a5,a5,2
   13994:	02f12223          	sw	a5,36(sp)
   13998:	084af293          	andi	t0,s5,132
   1399c:	02512e23          	sw	t0,60(sp)
   139a0:	5a029e63          	bnez	t0,13f5c <_vfprintf_r+0xa30>
   139a4:	02812283          	lw	t0,40(sp)
   139a8:	02412703          	lw	a4,36(sp)
   139ac:	40e284b3          	sub	s1,t0,a4
   139b0:	5a905663          	blez	s1,13f5c <_vfprintf_r+0xa30>
   139b4:	01000893          	li	a7,16
   139b8:	09412703          	lw	a4,148(sp)
   139bc:	09012783          	lw	a5,144(sp)
   139c0:	05812423          	sw	s8,72(sp)
   139c4:	0698d263          	ble	s1,a7,13a28 <_vfprintf_r+0x4fc>
   139c8:	00700d93          	li	s11,7
   139cc:	00c0006f          	j	139d8 <_vfprintf_r+0x4ac>
   139d0:	ff048493          	addi	s1,s1,-16
   139d4:	0498da63          	ble	s1,a7,13a28 <_vfprintf_r+0x4fc>
   139d8:	01070713          	addi	a4,a4,16
   139dc:	00178793          	addi	a5,a5,1
   139e0:	0186a023          	sw	s8,0(a3)
   139e4:	0116a223          	sw	a7,4(a3)
   139e8:	08e12a23          	sw	a4,148(sp)
   139ec:	08f12823          	sw	a5,144(sp)
   139f0:	00868693          	addi	a3,a3,8
   139f4:	fcfddee3          	ble	a5,s11,139d0 <_vfprintf_r+0x4a4>
   139f8:	08c10613          	addi	a2,sp,140
   139fc:	00098593          	mv	a1,s3
   13a00:	000b0513          	mv	a0,s6
   13a04:	03112023          	sw	a7,32(sp)
   13a08:	2e8060ef          	jal	19cf0 <__sprint_r>
   13a0c:	02012883          	lw	a7,32(sp)
   13a10:	e4051ee3          	bnez	a0,1386c <_vfprintf_r+0x340>
   13a14:	ff048493          	addi	s1,s1,-16
   13a18:	09412703          	lw	a4,148(sp)
   13a1c:	09012783          	lw	a5,144(sp)
   13a20:	000b8693          	mv	a3,s7
   13a24:	fa98cae3          	blt	a7,s1,139d8 <_vfprintf_r+0x4ac>
   13a28:	04812283          	lw	t0,72(sp)
   13a2c:	00e48633          	add	a2,s1,a4
   13a30:	00178793          	addi	a5,a5,1
   13a34:	00700713          	li	a4,7
   13a38:	0056a023          	sw	t0,0(a3)
   13a3c:	0096a223          	sw	s1,4(a3)
   13a40:	08c12a23          	sw	a2,148(sp)
   13a44:	08f12823          	sw	a5,144(sp)
   13a48:	00868693          	addi	a3,a3,8
   13a4c:	50f75c63          	ble	a5,a4,13f64 <_vfprintf_r+0xa38>
   13a50:	08c10613          	addi	a2,sp,140
   13a54:	00098593          	mv	a1,s3
   13a58:	000b0513          	mv	a0,s6
   13a5c:	294060ef          	jal	19cf0 <__sprint_r>
   13a60:	e00516e3          	bnez	a0,1386c <_vfprintf_r+0x340>
   13a64:	09412603          	lw	a2,148(sp)
   13a68:	09012783          	lw	a5,144(sp)
   13a6c:	000b8693          	mv	a3,s7
   13a70:	4f40006f          	j	13f64 <_vfprintf_r+0xa38>
   13a74:	00094d03          	lbu	s10,0(s2)
   13a78:	00190913          	addi	s2,s2,1
   13a7c:	010d1463          	bne	s10,a6,13a84 <_vfprintf_r+0x558>
   13a80:	5680106f          	j	14fe8 <_vfprintf_r+0x1abc>
   13a84:	fd0d0793          	addi	a5,s10,-48
   13a88:	00000413          	li	s0,0
   13a8c:	c4f662e3          	bltu	a2,a5,136d0 <_vfprintf_r+0x1a4>
   13a90:	00190913          	addi	s2,s2,1
   13a94:	fff94d03          	lbu	s10,-1(s2)
   13a98:	00141293          	slli	t0,s0,0x1
   13a9c:	00341413          	slli	s0,s0,0x3
   13aa0:	00828433          	add	s0,t0,s0
   13aa4:	00f40433          	add	s0,s0,a5
   13aa8:	fd0d0793          	addi	a5,s10,-48
   13aac:	fef672e3          	bleu	a5,a2,13a90 <_vfprintf_r+0x564>
   13ab0:	c20450e3          	bgez	s0,136d0 <_vfprintf_r+0x1a4>
   13ab4:	fff00413          	li	s0,-1
   13ab8:	c19ff06f          	j	136d0 <_vfprintf_r+0x1a4>
   13abc:	080aea93          	ori	s5,s5,128
   13ac0:	c09ff06f          	j	136c8 <_vfprintf_r+0x19c>
   13ac4:	001aea93          	ori	s5,s5,1
   13ac8:	c01ff06f          	j	136c8 <_vfprintf_r+0x19c>
   13acc:	03412283          	lw	t0,52(sp)
   13ad0:	03112423          	sw	a7,40(sp)
   13ad4:	060107a3          	sb	zero,111(sp)
   13ad8:	0002aa03          	lw	s4,0(t0)
   13adc:	00428493          	addi	s1,t0,4
   13ae0:	000a1463          	bnez	s4,13ae8 <_vfprintf_r+0x5bc>
   13ae4:	0f80106f          	j	14bdc <_vfprintf_r+0x16b0>
   13ae8:	00045463          	bgez	s0,13af0 <_vfprintf_r+0x5c4>
   13aec:	0a80106f          	j	14b94 <_vfprintf_r+0x1668>
   13af0:	00040613          	mv	a2,s0
   13af4:	00000593          	li	a1,0
   13af8:	000a0513          	mv	a0,s4
   13afc:	00d12e23          	sw	a3,28(sp)
   13b00:	71c040ef          	jal	1821c <memchr>
   13b04:	01c12683          	lw	a3,28(sp)
   13b08:	00051463          	bnez	a0,13b10 <_vfprintf_r+0x5e4>
   13b0c:	2780106f          	j	14d84 <_vfprintf_r+0x1858>
   13b10:	41450533          	sub	a0,a0,s4
   13b14:	02812823          	sw	s0,48(sp)
   13b18:	78854ae3          	blt	a0,s0,14aac <_vfprintf_r+0x1580>
   13b1c:	03012783          	lw	a5,48(sp)
   13b20:	0007d463          	bgez	a5,13b28 <_vfprintf_r+0x5fc>
   13b24:	0900106f          	j	14bb4 <_vfprintf_r+0x1688>
   13b28:	06f14803          	lbu	a6,111(sp)
   13b2c:	02f12223          	sw	a5,36(sp)
   13b30:	02912a23          	sw	s1,52(sp)
   13b34:	00000413          	li	s0,0
   13b38:	e39ff06f          	j	13970 <_vfprintf_r+0x444>
   13b3c:	03112423          	sw	a7,40(sp)
   13b40:	00058463          	beqz	a1,13b48 <_vfprintf_r+0x61c>
   13b44:	53c0106f          	j	15080 <_vfprintf_r+0x1b54>
   13b48:	010af793          	andi	a5,s5,16
   13b4c:	1e078463          	beqz	a5,13d34 <_vfprintf_r+0x808>
   13b50:	03412283          	lw	t0,52(sp)
   13b54:	0002a783          	lw	a5,0(t0)
   13b58:	00428713          	addi	a4,t0,4
   13b5c:	060107a3          	sb	zero,111(sp)
   13b60:	1e044863          	bltz	s0,13d50 <_vfprintf_r+0x824>
   13b64:	f7fafa93          	andi	s5,s5,-129
   13b68:	02e12a23          	sw	a4,52(sp)
   13b6c:	00000813          	li	a6,0
   13b70:	0a078863          	beqz	a5,13c20 <_vfprintf_r+0x6f4>
   13b74:	0c010893          	addi	a7,sp,192
   13b78:	00900513          	li	a0,9
   13b7c:	00088613          	mv	a2,a7
   13b80:	00a00593          	li	a1,10
   13b84:	00f57e63          	bleu	a5,a0,13ba0 <_vfprintf_r+0x674>
   13b88:	02b7f733          	remu	a4,a5,a1
   13b8c:	fff60613          	addi	a2,a2,-1 # 1fff <_ftext-0xe001>
   13b90:	02b7d7b3          	divu	a5,a5,a1
   13b94:	03070713          	addi	a4,a4,48
   13b98:	00e60023          	sb	a4,0(a2)
   13b9c:	fef566e3          	bltu	a0,a5,13b88 <_vfprintf_r+0x65c>
   13ba0:	03078793          	addi	a5,a5,48
   13ba4:	fff60a13          	addi	s4,a2,-1
   13ba8:	fef60fa3          	sb	a5,-1(a2)
   13bac:	414888b3          	sub	a7,a7,s4
   13bb0:	03112823          	sw	a7,48(sp)
   13bb4:	dadff06f          	j	13960 <_vfprintf_r+0x434>
   13bb8:	00000893          	li	a7,0
   13bbc:	fd0d0793          	addi	a5,s10,-48
   13bc0:	00190913          	addi	s2,s2,1
   13bc4:	fff94d03          	lbu	s10,-1(s2)
   13bc8:	00189293          	slli	t0,a7,0x1
   13bcc:	00389893          	slli	a7,a7,0x3
   13bd0:	011288b3          	add	a7,t0,a7
   13bd4:	011788b3          	add	a7,a5,a7
   13bd8:	fd0d0793          	addi	a5,s10,-48
   13bdc:	fef672e3          	bleu	a5,a2,13bc0 <_vfprintf_r+0x694>
   13be0:	af1ff06f          	j	136d0 <_vfprintf_r+0x1a4>
   13be4:	03112423          	sw	a7,40(sp)
   13be8:	00058463          	beqz	a1,13bf0 <_vfprintf_r+0x6c4>
   13bec:	48c0106f          	j	15078 <_vfprintf_r+0x1b4c>
   13bf0:	010aea93          	ori	s5,s5,16
   13bf4:	010af793          	andi	a5,s5,16
   13bf8:	1e0784e3          	beqz	a5,145e0 <_vfprintf_r+0x10b4>
   13bfc:	03412283          	lw	t0,52(sp)
   13c00:	0002a783          	lw	a5,0(t0)
   13c04:	00428293          	addi	t0,t0,4
   13c08:	02512a23          	sw	t0,52(sp)
   13c0c:	2e07c4e3          	bltz	a5,146f4 <_vfprintf_r+0x11c8>
   13c10:	06f14803          	lbu	a6,111(sp)
   13c14:	14044263          	bltz	s0,13d58 <_vfprintf_r+0x82c>
   13c18:	f7fafa93          	andi	s5,s5,-129
   13c1c:	f4079ce3          	bnez	a5,13b74 <_vfprintf_r+0x648>
   13c20:	6e0410e3          	bnez	s0,14b00 <_vfprintf_r+0x15d4>
   13c24:	00000413          	li	s0,0
   13c28:	02012823          	sw	zero,48(sp)
   13c2c:	0c010a13          	addi	s4,sp,192
   13c30:	d31ff06f          	j	13960 <_vfprintf_r+0x434>
   13c34:	03112423          	sw	a7,40(sp)
   13c38:	00058463          	beqz	a1,13c40 <_vfprintf_r+0x714>
   13c3c:	4340106f          	j	15070 <_vfprintf_r+0x1b44>
   13c40:	008af793          	andi	a5,s5,8
   13c44:	03412283          	lw	t0,52(sp)
   13c48:	400782e3          	beqz	a5,1484c <_vfprintf_r+0x1320>
   13c4c:	00728793          	addi	a5,t0,7
   13c50:	ff87f793          	andi	a5,a5,-8
   13c54:	0007b007          	fld	ft0,0(a5)
   13c58:	00878293          	addi	t0,a5,8
   13c5c:	02512a23          	sw	t0,52(sp)
   13c60:	04013827          	fsd	ft0,80(sp)
   13c64:	05013507          	fld	fa0,80(sp)
   13c68:	00d12e23          	sw	a3,28(sp)
   13c6c:	00100a13          	li	s4,1
   13c70:	5c5050ef          	jal	19a34 <__fpclassifyd>
   13c74:	01c12683          	lw	a3,28(sp)
   13c78:	29451ce3          	bne	a0,s4,14710 <_vfprintf_r+0x11e4>
   13c7c:	05013087          	fld	ft1,80(sp)
   13c80:	d2000053          	fcvt.d.w	ft0,zero
   13c84:	a20097d3          	flt.d	a5,ft1,ft0
   13c88:	00078463          	beqz	a5,13c90 <_vfprintf_r+0x764>
   13c8c:	7c50006f          	j	14c50 <_vfprintf_r+0x1724>
   13c90:	06f14803          	lbu	a6,111(sp)
   13c94:	04700793          	li	a5,71
   13c98:	61a7dee3          	ble	s10,a5,14ab4 <_vfprintf_r+0x1588>
   13c9c:	0001ca37          	lui	s4,0x1c
   13ca0:	2d8a0a13          	addi	s4,s4,728 # 1c2d8 <zeroes.3949+0x1c>
   13ca4:	00300293          	li	t0,3
   13ca8:	02512223          	sw	t0,36(sp)
   13cac:	f7fafa93          	andi	s5,s5,-129
   13cb0:	02512823          	sw	t0,48(sp)
   13cb4:	00000413          	li	s0,0
   13cb8:	cb9ff06f          	j	13970 <_vfprintf_r+0x444>
   13cbc:	008aea93          	ori	s5,s5,8
   13cc0:	a09ff06f          	j	136c8 <_vfprintf_r+0x19c>
   13cc4:	a00512e3          	bnez	a0,136c8 <_vfprintf_r+0x19c>
   13cc8:	00100593          	li	a1,1
   13ccc:	02000513          	li	a0,32
   13cd0:	9f9ff06f          	j	136c8 <_vfprintf_r+0x19c>
   13cd4:	03112423          	sw	a7,40(sp)
   13cd8:	00058463          	beqz	a1,13ce0 <_vfprintf_r+0x7b4>
   13cdc:	3b80106f          	j	15094 <_vfprintf_r+0x1b68>
   13ce0:	010aea93          	ori	s5,s5,16
   13ce4:	010af793          	andi	a5,s5,16
   13ce8:	c00792e3          	bnez	a5,138ec <_vfprintf_r+0x3c0>
   13cec:	03412283          	lw	t0,52(sp)
   13cf0:	040af793          	andi	a5,s5,64
   13cf4:	00428713          	addi	a4,t0,4
   13cf8:	1a0780e3          	beqz	a5,14698 <_vfprintf_r+0x116c>
   13cfc:	0002d783          	lhu	a5,0(t0)
   13d00:	060107a3          	sb	zero,111(sp)
   13d04:	be045ee3          	bgez	s0,13900 <_vfprintf_r+0x3d4>
   13d08:	02e12a23          	sw	a4,52(sp)
   13d0c:	00000813          	li	a6,0
   13d10:	20078463          	beqz	a5,13f18 <_vfprintf_r+0x9ec>
   13d14:	00000813          	li	a6,0
   13d18:	c05ff06f          	j	1391c <_vfprintf_r+0x3f0>
   13d1c:	03112423          	sw	a7,40(sp)
   13d20:	00058463          	beqz	a1,13d28 <_vfprintf_r+0x7fc>
   13d24:	3640106f          	j	15088 <_vfprintf_r+0x1b5c>
   13d28:	010aea93          	ori	s5,s5,16
   13d2c:	010af793          	andi	a5,s5,16
   13d30:	e20790e3          	bnez	a5,13b50 <_vfprintf_r+0x624>
   13d34:	03412283          	lw	t0,52(sp)
   13d38:	040af793          	andi	a5,s5,64
   13d3c:	00428713          	addi	a4,t0,4
   13d40:	120782e3          	beqz	a5,14664 <_vfprintf_r+0x1138>
   13d44:	0002d783          	lhu	a5,0(t0)
   13d48:	060107a3          	sb	zero,111(sp)
   13d4c:	e0045ce3          	bgez	s0,13b64 <_vfprintf_r+0x638>
   13d50:	02e12a23          	sw	a4,52(sp)
   13d54:	00000813          	li	a6,0
   13d58:	e0079ee3          	bnez	a5,13b74 <_vfprintf_r+0x648>
   13d5c:	00100793          	li	a5,1
   13d60:	1b80006f          	j	13f18 <_vfprintf_r+0x9ec>
   13d64:	03112423          	sw	a7,40(sp)
   13d68:	00058463          	beqz	a1,13d70 <_vfprintf_r+0x844>
   13d6c:	2e40106f          	j	15050 <_vfprintf_r+0x1b24>
   13d70:	0001c7b7          	lui	a5,0x1c
   13d74:	2e478793          	addi	a5,a5,740 # 1c2e4 <zeroes.3949+0x28>
   13d78:	04f12c23          	sw	a5,88(sp)
   13d7c:	010af793          	andi	a5,s5,16
   13d80:	0c078e63          	beqz	a5,13e5c <_vfprintf_r+0x930>
   13d84:	03412283          	lw	t0,52(sp)
   13d88:	0002a783          	lw	a5,0(t0)
   13d8c:	00428293          	addi	t0,t0,4
   13d90:	02512a23          	sw	t0,52(sp)
   13d94:	001af713          	andi	a4,s5,1
   13d98:	78070463          	beqz	a4,14520 <_vfprintf_r+0xff4>
   13d9c:	2e0786e3          	beqz	a5,14888 <_vfprintf_r+0x135c>
   13da0:	03000713          	li	a4,48
   13da4:	06e10823          	sb	a4,112(sp)
   13da8:	07a108a3          	sb	s10,113(sp)
   13dac:	002ae713          	ori	a4,s5,2
   13db0:	060107a3          	sb	zero,111(sp)
   13db4:	6c0440e3          	bltz	s0,14c74 <_vfprintf_r+0x1748>
   13db8:	f7fafa93          	andi	s5,s5,-129
   13dbc:	002aea93          	ori	s5,s5,2
   13dc0:	00000813          	li	a6,0
   13dc4:	05812603          	lw	a2,88(sp)
   13dc8:	0c010893          	addi	a7,sp,192
   13dcc:	00088a13          	mv	s4,a7
   13dd0:	00f7f713          	andi	a4,a5,15
   13dd4:	00e60733          	add	a4,a2,a4
   13dd8:	00074703          	lbu	a4,0(a4)
   13ddc:	fffa0a13          	addi	s4,s4,-1
   13de0:	0047d793          	srli	a5,a5,0x4
   13de4:	00ea0023          	sb	a4,0(s4)
   13de8:	fe0794e3          	bnez	a5,13dd0 <_vfprintf_r+0x8a4>
   13dec:	dc1ff06f          	j	13bac <_vfprintf_r+0x680>
   13df0:	03412283          	lw	t0,52(sp)
   13df4:	00100713          	li	a4,1
   13df8:	03112423          	sw	a7,40(sp)
   13dfc:	0002a783          	lw	a5,0(t0)
   13e00:	00428293          	addi	t0,t0,4
   13e04:	02e12223          	sw	a4,36(sp)
   13e08:	060107a3          	sb	zero,111(sp)
   13e0c:	08f10c23          	sb	a5,152(sp)
   13e10:	02512a23          	sw	t0,52(sp)
   13e14:	02e12823          	sw	a4,48(sp)
   13e18:	09810a13          	addi	s4,sp,152
   13e1c:	00000413          	li	s0,0
   13e20:	b61ff06f          	j	13980 <_vfprintf_r+0x454>
   13e24:	03112423          	sw	a7,40(sp)
   13e28:	dc0586e3          	beqz	a1,13bf4 <_vfprintf_r+0x6c8>
   13e2c:	06a107a3          	sb	a0,111(sp)
   13e30:	dc5ff06f          	j	13bf4 <_vfprintf_r+0x6c8>
   13e34:	040aea93          	ori	s5,s5,64
   13e38:	891ff06f          	j	136c8 <_vfprintf_r+0x19c>
   13e3c:	03112423          	sw	a7,40(sp)
   13e40:	00058463          	beqz	a1,13e48 <_vfprintf_r+0x91c>
   13e44:	21c0106f          	j	15060 <_vfprintf_r+0x1b34>
   13e48:	0001c7b7          	lui	a5,0x1c
   13e4c:	2f878793          	addi	a5,a5,760 # 1c2f8 <zeroes.3949+0x3c>
   13e50:	04f12c23          	sw	a5,88(sp)
   13e54:	010af793          	andi	a5,s5,16
   13e58:	f20796e3          	bnez	a5,13d84 <_vfprintf_r+0x858>
   13e5c:	040af793          	andi	a5,s5,64
   13e60:	03412283          	lw	t0,52(sp)
   13e64:	20078ae3          	beqz	a5,14878 <_vfprintf_r+0x134c>
   13e68:	0002d783          	lhu	a5,0(t0)
   13e6c:	00428293          	addi	t0,t0,4
   13e70:	02512a23          	sw	t0,52(sp)
   13e74:	f21ff06f          	j	13d94 <_vfprintf_r+0x868>
   13e78:	00058463          	beqz	a1,13e80 <_vfprintf_r+0x954>
   13e7c:	2240106f          	j	150a0 <_vfprintf_r+0x1b74>
   13e80:	010af793          	andi	a5,s5,16
   13e84:	0a079863          	bnez	a5,13f34 <_vfprintf_r+0xa08>
   13e88:	040afa93          	andi	s5,s5,64
   13e8c:	0a0a8463          	beqz	s5,13f34 <_vfprintf_r+0xa08>
   13e90:	03412283          	lw	t0,52(sp)
   13e94:	0002a783          	lw	a5,0(t0)
   13e98:	00428293          	addi	t0,t0,4
   13e9c:	02512a23          	sw	t0,52(sp)
   13ea0:	03812283          	lw	t0,56(sp)
   13ea4:	00579023          	sh	t0,0(a5)
   13ea8:	f84ff06f          	j	1362c <_vfprintf_r+0x100>
   13eac:	0001c737          	lui	a4,0x1c
   13eb0:	2f870713          	addi	a4,a4,760 # 1c2f8 <zeroes.3949+0x3c>
   13eb4:	00000813          	li	a6,0
   13eb8:	04e12c23          	sw	a4,88(sp)
   13ebc:	07800d13          	li	s10,120
   13ec0:	f05ff06f          	j	13dc4 <_vfprintf_r+0x898>
   13ec4:	03112423          	sw	a7,40(sp)
   13ec8:	00058463          	beqz	a1,13ed0 <_vfprintf_r+0x9a4>
   13ecc:	18c0106f          	j	15058 <_vfprintf_r+0x1b2c>
   13ed0:	980d02e3          	beqz	s10,13854 <_vfprintf_r+0x328>
   13ed4:	00100793          	li	a5,1
   13ed8:	02f12223          	sw	a5,36(sp)
   13edc:	09a10c23          	sb	s10,152(sp)
   13ee0:	060107a3          	sb	zero,111(sp)
   13ee4:	02f12823          	sw	a5,48(sp)
   13ee8:	09810a13          	addi	s4,sp,152
   13eec:	00000413          	li	s0,0
   13ef0:	a91ff06f          	j	13980 <_vfprintf_r+0x454>
   13ef4:	02e12a23          	sw	a4,52(sp)
   13ef8:	0001c737          	lui	a4,0x1c
   13efc:	2f870713          	addi	a4,a4,760 # 1c2f8 <zeroes.3949+0x3c>
   13f00:	00058a93          	mv	s5,a1
   13f04:	04e12c23          	sw	a4,88(sp)
   13f08:	07800d13          	li	s10,120
   13f0c:	62079263          	bnez	a5,14530 <_vfprintf_r+0x1004>
   13f10:	00000813          	li	a6,0
   13f14:	00200793          	li	a5,2
   13f18:	00100713          	li	a4,1
   13f1c:	3ee782e3          	beq	a5,a4,14b00 <_vfprintf_r+0x15d4>
   13f20:	00200713          	li	a4,2
   13f24:	00e79463          	bne	a5,a4,13f2c <_vfprintf_r+0xa00>
   13f28:	1200106f          	j	15048 <_vfprintf_r+0x1b1c>
   13f2c:	00000793          	li	a5,0
   13f30:	9edff06f          	j	1391c <_vfprintf_r+0x3f0>
   13f34:	03412283          	lw	t0,52(sp)
   13f38:	0002a783          	lw	a5,0(t0)
   13f3c:	00428293          	addi	t0,t0,4
   13f40:	02512a23          	sw	t0,52(sp)
   13f44:	03812283          	lw	t0,56(sp)
   13f48:	0057a023          	sw	t0,0(a5)
   13f4c:	00094783          	lbu	a5,0(s2)
   13f50:	ee079263          	bnez	a5,13634 <_vfprintf_r+0x108>
   13f54:	00090413          	mv	s0,s2
   13f58:	f3cff06f          	j	13694 <_vfprintf_r+0x168>
   13f5c:	09412603          	lw	a2,148(sp)
   13f60:	09012783          	lw	a5,144(sp)
   13f64:	06f14703          	lbu	a4,111(sp)
   13f68:	02070863          	beqz	a4,13f98 <_vfprintf_r+0xa6c>
   13f6c:	06f10713          	addi	a4,sp,111
   13f70:	00e6a023          	sw	a4,0(a3)
   13f74:	00100713          	li	a4,1
   13f78:	00e6a223          	sw	a4,4(a3)
   13f7c:	00160613          	addi	a2,a2,1
   13f80:	00178793          	addi	a5,a5,1
   13f84:	00700713          	li	a4,7
   13f88:	08c12a23          	sw	a2,148(sp)
   13f8c:	08f12823          	sw	a5,144(sp)
   13f90:	00868693          	addi	a3,a3,8
   13f94:	54f74263          	blt	a4,a5,144d8 <_vfprintf_r+0xfac>
   13f98:	02c12703          	lw	a4,44(sp)
   13f9c:	02070863          	beqz	a4,13fcc <_vfprintf_r+0xaa0>
   13fa0:	07010713          	addi	a4,sp,112
   13fa4:	00e6a023          	sw	a4,0(a3)
   13fa8:	00200713          	li	a4,2
   13fac:	00e6a223          	sw	a4,4(a3)
   13fb0:	00260613          	addi	a2,a2,2
   13fb4:	00178793          	addi	a5,a5,1
   13fb8:	00700713          	li	a4,7
   13fbc:	08c12a23          	sw	a2,148(sp)
   13fc0:	08f12823          	sw	a5,144(sp)
   13fc4:	00868693          	addi	a3,a3,8
   13fc8:	52f74a63          	blt	a4,a5,144fc <_vfprintf_r+0xfd0>
   13fcc:	03c12283          	lw	t0,60(sp)
   13fd0:	08000713          	li	a4,128
   13fd4:	30e28e63          	beq	t0,a4,142f0 <_vfprintf_r+0xdc4>
   13fd8:	03012703          	lw	a4,48(sp)
   13fdc:	40e40433          	sub	s0,s0,a4
   13fe0:	0a805a63          	blez	s0,14094 <_vfprintf_r+0xb68>
   13fe4:	01000713          	li	a4,16
   13fe8:	03912623          	sw	s9,44(sp)
   13fec:	06875063          	ble	s0,a4,1404c <_vfprintf_r+0xb20>
   13ff0:	00070493          	mv	s1,a4
   13ff4:	00700d93          	li	s11,7
   13ff8:	00c0006f          	j	14004 <_vfprintf_r+0xad8>
   13ffc:	ff040413          	addi	s0,s0,-16
   14000:	0484d663          	ble	s0,s1,1404c <_vfprintf_r+0xb20>
   14004:	01060613          	addi	a2,a2,16
   14008:	00178793          	addi	a5,a5,1
   1400c:	0196a023          	sw	s9,0(a3)
   14010:	0096a223          	sw	s1,4(a3)
   14014:	08c12a23          	sw	a2,148(sp)
   14018:	08f12823          	sw	a5,144(sp)
   1401c:	00868693          	addi	a3,a3,8
   14020:	fcfddee3          	ble	a5,s11,13ffc <_vfprintf_r+0xad0>
   14024:	08c10613          	addi	a2,sp,140
   14028:	00098593          	mv	a1,s3
   1402c:	000b0513          	mv	a0,s6
   14030:	4c1050ef          	jal	19cf0 <__sprint_r>
   14034:	82051ce3          	bnez	a0,1386c <_vfprintf_r+0x340>
   14038:	ff040413          	addi	s0,s0,-16
   1403c:	09412603          	lw	a2,148(sp)
   14040:	09012783          	lw	a5,144(sp)
   14044:	000b8693          	mv	a3,s7
   14048:	fa84cee3          	blt	s1,s0,14004 <_vfprintf_r+0xad8>
   1404c:	02c12283          	lw	t0,44(sp)
   14050:	00860633          	add	a2,a2,s0
   14054:	00178793          	addi	a5,a5,1
   14058:	00700713          	li	a4,7
   1405c:	0056a023          	sw	t0,0(a3)
   14060:	0086a223          	sw	s0,4(a3)
   14064:	08c12a23          	sw	a2,148(sp)
   14068:	08f12823          	sw	a5,144(sp)
   1406c:	00868693          	addi	a3,a3,8
   14070:	02f75263          	ble	a5,a4,14094 <_vfprintf_r+0xb68>
   14074:	08c10613          	addi	a2,sp,140
   14078:	00098593          	mv	a1,s3
   1407c:	000b0513          	mv	a0,s6
   14080:	471050ef          	jal	19cf0 <__sprint_r>
   14084:	fe051463          	bnez	a0,1386c <_vfprintf_r+0x340>
   14088:	09412603          	lw	a2,148(sp)
   1408c:	09012783          	lw	a5,144(sp)
   14090:	000b8693          	mv	a3,s7
   14094:	100af713          	andi	a4,s5,256
   14098:	14071c63          	bnez	a4,141f0 <_vfprintf_r+0xcc4>
   1409c:	03012283          	lw	t0,48(sp)
   140a0:	00178793          	addi	a5,a5,1
   140a4:	0146a023          	sw	s4,0(a3)
   140a8:	00560733          	add	a4,a2,t0
   140ac:	00700613          	li	a2,7
   140b0:	0056a223          	sw	t0,4(a3)
   140b4:	08e12a23          	sw	a4,148(sp)
   140b8:	08f12823          	sw	a5,144(sp)
   140bc:	10f64a63          	blt	a2,a5,141d0 <_vfprintf_r+0xca4>
   140c0:	00868693          	addi	a3,a3,8
   140c4:	004afa93          	andi	s5,s5,4
   140c8:	0a0a8c63          	beqz	s5,14180 <_vfprintf_r+0xc54>
   140cc:	02812283          	lw	t0,40(sp)
   140d0:	02412783          	lw	a5,36(sp)
   140d4:	40f28433          	sub	s0,t0,a5
   140d8:	0a805463          	blez	s0,14180 <_vfprintf_r+0xc54>
   140dc:	01000a13          	li	s4,16
   140e0:	09012783          	lw	a5,144(sp)
   140e4:	05812423          	sw	s8,72(sp)
   140e8:	048a5e63          	ble	s0,s4,14144 <_vfprintf_r+0xc18>
   140ec:	00700a93          	li	s5,7
   140f0:	00c0006f          	j	140fc <_vfprintf_r+0xbd0>
   140f4:	ff040413          	addi	s0,s0,-16
   140f8:	048a5663          	ble	s0,s4,14144 <_vfprintf_r+0xc18>
   140fc:	01070713          	addi	a4,a4,16
   14100:	00178793          	addi	a5,a5,1
   14104:	0186a023          	sw	s8,0(a3)
   14108:	0146a223          	sw	s4,4(a3)
   1410c:	08e12a23          	sw	a4,148(sp)
   14110:	08f12823          	sw	a5,144(sp)
   14114:	00868693          	addi	a3,a3,8
   14118:	fcfadee3          	ble	a5,s5,140f4 <_vfprintf_r+0xbc8>
   1411c:	08c10613          	addi	a2,sp,140
   14120:	00098593          	mv	a1,s3
   14124:	000b0513          	mv	a0,s6
   14128:	3c9050ef          	jal	19cf0 <__sprint_r>
   1412c:	f4051063          	bnez	a0,1386c <_vfprintf_r+0x340>
   14130:	ff040413          	addi	s0,s0,-16
   14134:	09412703          	lw	a4,148(sp)
   14138:	09012783          	lw	a5,144(sp)
   1413c:	000b8693          	mv	a3,s7
   14140:	fa8a4ee3          	blt	s4,s0,140fc <_vfprintf_r+0xbd0>
   14144:	04812283          	lw	t0,72(sp)
   14148:	00870733          	add	a4,a4,s0
   1414c:	00178793          	addi	a5,a5,1
   14150:	0056a023          	sw	t0,0(a3)
   14154:	0086a223          	sw	s0,4(a3)
   14158:	00700693          	li	a3,7
   1415c:	08e12a23          	sw	a4,148(sp)
   14160:	08f12823          	sw	a5,144(sp)
   14164:	00f6de63          	ble	a5,a3,14180 <_vfprintf_r+0xc54>
   14168:	08c10613          	addi	a2,sp,140
   1416c:	00098593          	mv	a1,s3
   14170:	000b0513          	mv	a0,s6
   14174:	37d050ef          	jal	19cf0 <__sprint_r>
   14178:	ee051a63          	bnez	a0,1386c <_vfprintf_r+0x340>
   1417c:	09412703          	lw	a4,148(sp)
   14180:	02812483          	lw	s1,40(sp)
   14184:	02412683          	lw	a3,36(sp)
   14188:	00d4d463          	ble	a3,s1,14190 <_vfprintf_r+0xc64>
   1418c:	00068493          	mv	s1,a3
   14190:	03812283          	lw	t0,56(sp)
   14194:	009282b3          	add	t0,t0,s1
   14198:	02512c23          	sw	t0,56(sp)
   1419c:	20071e63          	bnez	a4,143b8 <_vfprintf_r+0xe8c>
   141a0:	08012823          	sw	zero,144(sp)
   141a4:	000b8693          	mv	a3,s7
   141a8:	c84ff06f          	j	1362c <_vfprintf_r+0x100>
   141ac:	02c12283          	lw	t0,44(sp)
   141b0:	00870733          	add	a4,a4,s0
   141b4:	00178793          	addi	a5,a5,1
   141b8:	0056a023          	sw	t0,0(a3)
   141bc:	00700613          	li	a2,7
   141c0:	0086a223          	sw	s0,4(a3)
   141c4:	08e12a23          	sw	a4,148(sp)
   141c8:	08f12823          	sw	a5,144(sp)
   141cc:	eef65ae3          	ble	a5,a2,140c0 <_vfprintf_r+0xb94>
   141d0:	08c10613          	addi	a2,sp,140
   141d4:	00098593          	mv	a1,s3
   141d8:	000b0513          	mv	a0,s6
   141dc:	315050ef          	jal	19cf0 <__sprint_r>
   141e0:	e8051663          	bnez	a0,1386c <_vfprintf_r+0x340>
   141e4:	09412703          	lw	a4,148(sp)
   141e8:	000b8693          	mv	a3,s7
   141ec:	ed9ff06f          	j	140c4 <_vfprintf_r+0xb98>
   141f0:	06500713          	li	a4,101
   141f4:	1da75e63          	ble	s10,a4,143d0 <_vfprintf_r+0xea4>
   141f8:	05013087          	fld	ft1,80(sp)
   141fc:	d2000053          	fcvt.d.w	ft0,zero
   14200:	a200a753          	feq.d	a4,ft1,ft0
   14204:	32070a63          	beqz	a4,14538 <_vfprintf_r+0x100c>
   14208:	00160713          	addi	a4,a2,1
   1420c:	0001c2b7          	lui	t0,0x1c
   14210:	00100613          	li	a2,1
   14214:	00c6a223          	sw	a2,4(a3)
   14218:	00178793          	addi	a5,a5,1
   1421c:	31428293          	addi	t0,t0,788 # 1c314 <zeroes.3949+0x58>
   14220:	00700613          	li	a2,7
   14224:	0056a023          	sw	t0,0(a3)
   14228:	08e12a23          	sw	a4,148(sp)
   1422c:	08f12823          	sw	a5,144(sp)
   14230:	00868693          	addi	a3,a3,8
   14234:	74f64263          	blt	a2,a5,14978 <_vfprintf_r+0x144c>
   14238:	07412783          	lw	a5,116(sp)
   1423c:	04412283          	lw	t0,68(sp)
   14240:	0057c663          	blt	a5,t0,1424c <_vfprintf_r+0xd20>
   14244:	001af793          	andi	a5,s5,1
   14248:	e6078ee3          	beqz	a5,140c4 <_vfprintf_r+0xb98>
   1424c:	04c12283          	lw	t0,76(sp)
   14250:	09012783          	lw	a5,144(sp)
   14254:	00700613          	li	a2,7
   14258:	00570733          	add	a4,a4,t0
   1425c:	04012283          	lw	t0,64(sp)
   14260:	00178793          	addi	a5,a5,1
   14264:	08e12a23          	sw	a4,148(sp)
   14268:	0056a023          	sw	t0,0(a3)
   1426c:	04c12283          	lw	t0,76(sp)
   14270:	08f12823          	sw	a5,144(sp)
   14274:	00868693          	addi	a3,a3,8
   14278:	fe56ae23          	sw	t0,-4(a3)
   1427c:	08f64ae3          	blt	a2,a5,14b10 <_vfprintf_r+0x15e4>
   14280:	04412783          	lw	a5,68(sp)
   14284:	fff78413          	addi	s0,a5,-1
   14288:	e2805ee3          	blez	s0,140c4 <_vfprintf_r+0xb98>
   1428c:	01000a13          	li	s4,16
   14290:	09012783          	lw	a5,144(sp)
   14294:	03912623          	sw	s9,44(sp)
   14298:	f08a5ae3          	ble	s0,s4,141ac <_vfprintf_r+0xc80>
   1429c:	00700d13          	li	s10,7
   142a0:	00c0006f          	j	142ac <_vfprintf_r+0xd80>
   142a4:	ff040413          	addi	s0,s0,-16
   142a8:	f08a52e3          	ble	s0,s4,141ac <_vfprintf_r+0xc80>
   142ac:	01070713          	addi	a4,a4,16
   142b0:	00178793          	addi	a5,a5,1
   142b4:	0196a023          	sw	s9,0(a3)
   142b8:	0146a223          	sw	s4,4(a3)
   142bc:	08e12a23          	sw	a4,148(sp)
   142c0:	08f12823          	sw	a5,144(sp)
   142c4:	00868693          	addi	a3,a3,8
   142c8:	fcfd5ee3          	ble	a5,s10,142a4 <_vfprintf_r+0xd78>
   142cc:	08c10613          	addi	a2,sp,140
   142d0:	00098593          	mv	a1,s3
   142d4:	000b0513          	mv	a0,s6
   142d8:	219050ef          	jal	19cf0 <__sprint_r>
   142dc:	d8051863          	bnez	a0,1386c <_vfprintf_r+0x340>
   142e0:	09412703          	lw	a4,148(sp)
   142e4:	09012783          	lw	a5,144(sp)
   142e8:	000b8693          	mv	a3,s7
   142ec:	fb9ff06f          	j	142a4 <_vfprintf_r+0xd78>
   142f0:	02812283          	lw	t0,40(sp)
   142f4:	02412703          	lw	a4,36(sp)
   142f8:	40e284b3          	sub	s1,t0,a4
   142fc:	cc905ee3          	blez	s1,13fd8 <_vfprintf_r+0xaac>
   14300:	01000893          	li	a7,16
   14304:	03912623          	sw	s9,44(sp)
   14308:	0698d263          	ble	s1,a7,1436c <_vfprintf_r+0xe40>
   1430c:	00700d93          	li	s11,7
   14310:	00c0006f          	j	1431c <_vfprintf_r+0xdf0>
   14314:	ff048493          	addi	s1,s1,-16
   14318:	0498da63          	ble	s1,a7,1436c <_vfprintf_r+0xe40>
   1431c:	01060613          	addi	a2,a2,16
   14320:	00178793          	addi	a5,a5,1
   14324:	0196a023          	sw	s9,0(a3)
   14328:	0116a223          	sw	a7,4(a3)
   1432c:	08c12a23          	sw	a2,148(sp)
   14330:	08f12823          	sw	a5,144(sp)
   14334:	00868693          	addi	a3,a3,8
   14338:	fcfddee3          	ble	a5,s11,14314 <_vfprintf_r+0xde8>
   1433c:	08c10613          	addi	a2,sp,140
   14340:	00098593          	mv	a1,s3
   14344:	000b0513          	mv	a0,s6
   14348:	03112023          	sw	a7,32(sp)
   1434c:	1a5050ef          	jal	19cf0 <__sprint_r>
   14350:	02012883          	lw	a7,32(sp)
   14354:	d0051c63          	bnez	a0,1386c <_vfprintf_r+0x340>
   14358:	ff048493          	addi	s1,s1,-16
   1435c:	09412603          	lw	a2,148(sp)
   14360:	09012783          	lw	a5,144(sp)
   14364:	000b8693          	mv	a3,s7
   14368:	fa98cae3          	blt	a7,s1,1431c <_vfprintf_r+0xdf0>
   1436c:	02c12283          	lw	t0,44(sp)
   14370:	00960633          	add	a2,a2,s1
   14374:	00178793          	addi	a5,a5,1
   14378:	00700713          	li	a4,7
   1437c:	0056a023          	sw	t0,0(a3)
   14380:	0096a223          	sw	s1,4(a3)
   14384:	08c12a23          	sw	a2,148(sp)
   14388:	08f12823          	sw	a5,144(sp)
   1438c:	00868693          	addi	a3,a3,8
   14390:	c4f754e3          	ble	a5,a4,13fd8 <_vfprintf_r+0xaac>
   14394:	08c10613          	addi	a2,sp,140
   14398:	00098593          	mv	a1,s3
   1439c:	000b0513          	mv	a0,s6
   143a0:	151050ef          	jal	19cf0 <__sprint_r>
   143a4:	cc051463          	bnez	a0,1386c <_vfprintf_r+0x340>
   143a8:	09412603          	lw	a2,148(sp)
   143ac:	09012783          	lw	a5,144(sp)
   143b0:	000b8693          	mv	a3,s7
   143b4:	c25ff06f          	j	13fd8 <_vfprintf_r+0xaac>
   143b8:	08c10613          	addi	a2,sp,140
   143bc:	00098593          	mv	a1,s3
   143c0:	000b0513          	mv	a0,s6
   143c4:	12d050ef          	jal	19cf0 <__sprint_r>
   143c8:	dc050ce3          	beqz	a0,141a0 <_vfprintf_r+0xc74>
   143cc:	ca0ff06f          	j	1386c <_vfprintf_r+0x340>
   143d0:	04412703          	lw	a4,68(sp)
   143d4:	00100593          	li	a1,1
   143d8:	0ae5da63          	ble	a4,a1,1448c <_vfprintf_r+0xf60>
   143dc:	00160713          	addi	a4,a2,1
   143e0:	00100613          	li	a2,1
   143e4:	00c6a223          	sw	a2,4(a3)
   143e8:	00178793          	addi	a5,a5,1
   143ec:	00700613          	li	a2,7
   143f0:	0146a023          	sw	s4,0(a3)
   143f4:	08e12a23          	sw	a4,148(sp)
   143f8:	08f12823          	sw	a5,144(sp)
   143fc:	00868693          	addi	a3,a3,8
   14400:	26f64a63          	blt	a2,a5,14674 <_vfprintf_r+0x1148>
   14404:	04c12283          	lw	t0,76(sp)
   14408:	00178793          	addi	a5,a5,1
   1440c:	00700613          	li	a2,7
   14410:	00570733          	add	a4,a4,t0
   14414:	04012283          	lw	t0,64(sp)
   14418:	08e12a23          	sw	a4,148(sp)
   1441c:	08f12823          	sw	a5,144(sp)
   14420:	0056a023          	sw	t0,0(a3)
   14424:	04c12283          	lw	t0,76(sp)
   14428:	00868693          	addi	a3,a3,8
   1442c:	fe56ae23          	sw	t0,-4(a3)
   14430:	26f64c63          	blt	a2,a5,146a8 <_vfprintf_r+0x117c>
   14434:	05013087          	fld	ft1,80(sp)
   14438:	d2000053          	fcvt.d.w	ft0,zero
   1443c:	04412283          	lw	t0,68(sp)
   14440:	a200a5d3          	feq.d	a1,ft1,ft0
   14444:	1a059c63          	bnez	a1,145fc <_vfprintf_r+0x10d0>
   14448:	fff28613          	addi	a2,t0,-1
   1444c:	00c70733          	add	a4,a4,a2
   14450:	001a0a13          	addi	s4,s4,1
   14454:	00178793          	addi	a5,a5,1
   14458:	00c6a223          	sw	a2,4(a3)
   1445c:	00700613          	li	a2,7
   14460:	0146a023          	sw	s4,0(a3)
   14464:	08e12a23          	sw	a4,148(sp)
   14468:	08f12823          	sw	a5,144(sp)
   1446c:	04f64463          	blt	a2,a5,144b4 <_vfprintf_r+0xf88>
   14470:	00868693          	addi	a3,a3,8
   14474:	05c12283          	lw	t0,92(sp)
   14478:	07c10613          	addi	a2,sp,124
   1447c:	00178793          	addi	a5,a5,1
   14480:	00e28733          	add	a4,t0,a4
   14484:	00c6a023          	sw	a2,0(a3)
   14488:	c25ff06f          	j	140ac <_vfprintf_r+0xb80>
   1448c:	00baf733          	and	a4,s5,a1
   14490:	f40716e3          	bnez	a4,143dc <_vfprintf_r+0xeb0>
   14494:	00160713          	addi	a4,a2,1
   14498:	00178793          	addi	a5,a5,1
   1449c:	00700613          	li	a2,7
   144a0:	0146a023          	sw	s4,0(a3)
   144a4:	00b6a223          	sw	a1,4(a3)
   144a8:	08e12a23          	sw	a4,148(sp)
   144ac:	08f12823          	sw	a5,144(sp)
   144b0:	fcf650e3          	ble	a5,a2,14470 <_vfprintf_r+0xf44>
   144b4:	08c10613          	addi	a2,sp,140
   144b8:	00098593          	mv	a1,s3
   144bc:	000b0513          	mv	a0,s6
   144c0:	031050ef          	jal	19cf0 <__sprint_r>
   144c4:	ba051463          	bnez	a0,1386c <_vfprintf_r+0x340>
   144c8:	09412703          	lw	a4,148(sp)
   144cc:	09012783          	lw	a5,144(sp)
   144d0:	000b8693          	mv	a3,s7
   144d4:	fa1ff06f          	j	14474 <_vfprintf_r+0xf48>
   144d8:	08c10613          	addi	a2,sp,140
   144dc:	00098593          	mv	a1,s3
   144e0:	000b0513          	mv	a0,s6
   144e4:	00d050ef          	jal	19cf0 <__sprint_r>
   144e8:	b8051263          	bnez	a0,1386c <_vfprintf_r+0x340>
   144ec:	09412603          	lw	a2,148(sp)
   144f0:	09012783          	lw	a5,144(sp)
   144f4:	000b8693          	mv	a3,s7
   144f8:	aa1ff06f          	j	13f98 <_vfprintf_r+0xa6c>
   144fc:	08c10613          	addi	a2,sp,140
   14500:	00098593          	mv	a1,s3
   14504:	000b0513          	mv	a0,s6
   14508:	7e8050ef          	jal	19cf0 <__sprint_r>
   1450c:	b6051063          	bnez	a0,1386c <_vfprintf_r+0x340>
   14510:	09412603          	lw	a2,148(sp)
   14514:	09012783          	lw	a5,144(sp)
   14518:	000b8693          	mv	a3,s7
   1451c:	ab1ff06f          	j	13fcc <_vfprintf_r+0xaa0>
   14520:	060107a3          	sb	zero,111(sp)
   14524:	9e0444e3          	bltz	s0,13f0c <_vfprintf_r+0x9e0>
   14528:	f7fafa93          	andi	s5,s5,-129
   1452c:	a2078c63          	beqz	a5,13764 <_vfprintf_r+0x238>
   14530:	00000813          	li	a6,0
   14534:	891ff06f          	j	13dc4 <_vfprintf_r+0x898>
   14538:	07412403          	lw	s0,116(sp)
   1453c:	46805063          	blez	s0,1499c <_vfprintf_r+0x1470>
   14540:	04412703          	lw	a4,68(sp)
   14544:	34e44a63          	blt	s0,a4,14898 <_vfprintf_r+0x136c>
   14548:	04412283          	lw	t0,68(sp)
   1454c:	00e60733          	add	a4,a2,a4
   14550:	00178793          	addi	a5,a5,1
   14554:	00700613          	li	a2,7
   14558:	0146a023          	sw	s4,0(a3)
   1455c:	0056a223          	sw	t0,4(a3)
   14560:	08e12a23          	sw	a4,148(sp)
   14564:	08f12823          	sw	a5,144(sp)
   14568:	00868693          	addi	a3,a3,8
   1456c:	6af64063          	blt	a2,a5,14c0c <_vfprintf_r+0x16e0>
   14570:	04412783          	lw	a5,68(sp)
   14574:	40f40433          	sub	s0,s0,a5
   14578:	3c805c63          	blez	s0,14950 <_vfprintf_r+0x1424>
   1457c:	01000a13          	li	s4,16
   14580:	09012783          	lw	a5,144(sp)
   14584:	03912623          	sw	s9,44(sp)
   14588:	388a5063          	ble	s0,s4,14908 <_vfprintf_r+0x13dc>
   1458c:	00700d13          	li	s10,7
   14590:	00c0006f          	j	1459c <_vfprintf_r+0x1070>
   14594:	ff040413          	addi	s0,s0,-16
   14598:	368a5863          	ble	s0,s4,14908 <_vfprintf_r+0x13dc>
   1459c:	01070713          	addi	a4,a4,16
   145a0:	00178793          	addi	a5,a5,1
   145a4:	0196a023          	sw	s9,0(a3)
   145a8:	0146a223          	sw	s4,4(a3)
   145ac:	08e12a23          	sw	a4,148(sp)
   145b0:	08f12823          	sw	a5,144(sp)
   145b4:	00868693          	addi	a3,a3,8
   145b8:	fcfd5ee3          	ble	a5,s10,14594 <_vfprintf_r+0x1068>
   145bc:	08c10613          	addi	a2,sp,140
   145c0:	00098593          	mv	a1,s3
   145c4:	000b0513          	mv	a0,s6
   145c8:	728050ef          	jal	19cf0 <__sprint_r>
   145cc:	aa051063          	bnez	a0,1386c <_vfprintf_r+0x340>
   145d0:	09412703          	lw	a4,148(sp)
   145d4:	09012783          	lw	a5,144(sp)
   145d8:	000b8693          	mv	a3,s7
   145dc:	fb9ff06f          	j	14594 <_vfprintf_r+0x1068>
   145e0:	040af793          	andi	a5,s5,64
   145e4:	03412283          	lw	t0,52(sp)
   145e8:	28078063          	beqz	a5,14868 <_vfprintf_r+0x133c>
   145ec:	00029783          	lh	a5,0(t0)
   145f0:	00428293          	addi	t0,t0,4
   145f4:	02512a23          	sw	t0,52(sp)
   145f8:	e14ff06f          	j	13c0c <_vfprintf_r+0x6e0>
   145fc:	fff28413          	addi	s0,t0,-1
   14600:	e6805ae3          	blez	s0,14474 <_vfprintf_r+0xf48>
   14604:	01000a13          	li	s4,16
   14608:	03912623          	sw	s9,44(sp)
   1460c:	0c8a5063          	ble	s0,s4,146cc <_vfprintf_r+0x11a0>
   14610:	00700d13          	li	s10,7
   14614:	00c0006f          	j	14620 <_vfprintf_r+0x10f4>
   14618:	ff040413          	addi	s0,s0,-16
   1461c:	0a8a5863          	ble	s0,s4,146cc <_vfprintf_r+0x11a0>
   14620:	01070713          	addi	a4,a4,16
   14624:	00178793          	addi	a5,a5,1
   14628:	0196a023          	sw	s9,0(a3)
   1462c:	0146a223          	sw	s4,4(a3)
   14630:	08e12a23          	sw	a4,148(sp)
   14634:	08f12823          	sw	a5,144(sp)
   14638:	00868693          	addi	a3,a3,8
   1463c:	fcfd5ee3          	ble	a5,s10,14618 <_vfprintf_r+0x10ec>
   14640:	08c10613          	addi	a2,sp,140
   14644:	00098593          	mv	a1,s3
   14648:	000b0513          	mv	a0,s6
   1464c:	6a4050ef          	jal	19cf0 <__sprint_r>
   14650:	a0051e63          	bnez	a0,1386c <_vfprintf_r+0x340>
   14654:	09412703          	lw	a4,148(sp)
   14658:	09012783          	lw	a5,144(sp)
   1465c:	000b8693          	mv	a3,s7
   14660:	fb9ff06f          	j	14618 <_vfprintf_r+0x10ec>
   14664:	0002a783          	lw	a5,0(t0)
   14668:	060107a3          	sb	zero,111(sp)
   1466c:	ce045c63          	bgez	s0,13b64 <_vfprintf_r+0x638>
   14670:	ee0ff06f          	j	13d50 <_vfprintf_r+0x824>
   14674:	08c10613          	addi	a2,sp,140
   14678:	00098593          	mv	a1,s3
   1467c:	000b0513          	mv	a0,s6
   14680:	670050ef          	jal	19cf0 <__sprint_r>
   14684:	9e051463          	bnez	a0,1386c <_vfprintf_r+0x340>
   14688:	09412703          	lw	a4,148(sp)
   1468c:	09012783          	lw	a5,144(sp)
   14690:	000b8693          	mv	a3,s7
   14694:	d71ff06f          	j	14404 <_vfprintf_r+0xed8>
   14698:	0002a783          	lw	a5,0(t0)
   1469c:	060107a3          	sb	zero,111(sp)
   146a0:	a6045063          	bgez	s0,13900 <_vfprintf_r+0x3d4>
   146a4:	e64ff06f          	j	13d08 <_vfprintf_r+0x7dc>
   146a8:	08c10613          	addi	a2,sp,140
   146ac:	00098593          	mv	a1,s3
   146b0:	000b0513          	mv	a0,s6
   146b4:	63c050ef          	jal	19cf0 <__sprint_r>
   146b8:	9a051a63          	bnez	a0,1386c <_vfprintf_r+0x340>
   146bc:	09412703          	lw	a4,148(sp)
   146c0:	09012783          	lw	a5,144(sp)
   146c4:	000b8693          	mv	a3,s7
   146c8:	d6dff06f          	j	14434 <_vfprintf_r+0xf08>
   146cc:	02c12283          	lw	t0,44(sp)
   146d0:	00870733          	add	a4,a4,s0
   146d4:	00178793          	addi	a5,a5,1
   146d8:	00700613          	li	a2,7
   146dc:	0056a023          	sw	t0,0(a3)
   146e0:	0086a223          	sw	s0,4(a3)
   146e4:	08e12a23          	sw	a4,148(sp)
   146e8:	08f12823          	sw	a5,144(sp)
   146ec:	d8f652e3          	ble	a5,a2,14470 <_vfprintf_r+0xf44>
   146f0:	dc5ff06f          	j	144b4 <_vfprintf_r+0xf88>
   146f4:	02d00713          	li	a4,45
   146f8:	40f007b3          	neg	a5,a5
   146fc:	06e107a3          	sb	a4,111(sp)
   14700:	4a044e63          	bltz	s0,14bbc <_vfprintf_r+0x1690>
   14704:	f7fafa93          	andi	s5,s5,-129
   14708:	02d00813          	li	a6,45
   1470c:	c68ff06f          	j	13b74 <_vfprintf_r+0x648>
   14710:	05013507          	fld	fa0,80(sp)
   14714:	00d12e23          	sw	a3,28(sp)
   14718:	31c050ef          	jal	19a34 <__fpclassifyd>
   1471c:	01c12683          	lw	a3,28(sp)
   14720:	36050063          	beqz	a0,14a80 <_vfprintf_r+0x1554>
   14724:	fff00793          	li	a5,-1
   14728:	fdfd7d93          	andi	s11,s10,-33
   1472c:	6cf40663          	beq	s0,a5,14df8 <_vfprintf_r+0x18cc>
   14730:	04700793          	li	a5,71
   14734:	66fd8463          	beq	s11,a5,14d9c <_vfprintf_r+0x1870>
   14738:	05412783          	lw	a5,84(sp)
   1473c:	100ae293          	ori	t0,s5,256
   14740:	02512623          	sw	t0,44(sp)
   14744:	05013407          	fld	fs0,80(sp)
   14748:	00000493          	li	s1,0
   1474c:	7007c263          	bltz	a5,14e50 <_vfprintf_r+0x1924>
   14750:	06600793          	li	a5,102
   14754:	6afd0663          	beq	s10,a5,14e00 <_vfprintf_r+0x18d4>
   14758:	04600793          	li	a5,70
   1475c:	72fd0063          	beq	s10,a5,14e7c <_vfprintf_r+0x1950>
   14760:	fbbd8593          	addi	a1,s11,-69
   14764:	0015b593          	seqz	a1,a1
   14768:	00b405b3          	add	a1,s0,a1
   1476c:	08410793          	addi	a5,sp,132
   14770:	22840653          	fmv.d	fa2,fs0
   14774:	00f12023          	sw	a5,0(sp)
   14778:	07810893          	addi	a7,sp,120
   1477c:	00058793          	mv	a5,a1
   14780:	07410813          	addi	a6,sp,116
   14784:	00200713          	li	a4,2
   14788:	000b0513          	mv	a0,s6
   1478c:	02b12023          	sw	a1,32(sp)
   14790:	00d12e23          	sw	a3,28(sp)
   14794:	05c010ef          	jal	157f0 <_dtoa_r>
   14798:	06700793          	li	a5,103
   1479c:	00050a13          	mv	s4,a0
   147a0:	02012583          	lw	a1,32(sp)
   147a4:	01c12683          	lw	a3,28(sp)
   147a8:	4afd0c63          	beq	s10,a5,14c60 <_vfprintf_r+0x1734>
   147ac:	04700793          	li	a5,71
   147b0:	00b50633          	add	a2,a0,a1
   147b4:	4cfd0863          	beq	s10,a5,14c84 <_vfprintf_r+0x1758>
   147b8:	d2000053          	fcvt.d.w	ft0,zero
   147bc:	00060793          	mv	a5,a2
   147c0:	a2042753          	feq.d	a4,fs0,ft0
   147c4:	02071263          	bnez	a4,147e8 <_vfprintf_r+0x12bc>
   147c8:	08412783          	lw	a5,132(sp)
   147cc:	00c7fe63          	bleu	a2,a5,147e8 <_vfprintf_r+0x12bc>
   147d0:	03000593          	li	a1,48
   147d4:	00178713          	addi	a4,a5,1
   147d8:	08e12223          	sw	a4,132(sp)
   147dc:	00b78023          	sb	a1,0(a5)
   147e0:	08412783          	lw	a5,132(sp)
   147e4:	fec7e8e3          	bltu	a5,a2,147d4 <_vfprintf_r+0x12a8>
   147e8:	414787b3          	sub	a5,a5,s4
   147ec:	04f12223          	sw	a5,68(sp)
   147f0:	04700793          	li	a5,71
   147f4:	4afd8463          	beq	s11,a5,14c9c <_vfprintf_r+0x1770>
   147f8:	06500793          	li	a5,101
   147fc:	07a7d6e3          	ble	s10,a5,15068 <_vfprintf_r+0x1b3c>
   14800:	06600793          	li	a5,102
   14804:	64fd0c63          	beq	s10,a5,14e5c <_vfprintf_r+0x1930>
   14808:	07412783          	lw	a5,116(sp)
   1480c:	02f12823          	sw	a5,48(sp)
   14810:	03012283          	lw	t0,48(sp)
   14814:	04412703          	lw	a4,68(sp)
   14818:	5ae2ce63          	blt	t0,a4,14dd4 <_vfprintf_r+0x18a8>
   1481c:	001afa93          	andi	s5,s5,1
   14820:	740a9863          	bnez	s5,14f70 <_vfprintf_r+0x1a44>
   14824:	00028793          	mv	a5,t0
   14828:	5c02c463          	bltz	t0,14df0 <_vfprintf_r+0x18c4>
   1482c:	02f12223          	sw	a5,36(sp)
   14830:	06700d13          	li	s10,103
   14834:	40048063          	beqz	s1,14c34 <_vfprintf_r+0x1708>
   14838:	02d00793          	li	a5,45
   1483c:	06f107a3          	sb	a5,111(sp)
   14840:	02c12a83          	lw	s5,44(sp)
   14844:	00000413          	li	s0,0
   14848:	92cff06f          	j	13974 <_vfprintf_r+0x448>
   1484c:	00728793          	addi	a5,t0,7
   14850:	ff87f793          	andi	a5,a5,-8
   14854:	0007b007          	fld	ft0,0(a5)
   14858:	00878793          	addi	a5,a5,8
   1485c:	02f12a23          	sw	a5,52(sp)
   14860:	04013827          	fsd	ft0,80(sp)
   14864:	c00ff06f          	j	13c64 <_vfprintf_r+0x738>
   14868:	0002a783          	lw	a5,0(t0)
   1486c:	00428293          	addi	t0,t0,4
   14870:	02512a23          	sw	t0,52(sp)
   14874:	b98ff06f          	j	13c0c <_vfprintf_r+0x6e0>
   14878:	0002a783          	lw	a5,0(t0)
   1487c:	00428293          	addi	t0,t0,4
   14880:	02512a23          	sw	t0,52(sp)
   14884:	d10ff06f          	j	13d94 <_vfprintf_r+0x868>
   14888:	060107a3          	sb	zero,111(sp)
   1488c:	e8044263          	bltz	s0,13f10 <_vfprintf_r+0x9e4>
   14890:	f7fafa93          	andi	s5,s5,-129
   14894:	ed1fe06f          	j	13764 <_vfprintf_r+0x238>
   14898:	00c40733          	add	a4,s0,a2
   1489c:	00178793          	addi	a5,a5,1
   148a0:	00700613          	li	a2,7
   148a4:	0146a023          	sw	s4,0(a3)
   148a8:	0086a223          	sw	s0,4(a3)
   148ac:	08e12a23          	sw	a4,148(sp)
   148b0:	08f12823          	sw	a5,144(sp)
   148b4:	00868693          	addi	a3,a3,8
   148b8:	42f64463          	blt	a2,a5,14ce0 <_vfprintf_r+0x17b4>
   148bc:	04c12283          	lw	t0,76(sp)
   148c0:	00178793          	addi	a5,a5,1
   148c4:	00700613          	li	a2,7
   148c8:	00570733          	add	a4,a4,t0
   148cc:	04012283          	lw	t0,64(sp)
   148d0:	008a0a33          	add	s4,s4,s0
   148d4:	08e12a23          	sw	a4,148(sp)
   148d8:	0056a023          	sw	t0,0(a3)
   148dc:	04c12283          	lw	t0,76(sp)
   148e0:	08f12823          	sw	a5,144(sp)
   148e4:	00868693          	addi	a3,a3,8
   148e8:	fe56ae23          	sw	t0,-4(a3)
   148ec:	3cf64463          	blt	a2,a5,14cb4 <_vfprintf_r+0x1788>
   148f0:	04412283          	lw	t0,68(sp)
   148f4:	00178793          	addi	a5,a5,1
   148f8:	0146a023          	sw	s4,0(a3)
   148fc:	40828433          	sub	s0,t0,s0
   14900:	00e40733          	add	a4,s0,a4
   14904:	8b9ff06f          	j	141bc <_vfprintf_r+0xc90>
   14908:	02c12283          	lw	t0,44(sp)
   1490c:	00870733          	add	a4,a4,s0
   14910:	00178793          	addi	a5,a5,1
   14914:	00700613          	li	a2,7
   14918:	0056a023          	sw	t0,0(a3)
   1491c:	0086a223          	sw	s0,4(a3)
   14920:	08e12a23          	sw	a4,148(sp)
   14924:	08f12823          	sw	a5,144(sp)
   14928:	00868693          	addi	a3,a3,8
   1492c:	02f65263          	ble	a5,a2,14950 <_vfprintf_r+0x1424>
   14930:	08c10613          	addi	a2,sp,140
   14934:	00098593          	mv	a1,s3
   14938:	000b0513          	mv	a0,s6
   1493c:	3b4050ef          	jal	19cf0 <__sprint_r>
   14940:	00050463          	beqz	a0,14948 <_vfprintf_r+0x141c>
   14944:	f29fe06f          	j	1386c <_vfprintf_r+0x340>
   14948:	09412703          	lw	a4,148(sp)
   1494c:	000b8693          	mv	a3,s7
   14950:	001af793          	andi	a5,s5,1
   14954:	f6078863          	beqz	a5,140c4 <_vfprintf_r+0xb98>
   14958:	04c12283          	lw	t0,76(sp)
   1495c:	09012783          	lw	a5,144(sp)
   14960:	00570733          	add	a4,a4,t0
   14964:	04012283          	lw	t0,64(sp)
   14968:	00178793          	addi	a5,a5,1
   1496c:	0056a023          	sw	t0,0(a3)
   14970:	04c12283          	lw	t0,76(sp)
   14974:	f38ff06f          	j	140ac <_vfprintf_r+0xb80>
   14978:	08c10613          	addi	a2,sp,140
   1497c:	00098593          	mv	a1,s3
   14980:	000b0513          	mv	a0,s6
   14984:	36c050ef          	jal	19cf0 <__sprint_r>
   14988:	00050463          	beqz	a0,14990 <_vfprintf_r+0x1464>
   1498c:	ee1fe06f          	j	1386c <_vfprintf_r+0x340>
   14990:	09412703          	lw	a4,148(sp)
   14994:	000b8693          	mv	a3,s7
   14998:	8a1ff06f          	j	14238 <_vfprintf_r+0xd0c>
   1499c:	00160713          	addi	a4,a2,1
   149a0:	0001c5b7          	lui	a1,0x1c
   149a4:	00100613          	li	a2,1
   149a8:	00c6a223          	sw	a2,4(a3)
   149ac:	00178793          	addi	a5,a5,1
   149b0:	31458593          	addi	a1,a1,788 # 1c314 <zeroes.3949+0x58>
   149b4:	00700613          	li	a2,7
   149b8:	00b6a023          	sw	a1,0(a3)
   149bc:	08e12a23          	sw	a4,148(sp)
   149c0:	08f12823          	sw	a5,144(sp)
   149c4:	00868693          	addi	a3,a3,8
   149c8:	10f64663          	blt	a2,a5,14ad4 <_vfprintf_r+0x15a8>
   149cc:	0e040a63          	beqz	s0,14ac0 <_vfprintf_r+0x1594>
   149d0:	04c12283          	lw	t0,76(sp)
   149d4:	09012783          	lw	a5,144(sp)
   149d8:	00700613          	li	a2,7
   149dc:	00570733          	add	a4,a4,t0
   149e0:	04012283          	lw	t0,64(sp)
   149e4:	00178793          	addi	a5,a5,1
   149e8:	08e12a23          	sw	a4,148(sp)
   149ec:	0056a023          	sw	t0,0(a3)
   149f0:	04c12283          	lw	t0,76(sp)
   149f4:	08f12823          	sw	a5,144(sp)
   149f8:	00868693          	addi	a3,a3,8
   149fc:	fe56ae23          	sw	t0,-4(a3)
   14a00:	3af64463          	blt	a2,a5,14da8 <_vfprintf_r+0x187c>
   14a04:	40800433          	neg	s0,s0
   14a08:	16805c63          	blez	s0,14b80 <_vfprintf_r+0x1654>
   14a0c:	01000d13          	li	s10,16
   14a10:	03912623          	sw	s9,44(sp)
   14a14:	128d5063          	ble	s0,s10,14b34 <_vfprintf_r+0x1608>
   14a18:	00700813          	li	a6,7
   14a1c:	00c0006f          	j	14a28 <_vfprintf_r+0x14fc>
   14a20:	ff040413          	addi	s0,s0,-16
   14a24:	108d5863          	ble	s0,s10,14b34 <_vfprintf_r+0x1608>
   14a28:	01070713          	addi	a4,a4,16
   14a2c:	00178793          	addi	a5,a5,1
   14a30:	0196a023          	sw	s9,0(a3)
   14a34:	01a6a223          	sw	s10,4(a3)
   14a38:	08e12a23          	sw	a4,148(sp)
   14a3c:	08f12823          	sw	a5,144(sp)
   14a40:	00868693          	addi	a3,a3,8
   14a44:	fcf85ee3          	ble	a5,a6,14a20 <_vfprintf_r+0x14f4>
   14a48:	08c10613          	addi	a2,sp,140
   14a4c:	00098593          	mv	a1,s3
   14a50:	000b0513          	mv	a0,s6
   14a54:	03012023          	sw	a6,32(sp)
   14a58:	298050ef          	jal	19cf0 <__sprint_r>
   14a5c:	02012803          	lw	a6,32(sp)
   14a60:	00050463          	beqz	a0,14a68 <_vfprintf_r+0x153c>
   14a64:	e09fe06f          	j	1386c <_vfprintf_r+0x340>
   14a68:	09412703          	lw	a4,148(sp)
   14a6c:	09012783          	lw	a5,144(sp)
   14a70:	000b8693          	mv	a3,s7
   14a74:	fadff06f          	j	14a20 <_vfprintf_r+0x14f4>
   14a78:	fff00513          	li	a0,-1
   14a7c:	e05fe06f          	j	13880 <_vfprintf_r+0x354>
   14a80:	04700793          	li	a5,71
   14a84:	1da7c063          	blt	a5,s10,14c44 <_vfprintf_r+0x1718>
   14a88:	0001ca37          	lui	s4,0x1c
   14a8c:	2dca0a13          	addi	s4,s4,732 # 1c2dc <zeroes.3949+0x20>
   14a90:	00300713          	li	a4,3
   14a94:	02e12223          	sw	a4,36(sp)
   14a98:	f7fafa93          	andi	s5,s5,-129
   14a9c:	06f14803          	lbu	a6,111(sp)
   14aa0:	02e12823          	sw	a4,48(sp)
   14aa4:	00000413          	li	s0,0
   14aa8:	ec9fe06f          	j	13970 <_vfprintf_r+0x444>
   14aac:	02a12823          	sw	a0,48(sp)
   14ab0:	86cff06f          	j	13b1c <_vfprintf_r+0x5f0>
   14ab4:	0001ca37          	lui	s4,0x1c
   14ab8:	2d4a0a13          	addi	s4,s4,724 # 1c2d4 <zeroes.3949+0x18>
   14abc:	9e8ff06f          	j	13ca4 <_vfprintf_r+0x778>
   14ac0:	04412783          	lw	a5,68(sp)
   14ac4:	f00796e3          	bnez	a5,149d0 <_vfprintf_r+0x14a4>
   14ac8:	001af793          	andi	a5,s5,1
   14acc:	de078c63          	beqz	a5,140c4 <_vfprintf_r+0xb98>
   14ad0:	f01ff06f          	j	149d0 <_vfprintf_r+0x14a4>
   14ad4:	08c10613          	addi	a2,sp,140
   14ad8:	00098593          	mv	a1,s3
   14adc:	000b0513          	mv	a0,s6
   14ae0:	210050ef          	jal	19cf0 <__sprint_r>
   14ae4:	00050463          	beqz	a0,14aec <_vfprintf_r+0x15c0>
   14ae8:	d85fe06f          	j	1386c <_vfprintf_r+0x340>
   14aec:	07412403          	lw	s0,116(sp)
   14af0:	09412703          	lw	a4,148(sp)
   14af4:	000b8693          	mv	a3,s7
   14af8:	ec041ce3          	bnez	s0,149d0 <_vfprintf_r+0x14a4>
   14afc:	fc5ff06f          	j	14ac0 <_vfprintf_r+0x1594>
   14b00:	0c010893          	addi	a7,sp,192
   14b04:	00000793          	li	a5,0
   14b08:	00088613          	mv	a2,a7
   14b0c:	894ff06f          	j	13ba0 <_vfprintf_r+0x674>
   14b10:	08c10613          	addi	a2,sp,140
   14b14:	00098593          	mv	a1,s3
   14b18:	000b0513          	mv	a0,s6
   14b1c:	1d4050ef          	jal	19cf0 <__sprint_r>
   14b20:	00050463          	beqz	a0,14b28 <_vfprintf_r+0x15fc>
   14b24:	d49fe06f          	j	1386c <_vfprintf_r+0x340>
   14b28:	09412703          	lw	a4,148(sp)
   14b2c:	000b8693          	mv	a3,s7
   14b30:	f50ff06f          	j	14280 <_vfprintf_r+0xd54>
   14b34:	02c12283          	lw	t0,44(sp)
   14b38:	00870733          	add	a4,a4,s0
   14b3c:	00178793          	addi	a5,a5,1
   14b40:	00700613          	li	a2,7
   14b44:	0056a023          	sw	t0,0(a3)
   14b48:	0086a223          	sw	s0,4(a3)
   14b4c:	08e12a23          	sw	a4,148(sp)
   14b50:	08f12823          	sw	a5,144(sp)
   14b54:	00868693          	addi	a3,a3,8
   14b58:	02f65463          	ble	a5,a2,14b80 <_vfprintf_r+0x1654>
   14b5c:	08c10613          	addi	a2,sp,140
   14b60:	00098593          	mv	a1,s3
   14b64:	000b0513          	mv	a0,s6
   14b68:	188050ef          	jal	19cf0 <__sprint_r>
   14b6c:	00050463          	beqz	a0,14b74 <_vfprintf_r+0x1648>
   14b70:	cfdfe06f          	j	1386c <_vfprintf_r+0x340>
   14b74:	09412703          	lw	a4,148(sp)
   14b78:	09012783          	lw	a5,144(sp)
   14b7c:	000b8693          	mv	a3,s7
   14b80:	04412283          	lw	t0,68(sp)
   14b84:	00178793          	addi	a5,a5,1
   14b88:	0146a023          	sw	s4,0(a3)
   14b8c:	00e28733          	add	a4,t0,a4
   14b90:	d1cff06f          	j	140ac <_vfprintf_r+0xb80>
   14b94:	000a0513          	mv	a0,s4
   14b98:	00d12e23          	sw	a3,28(sp)
   14b9c:	901fe0ef          	jal	1349c <strlen>
   14ba0:	02a12823          	sw	a0,48(sp)
   14ba4:	01c12683          	lw	a3,28(sp)
   14ba8:	00050793          	mv	a5,a0
   14bac:	00054463          	bltz	a0,14bb4 <_vfprintf_r+0x1688>
   14bb0:	f79fe06f          	j	13b28 <_vfprintf_r+0x5fc>
   14bb4:	00000793          	li	a5,0
   14bb8:	f71fe06f          	j	13b28 <_vfprintf_r+0x5fc>
   14bbc:	02d00813          	li	a6,45
   14bc0:	00100713          	li	a4,1
   14bc4:	00100613          	li	a2,1
   14bc8:	00c71463          	bne	a4,a2,14bd0 <_vfprintf_r+0x16a4>
   14bcc:	fa9fe06f          	j	13b74 <_vfprintf_r+0x648>
   14bd0:	00200613          	li	a2,2
   14bd4:	9ec70863          	beq	a4,a2,13dc4 <_vfprintf_r+0x898>
   14bd8:	d45fe06f          	j	1391c <_vfprintf_r+0x3f0>
   14bdc:	00600793          	li	a5,6
   14be0:	0087f463          	bleu	s0,a5,14be8 <_vfprintf_r+0x16bc>
   14be4:	00078413          	mv	s0,a5
   14be8:	02812823          	sw	s0,48(sp)
   14bec:	00040793          	mv	a5,s0
   14bf0:	34044c63          	bltz	s0,14f48 <_vfprintf_r+0x1a1c>
   14bf4:	0001ca37          	lui	s4,0x1c
   14bf8:	02f12223          	sw	a5,36(sp)
   14bfc:	02912a23          	sw	s1,52(sp)
   14c00:	30ca0a13          	addi	s4,s4,780 # 1c30c <zeroes.3949+0x50>
   14c04:	00000413          	li	s0,0
   14c08:	d79fe06f          	j	13980 <_vfprintf_r+0x454>
   14c0c:	08c10613          	addi	a2,sp,140
   14c10:	00098593          	mv	a1,s3
   14c14:	000b0513          	mv	a0,s6
   14c18:	0d8050ef          	jal	19cf0 <__sprint_r>
   14c1c:	00050463          	beqz	a0,14c24 <_vfprintf_r+0x16f8>
   14c20:	c4dfe06f          	j	1386c <_vfprintf_r+0x340>
   14c24:	07412403          	lw	s0,116(sp)
   14c28:	09412703          	lw	a4,148(sp)
   14c2c:	000b8693          	mv	a3,s7
   14c30:	941ff06f          	j	14570 <_vfprintf_r+0x1044>
   14c34:	06f14803          	lbu	a6,111(sp)
   14c38:	02c12a83          	lw	s5,44(sp)
   14c3c:	00000413          	li	s0,0
   14c40:	d31fe06f          	j	13970 <_vfprintf_r+0x444>
   14c44:	0001ca37          	lui	s4,0x1c
   14c48:	2e0a0a13          	addi	s4,s4,736 # 1c2e0 <zeroes.3949+0x24>
   14c4c:	e45ff06f          	j	14a90 <_vfprintf_r+0x1564>
   14c50:	02d00793          	li	a5,45
   14c54:	06f107a3          	sb	a5,111(sp)
   14c58:	02d00813          	li	a6,45
   14c5c:	838ff06f          	j	13c94 <_vfprintf_r+0x768>
   14c60:	001af793          	andi	a5,s5,1
   14c64:	00b50633          	add	a2,a0,a1
   14c68:	b40798e3          	bnez	a5,147b8 <_vfprintf_r+0x128c>
   14c6c:	08412783          	lw	a5,132(sp)
   14c70:	b79ff06f          	j	147e8 <_vfprintf_r+0x12bc>
   14c74:	00070a93          	mv	s5,a4
   14c78:	00000813          	li	a6,0
   14c7c:	00200713          	li	a4,2
   14c80:	f45ff06f          	j	14bc4 <_vfprintf_r+0x1698>
   14c84:	001af793          	andi	a5,s5,1
   14c88:	22079463          	bnez	a5,14eb0 <_vfprintf_r+0x1984>
   14c8c:	08412783          	lw	a5,132(sp)
   14c90:	414787b3          	sub	a5,a5,s4
   14c94:	04f12223          	sw	a5,68(sp)
   14c98:	3dad9863          	bne	s11,s10,15068 <_vfprintf_r+0x1b3c>
   14c9c:	07412783          	lw	a5,116(sp)
   14ca0:	ffd00713          	li	a4,-3
   14ca4:	06e7c463          	blt	a5,a4,14d0c <_vfprintf_r+0x17e0>
   14ca8:	06f44263          	blt	s0,a5,14d0c <_vfprintf_r+0x17e0>
   14cac:	02f12823          	sw	a5,48(sp)
   14cb0:	b61ff06f          	j	14810 <_vfprintf_r+0x12e4>
   14cb4:	08c10613          	addi	a2,sp,140
   14cb8:	00098593          	mv	a1,s3
   14cbc:	000b0513          	mv	a0,s6
   14cc0:	030050ef          	jal	19cf0 <__sprint_r>
   14cc4:	00050463          	beqz	a0,14ccc <_vfprintf_r+0x17a0>
   14cc8:	ba5fe06f          	j	1386c <_vfprintf_r+0x340>
   14ccc:	07412403          	lw	s0,116(sp)
   14cd0:	09412703          	lw	a4,148(sp)
   14cd4:	09012783          	lw	a5,144(sp)
   14cd8:	000b8693          	mv	a3,s7
   14cdc:	c15ff06f          	j	148f0 <_vfprintf_r+0x13c4>
   14ce0:	08c10613          	addi	a2,sp,140
   14ce4:	00098593          	mv	a1,s3
   14ce8:	000b0513          	mv	a0,s6
   14cec:	004050ef          	jal	19cf0 <__sprint_r>
   14cf0:	00050463          	beqz	a0,14cf8 <_vfprintf_r+0x17cc>
   14cf4:	b79fe06f          	j	1386c <_vfprintf_r+0x340>
   14cf8:	07412403          	lw	s0,116(sp)
   14cfc:	09412703          	lw	a4,148(sp)
   14d00:	09012783          	lw	a5,144(sp)
   14d04:	000b8693          	mv	a3,s7
   14d08:	bb5ff06f          	j	148bc <_vfprintf_r+0x1390>
   14d0c:	ffed0d13          	addi	s10,s10,-2
   14d10:	fff78793          	addi	a5,a5,-1
   14d14:	06f12a23          	sw	a5,116(sp)
   14d18:	07a10e23          	sb	s10,124(sp)
   14d1c:	2a07ce63          	bltz	a5,14fd8 <_vfprintf_r+0x1aac>
   14d20:	02b00713          	li	a4,43
   14d24:	06e10ea3          	sb	a4,125(sp)
   14d28:	00900593          	li	a1,9
   14d2c:	18f5ca63          	blt	a1,a5,14ec0 <_vfprintf_r+0x1994>
   14d30:	03000713          	li	a4,48
   14d34:	03078793          	addi	a5,a5,48
   14d38:	06e10f23          	sb	a4,126(sp)
   14d3c:	06f10fa3          	sb	a5,127(sp)
   14d40:	08010713          	addi	a4,sp,128
   14d44:	07c10793          	addi	a5,sp,124
   14d48:	40f707b3          	sub	a5,a4,a5
   14d4c:	04412703          	lw	a4,68(sp)
   14d50:	04412283          	lw	t0,68(sp)
   14d54:	04f12e23          	sw	a5,92(sp)
   14d58:	00e78733          	add	a4,a5,a4
   14d5c:	00100793          	li	a5,1
   14d60:	02e12823          	sw	a4,48(sp)
   14d64:	2657d063          	ble	t0,a5,14fc4 <_vfprintf_r+0x1a98>
   14d68:	03012703          	lw	a4,48(sp)
   14d6c:	00170713          	addi	a4,a4,1
   14d70:	02e12823          	sw	a4,48(sp)
   14d74:	00070793          	mv	a5,a4
   14d78:	1e074863          	bltz	a4,14f68 <_vfprintf_r+0x1a3c>
   14d7c:	02f12223          	sw	a5,36(sp)
   14d80:	ab5ff06f          	j	14834 <_vfprintf_r+0x1308>
   14d84:	02812223          	sw	s0,36(sp)
   14d88:	02812823          	sw	s0,48(sp)
   14d8c:	06f14803          	lbu	a6,111(sp)
   14d90:	02912a23          	sw	s1,52(sp)
   14d94:	00000413          	li	s0,0
   14d98:	bd9fe06f          	j	13970 <_vfprintf_r+0x444>
   14d9c:	98041ee3          	bnez	s0,14738 <_vfprintf_r+0x120c>
   14da0:	000a0413          	mv	s0,s4
   14da4:	995ff06f          	j	14738 <_vfprintf_r+0x120c>
   14da8:	08c10613          	addi	a2,sp,140
   14dac:	00098593          	mv	a1,s3
   14db0:	000b0513          	mv	a0,s6
   14db4:	73d040ef          	jal	19cf0 <__sprint_r>
   14db8:	00050463          	beqz	a0,14dc0 <_vfprintf_r+0x1894>
   14dbc:	ab1fe06f          	j	1386c <_vfprintf_r+0x340>
   14dc0:	07412403          	lw	s0,116(sp)
   14dc4:	09412703          	lw	a4,148(sp)
   14dc8:	09012783          	lw	a5,144(sp)
   14dcc:	000b8693          	mv	a3,s7
   14dd0:	c35ff06f          	j	14a04 <_vfprintf_r+0x14d8>
   14dd4:	03012283          	lw	t0,48(sp)
   14dd8:	00100793          	li	a5,1
   14ddc:	1a505663          	blez	t0,14f88 <_vfprintf_r+0x1a5c>
   14de0:	04412703          	lw	a4,68(sp)
   14de4:	00e787b3          	add	a5,a5,a4
   14de8:	02f12823          	sw	a5,48(sp)
   14dec:	a407d0e3          	bgez	a5,1482c <_vfprintf_r+0x1300>
   14df0:	00000793          	li	a5,0
   14df4:	a39ff06f          	j	1482c <_vfprintf_r+0x1300>
   14df8:	00600413          	li	s0,6
   14dfc:	93dff06f          	j	14738 <_vfprintf_r+0x120c>
   14e00:	08410793          	addi	a5,sp,132
   14e04:	22840653          	fmv.d	fa2,fs0
   14e08:	00f12023          	sw	a5,0(sp)
   14e0c:	07810893          	addi	a7,sp,120
   14e10:	07410813          	addi	a6,sp,116
   14e14:	00040793          	mv	a5,s0
   14e18:	00300713          	li	a4,3
   14e1c:	000b0513          	mv	a0,s6
   14e20:	00d12e23          	sw	a3,28(sp)
   14e24:	1cd000ef          	jal	157f0 <_dtoa_r>
   14e28:	01c12683          	lw	a3,28(sp)
   14e2c:	00050a13          	mv	s4,a0
   14e30:	00850633          	add	a2,a0,s0
   14e34:	00040593          	mv	a1,s0
   14e38:	000a4703          	lbu	a4,0(s4)
   14e3c:	03000793          	li	a5,48
   14e40:	0ef70463          	beq	a4,a5,14f28 <_vfprintf_r+0x19fc>
   14e44:	07412583          	lw	a1,116(sp)
   14e48:	00b60633          	add	a2,a2,a1
   14e4c:	96dff06f          	j	147b8 <_vfprintf_r+0x128c>
   14e50:	22841453          	fneg.d	fs0,fs0
   14e54:	02d00493          	li	s1,45
   14e58:	8f9ff06f          	j	14750 <_vfprintf_r+0x1224>
   14e5c:	07412283          	lw	t0,116(sp)
   14e60:	02512823          	sw	t0,48(sp)
   14e64:	12505863          	blez	t0,14f94 <_vfprintf_r+0x1a68>
   14e68:	0e041463          	bnez	s0,14f50 <_vfprintf_r+0x1a24>
   14e6c:	001afa93          	andi	s5,s5,1
   14e70:	0e0a9063          	bnez	s5,14f50 <_vfprintf_r+0x1a24>
   14e74:	02512223          	sw	t0,36(sp)
   14e78:	9bdff06f          	j	14834 <_vfprintf_r+0x1308>
   14e7c:	08410793          	addi	a5,sp,132
   14e80:	22840653          	fmv.d	fa2,fs0
   14e84:	00f12023          	sw	a5,0(sp)
   14e88:	07810893          	addi	a7,sp,120
   14e8c:	07410813          	addi	a6,sp,116
   14e90:	00040793          	mv	a5,s0
   14e94:	00300713          	li	a4,3
   14e98:	000b0513          	mv	a0,s6
   14e9c:	00d12e23          	sw	a3,28(sp)
   14ea0:	151000ef          	jal	157f0 <_dtoa_r>
   14ea4:	01c12683          	lw	a3,28(sp)
   14ea8:	00050a13          	mv	s4,a0
   14eac:	00040593          	mv	a1,s0
   14eb0:	04600793          	li	a5,70
   14eb4:	00ba0633          	add	a2,s4,a1
   14eb8:	f8fd00e3          	beq	s10,a5,14e38 <_vfprintf_r+0x190c>
   14ebc:	8fdff06f          	j	147b8 <_vfprintf_r+0x128c>
   14ec0:	08b10513          	addi	a0,sp,139
   14ec4:	00050713          	mv	a4,a0
   14ec8:	00a00813          	li	a6,10
   14ecc:	0307e633          	rem	a2,a5,a6
   14ed0:	fff70713          	addi	a4,a4,-1
   14ed4:	0307c7b3          	div	a5,a5,a6
   14ed8:	03060613          	addi	a2,a2,48
   14edc:	00c70023          	sb	a2,0(a4)
   14ee0:	fef5c6e3          	blt	a1,a5,14ecc <_vfprintf_r+0x19a0>
   14ee4:	03078793          	addi	a5,a5,48
   14ee8:	0ff7f793          	andi	a5,a5,255
   14eec:	fff70613          	addi	a2,a4,-1
   14ef0:	fef70fa3          	sb	a5,-1(a4)
   14ef4:	10a67a63          	bleu	a0,a2,15008 <_vfprintf_r+0x1adc>
   14ef8:	07e10593          	addi	a1,sp,126
   14efc:	0080006f          	j	14f04 <_vfprintf_r+0x19d8>
   14f00:	00064783          	lbu	a5,0(a2)
   14f04:	00158593          	addi	a1,a1,1
   14f08:	00160613          	addi	a2,a2,1
   14f0c:	fef58fa3          	sb	a5,-1(a1)
   14f10:	fea618e3          	bne	a2,a0,14f00 <_vfprintf_r+0x19d4>
   14f14:	08c10793          	addi	a5,sp,140
   14f18:	40e78733          	sub	a4,a5,a4
   14f1c:	07e10593          	addi	a1,sp,126
   14f20:	00e58733          	add	a4,a1,a4
   14f24:	e21ff06f          	j	14d44 <_vfprintf_r+0x1818>
   14f28:	d2000053          	fcvt.d.w	ft0,zero
   14f2c:	a20427d3          	feq.d	a5,fs0,ft0
   14f30:	f0079ae3          	bnez	a5,14e44 <_vfprintf_r+0x1918>
   14f34:	00100793          	li	a5,1
   14f38:	40b785b3          	sub	a1,a5,a1
   14f3c:	06b12a23          	sw	a1,116(sp)
   14f40:	00b60633          	add	a2,a2,a1
   14f44:	875ff06f          	j	147b8 <_vfprintf_r+0x128c>
   14f48:	00000793          	li	a5,0
   14f4c:	ca9ff06f          	j	14bf4 <_vfprintf_r+0x16c8>
   14f50:	03012703          	lw	a4,48(sp)
   14f54:	00140413          	addi	s0,s0,1
   14f58:	00870733          	add	a4,a4,s0
   14f5c:	02e12823          	sw	a4,48(sp)
   14f60:	00070793          	mv	a5,a4
   14f64:	e0075ce3          	bgez	a4,14d7c <_vfprintf_r+0x1850>
   14f68:	00000793          	li	a5,0
   14f6c:	e11ff06f          	j	14d7c <_vfprintf_r+0x1850>
   14f70:	03012783          	lw	a5,48(sp)
   14f74:	00178793          	addi	a5,a5,1
   14f78:	02f12823          	sw	a5,48(sp)
   14f7c:	8a07d8e3          	bgez	a5,1482c <_vfprintf_r+0x1300>
   14f80:	00000793          	li	a5,0
   14f84:	8a9ff06f          	j	1482c <_vfprintf_r+0x1300>
   14f88:	00200793          	li	a5,2
   14f8c:	405787b3          	sub	a5,a5,t0
   14f90:	e51ff06f          	j	14de0 <_vfprintf_r+0x18b4>
   14f94:	00041c63          	bnez	s0,14fac <_vfprintf_r+0x1a80>
   14f98:	00100793          	li	a5,1
   14f9c:	00fafab3          	and	s5,s5,a5
   14fa0:	02f12223          	sw	a5,36(sp)
   14fa4:	02f12823          	sw	a5,48(sp)
   14fa8:	880a86e3          	beqz	s5,14834 <_vfprintf_r+0x1308>
   14fac:	00240413          	addi	s0,s0,2
   14fb0:	02812823          	sw	s0,48(sp)
   14fb4:	00040793          	mv	a5,s0
   14fb8:	dc0452e3          	bgez	s0,14d7c <_vfprintf_r+0x1850>
   14fbc:	00000793          	li	a5,0
   14fc0:	dbdff06f          	j	14d7c <_vfprintf_r+0x1850>
   14fc4:	00fafab3          	and	s5,s5,a5
   14fc8:	f80a8ce3          	beqz	s5,14f60 <_vfprintf_r+0x1a34>
   14fcc:	d9dff06f          	j	14d68 <_vfprintf_r+0x183c>
   14fd0:	fff00413          	li	s0,-1
   14fd4:	845fe06f          	j	13818 <_vfprintf_r+0x2ec>
   14fd8:	02d00713          	li	a4,45
   14fdc:	40f007b3          	neg	a5,a5
   14fe0:	06e10ea3          	sb	a4,125(sp)
   14fe4:	d45ff06f          	j	14d28 <_vfprintf_r+0x17fc>
   14fe8:	03412283          	lw	t0,52(sp)
   14fec:	0002a403          	lw	s0,0(t0)
   14ff0:	00428793          	addi	a5,t0,4
   14ff4:	02f12a23          	sw	a5,52(sp)
   14ff8:	00044463          	bltz	s0,15000 <_vfprintf_r+0x1ad4>
   14ffc:	eccfe06f          	j	136c8 <_vfprintf_r+0x19c>
   15000:	fff00413          	li	s0,-1
   15004:	ec4fe06f          	j	136c8 <_vfprintf_r+0x19c>
   15008:	07e10713          	addi	a4,sp,126
   1500c:	d39ff06f          	j	14d44 <_vfprintf_r+0x1818>
   15010:	001af793          	andi	a5,s5,1
   15014:	00040813          	mv	a6,s0
   15018:	00078e63          	beqz	a5,15034 <_vfprintf_r+0x1b08>
   1501c:	03000793          	li	a5,48
   15020:	00100713          	li	a4,1
   15024:	0af10fa3          	sb	a5,191(sp)
   15028:	02e12823          	sw	a4,48(sp)
   1502c:	0bf10a13          	addi	s4,sp,191
   15030:	931fe06f          	j	13960 <_vfprintf_r+0x434>
   15034:	02012823          	sw	zero,48(sp)
   15038:	0c010a13          	addi	s4,sp,192
   1503c:	925fe06f          	j	13960 <_vfprintf_r+0x434>
   15040:	06a107a3          	sb	a0,111(sp)
   15044:	8a1fe06f          	j	138e4 <_vfprintf_r+0x3b8>
   15048:	00000793          	li	a5,0
   1504c:	d79fe06f          	j	13dc4 <_vfprintf_r+0x898>
   15050:	06a107a3          	sb	a0,111(sp)
   15054:	d1dfe06f          	j	13d70 <_vfprintf_r+0x844>
   15058:	06a107a3          	sb	a0,111(sp)
   1505c:	e75fe06f          	j	13ed0 <_vfprintf_r+0x9a4>
   15060:	06a107a3          	sb	a0,111(sp)
   15064:	de5fe06f          	j	13e48 <_vfprintf_r+0x91c>
   15068:	07412783          	lw	a5,116(sp)
   1506c:	ca5ff06f          	j	14d10 <_vfprintf_r+0x17e4>
   15070:	06a107a3          	sb	a0,111(sp)
   15074:	bcdfe06f          	j	13c40 <_vfprintf_r+0x714>
   15078:	06a107a3          	sb	a0,111(sp)
   1507c:	b75fe06f          	j	13bf0 <_vfprintf_r+0x6c4>
   15080:	06a107a3          	sb	a0,111(sp)
   15084:	ac5fe06f          	j	13b48 <_vfprintf_r+0x61c>
   15088:	06a107a3          	sb	a0,111(sp)
   1508c:	010aea93          	ori	s5,s5,16
   15090:	c9dfe06f          	j	13d2c <_vfprintf_r+0x800>
   15094:	06a107a3          	sb	a0,111(sp)
   15098:	010aea93          	ori	s5,s5,16
   1509c:	c49fe06f          	j	13ce4 <_vfprintf_r+0x7b8>
   150a0:	06a107a3          	sb	a0,111(sp)
   150a4:	dddfe06f          	j	13e80 <_vfprintf_r+0x954>

000150a8 <vfprintf>:
   150a8:	00060693          	mv	a3,a2
   150ac:	00058613          	mv	a2,a1
   150b0:	00050593          	mv	a1,a0
   150b4:	8081a503          	lw	a0,-2040(gp) # 1de78 <_impure_ptr>
   150b8:	c74fe06f          	j	1352c <_vfprintf_r>

000150bc <__swbuf_r>:
   150bc:	fe010113          	addi	sp,sp,-32
   150c0:	00812c23          	sw	s0,24(sp)
   150c4:	00912a23          	sw	s1,20(sp)
   150c8:	01312623          	sw	s3,12(sp)
   150cc:	00112e23          	sw	ra,28(sp)
   150d0:	01212823          	sw	s2,16(sp)
   150d4:	00050493          	mv	s1,a0
   150d8:	00058993          	mv	s3,a1
   150dc:	00060413          	mv	s0,a2
   150e0:	00050663          	beqz	a0,150ec <__swbuf_r+0x30>
   150e4:	03852783          	lw	a5,56(a0)
   150e8:	12078263          	beqz	a5,1520c <__swbuf_r+0x150>
   150ec:	00c41683          	lh	a3,12(s0)
   150f0:	01842603          	lw	a2,24(s0)
   150f4:	01069713          	slli	a4,a3,0x10
   150f8:	01075713          	srli	a4,a4,0x10
   150fc:	00877793          	andi	a5,a4,8
   15100:	00c42423          	sw	a2,8(s0)
   15104:	0e078263          	beqz	a5,151e8 <__swbuf_r+0x12c>
   15108:	01042783          	lw	a5,16(s0)
   1510c:	0c078e63          	beqz	a5,151e8 <__swbuf_r+0x12c>
   15110:	01271613          	slli	a2,a4,0x12
   15114:	0ff9f913          	andi	s2,s3,255
   15118:	06065663          	bgez	a2,15184 <__swbuf_r+0xc8>
   1511c:	00042703          	lw	a4,0(s0)
   15120:	01442683          	lw	a3,20(s0)
   15124:	40f707b3          	sub	a5,a4,a5
   15128:	08d7d663          	ble	a3,a5,151b4 <__swbuf_r+0xf8>
   1512c:	00178793          	addi	a5,a5,1
   15130:	00842683          	lw	a3,8(s0)
   15134:	00170613          	addi	a2,a4,1
   15138:	00c42023          	sw	a2,0(s0)
   1513c:	fff68693          	addi	a3,a3,-1
   15140:	00d42423          	sw	a3,8(s0)
   15144:	01370023          	sb	s3,0(a4)
   15148:	01442703          	lw	a4,20(s0)
   1514c:	08f70263          	beq	a4,a5,151d0 <__swbuf_r+0x114>
   15150:	00c45783          	lhu	a5,12(s0)
   15154:	00090513          	mv	a0,s2
   15158:	0017f793          	andi	a5,a5,1
   1515c:	00078663          	beqz	a5,15168 <__swbuf_r+0xac>
   15160:	00a00793          	li	a5,10
   15164:	06f90663          	beq	s2,a5,151d0 <__swbuf_r+0x114>
   15168:	01c12083          	lw	ra,28(sp)
   1516c:	01812403          	lw	s0,24(sp)
   15170:	01412483          	lw	s1,20(sp)
   15174:	01012903          	lw	s2,16(sp)
   15178:	00c12983          	lw	s3,12(sp)
   1517c:	02010113          	addi	sp,sp,32
   15180:	00008067          	ret
   15184:	06442583          	lw	a1,100(s0)
   15188:	ffffe737          	lui	a4,0xffffe
   1518c:	fff70713          	addi	a4,a4,-1 # ffffdfff <_end+0xfffdd88f>
   15190:	00e5f733          	and	a4,a1,a4
   15194:	00002637          	lui	a2,0x2
   15198:	00c6e6b3          	or	a3,a3,a2
   1519c:	06e42223          	sw	a4,100(s0)
   151a0:	00042703          	lw	a4,0(s0)
   151a4:	00d41623          	sh	a3,12(s0)
   151a8:	01442683          	lw	a3,20(s0)
   151ac:	40f707b3          	sub	a5,a4,a5
   151b0:	f6d7cee3          	blt	a5,a3,1512c <__swbuf_r+0x70>
   151b4:	00040593          	mv	a1,s0
   151b8:	00048513          	mv	a0,s1
   151bc:	698010ef          	jal	16854 <_fflush_r>
   151c0:	04051a63          	bnez	a0,15214 <__swbuf_r+0x158>
   151c4:	00042703          	lw	a4,0(s0)
   151c8:	00100793          	li	a5,1
   151cc:	f65ff06f          	j	15130 <__swbuf_r+0x74>
   151d0:	00040593          	mv	a1,s0
   151d4:	00048513          	mv	a0,s1
   151d8:	67c010ef          	jal	16854 <_fflush_r>
   151dc:	02051c63          	bnez	a0,15214 <__swbuf_r+0x158>
   151e0:	00090513          	mv	a0,s2
   151e4:	f85ff06f          	j	15168 <__swbuf_r+0xac>
   151e8:	00040593          	mv	a1,s0
   151ec:	00048513          	mv	a0,s1
   151f0:	058000ef          	jal	15248 <__swsetup_r>
   151f4:	02051463          	bnez	a0,1521c <__swbuf_r+0x160>
   151f8:	00c41683          	lh	a3,12(s0)
   151fc:	01042783          	lw	a5,16(s0)
   15200:	01069713          	slli	a4,a3,0x10
   15204:	01075713          	srli	a4,a4,0x10
   15208:	f09ff06f          	j	15110 <__swbuf_r+0x54>
   1520c:	439010ef          	jal	16e44 <__sinit>
   15210:	eddff06f          	j	150ec <__swbuf_r+0x30>
   15214:	fff00513          	li	a0,-1
   15218:	f51ff06f          	j	15168 <__swbuf_r+0xac>
   1521c:	00c45783          	lhu	a5,12(s0)
   15220:	fff00513          	li	a0,-1
   15224:	0407e793          	ori	a5,a5,64
   15228:	00f41623          	sh	a5,12(s0)
   1522c:	00900793          	li	a5,9
   15230:	00f4a023          	sw	a5,0(s1)
   15234:	f35ff06f          	j	15168 <__swbuf_r+0xac>

00015238 <__swbuf>:
   15238:	00058613          	mv	a2,a1
   1523c:	00050593          	mv	a1,a0
   15240:	8081a503          	lw	a0,-2040(gp) # 1de78 <_impure_ptr>
   15244:	e79ff06f          	j	150bc <__swbuf_r>

00015248 <__swsetup_r>:
   15248:	8081a783          	lw	a5,-2040(gp) # 1de78 <_impure_ptr>
   1524c:	ff010113          	addi	sp,sp,-16
   15250:	00812423          	sw	s0,8(sp)
   15254:	00912223          	sw	s1,4(sp)
   15258:	00112623          	sw	ra,12(sp)
   1525c:	00050493          	mv	s1,a0
   15260:	00058413          	mv	s0,a1
   15264:	00078663          	beqz	a5,15270 <__swsetup_r+0x28>
   15268:	0387a703          	lw	a4,56(a5)
   1526c:	0e070063          	beqz	a4,1534c <__swsetup_r+0x104>
   15270:	00c41703          	lh	a4,12(s0)
   15274:	01071793          	slli	a5,a4,0x10
   15278:	0107d793          	srli	a5,a5,0x10
   1527c:	0087f693          	andi	a3,a5,8
   15280:	04068263          	beqz	a3,152c4 <__swsetup_r+0x7c>
   15284:	01042683          	lw	a3,16(s0)
   15288:	06068263          	beqz	a3,152ec <__swsetup_r+0xa4>
   1528c:	0017f713          	andi	a4,a5,1
   15290:	08071063          	bnez	a4,15310 <__swsetup_r+0xc8>
   15294:	0027f793          	andi	a5,a5,2
   15298:	00000713          	li	a4,0
   1529c:	00079463          	bnez	a5,152a4 <__swsetup_r+0x5c>
   152a0:	01442703          	lw	a4,20(s0)
   152a4:	00e42423          	sw	a4,8(s0)
   152a8:	00000513          	li	a0,0
   152ac:	06068e63          	beqz	a3,15328 <__swsetup_r+0xe0>
   152b0:	00c12083          	lw	ra,12(sp)
   152b4:	00812403          	lw	s0,8(sp)
   152b8:	00412483          	lw	s1,4(sp)
   152bc:	01010113          	addi	sp,sp,16
   152c0:	00008067          	ret
   152c4:	0107f693          	andi	a3,a5,16
   152c8:	0c068263          	beqz	a3,1538c <__swsetup_r+0x144>
   152cc:	0047f793          	andi	a5,a5,4
   152d0:	08079463          	bnez	a5,15358 <__swsetup_r+0x110>
   152d4:	01042683          	lw	a3,16(s0)
   152d8:	00876793          	ori	a5,a4,8
   152dc:	00f41623          	sh	a5,12(s0)
   152e0:	01079793          	slli	a5,a5,0x10
   152e4:	0107d793          	srli	a5,a5,0x10
   152e8:	fa0692e3          	bnez	a3,1528c <__swsetup_r+0x44>
   152ec:	2807f713          	andi	a4,a5,640
   152f0:	20000613          	li	a2,512
   152f4:	f8c70ce3          	beq	a4,a2,1528c <__swsetup_r+0x44>
   152f8:	00040593          	mv	a1,s0
   152fc:	00048513          	mv	a0,s1
   15300:	614020ef          	jal	17914 <__smakebuf_r>
   15304:	00c45783          	lhu	a5,12(s0)
   15308:	01042683          	lw	a3,16(s0)
   1530c:	f81ff06f          	j	1528c <__swsetup_r+0x44>
   15310:	01442783          	lw	a5,20(s0)
   15314:	00042423          	sw	zero,8(s0)
   15318:	00000513          	li	a0,0
   1531c:	40f007b3          	neg	a5,a5
   15320:	00f42c23          	sw	a5,24(s0)
   15324:	f80696e3          	bnez	a3,152b0 <__swsetup_r+0x68>
   15328:	00c45783          	lhu	a5,12(s0)
   1532c:	0807f793          	andi	a5,a5,128
   15330:	04079e63          	bnez	a5,1538c <__swsetup_r+0x144>
   15334:	00c12083          	lw	ra,12(sp)
   15338:	00068513          	mv	a0,a3
   1533c:	00812403          	lw	s0,8(sp)
   15340:	00412483          	lw	s1,4(sp)
   15344:	01010113          	addi	sp,sp,16
   15348:	00008067          	ret
   1534c:	00078513          	mv	a0,a5
   15350:	2f5010ef          	jal	16e44 <__sinit>
   15354:	f1dff06f          	j	15270 <__swsetup_r+0x28>
   15358:	03042583          	lw	a1,48(s0)
   1535c:	00058e63          	beqz	a1,15378 <__swsetup_r+0x130>
   15360:	04040793          	addi	a5,s0,64
   15364:	00f58863          	beq	a1,a5,15374 <__swsetup_r+0x12c>
   15368:	00048513          	mv	a0,s1
   1536c:	419010ef          	jal	16f84 <_free_r>
   15370:	00c41703          	lh	a4,12(s0)
   15374:	02042823          	sw	zero,48(s0)
   15378:	01042683          	lw	a3,16(s0)
   1537c:	fdb77713          	andi	a4,a4,-37
   15380:	00042223          	sw	zero,4(s0)
   15384:	00d42023          	sw	a3,0(s0)
   15388:	f51ff06f          	j	152d8 <__swsetup_r+0x90>
   1538c:	fff00513          	li	a0,-1
   15390:	f21ff06f          	j	152b0 <__swsetup_r+0x68>

00015394 <__register_exitproc>:
   15394:	fe010113          	addi	sp,sp,-32
   15398:	00812c23          	sw	s0,24(sp)
   1539c:	8041a403          	lw	s0,-2044(gp) # 1de74 <_global_impure_ptr>
   153a0:	00912a23          	sw	s1,20(sp)
   153a4:	00050493          	mv	s1,a0
   153a8:	14842503          	lw	a0,328(s0)
   153ac:	00112e23          	sw	ra,28(sp)
   153b0:	0c050263          	beqz	a0,15474 <__register_exitproc+0xe0>
   153b4:	00452783          	lw	a5,4(a0)
   153b8:	01f00713          	li	a4,31
   153bc:	00178813          	addi	a6,a5,1
   153c0:	04f75863          	ble	a5,a4,15410 <__register_exitproc+0x7c>
   153c4:	00000793          	li	a5,0
   153c8:	0a078c63          	beqz	a5,15480 <__register_exitproc+0xec>
   153cc:	19000513          	li	a0,400
   153d0:	00b12623          	sw	a1,12(sp)
   153d4:	00c12423          	sw	a2,8(sp)
   153d8:	00d12223          	sw	a3,4(sp)
   153dc:	c25ea0ef          	jal	0 <_ftext-0x10000>
   153e0:	00c12583          	lw	a1,12(sp)
   153e4:	00812603          	lw	a2,8(sp)
   153e8:	00412683          	lw	a3,4(sp)
   153ec:	08050a63          	beqz	a0,15480 <__register_exitproc+0xec>
   153f0:	14842783          	lw	a5,328(s0)
   153f4:	00100813          	li	a6,1
   153f8:	00052223          	sw	zero,4(a0)
   153fc:	00f52023          	sw	a5,0(a0)
   15400:	14a42423          	sw	a0,328(s0)
   15404:	00000793          	li	a5,0
   15408:	18052423          	sw	zero,392(a0)
   1540c:	18052623          	sw	zero,396(a0)
   15410:	00279713          	slli	a4,a5,0x2
   15414:	02049463          	bnez	s1,1543c <__register_exitproc+0xa8>
   15418:	00e50733          	add	a4,a0,a4
   1541c:	01052223          	sw	a6,4(a0)
   15420:	00000513          	li	a0,0
   15424:	00b72423          	sw	a1,8(a4)
   15428:	01c12083          	lw	ra,28(sp)
   1542c:	01812403          	lw	s0,24(sp)
   15430:	01412483          	lw	s1,20(sp)
   15434:	02010113          	addi	sp,sp,32
   15438:	00008067          	ret
   1543c:	00e502b3          	add	t0,a0,a4
   15440:	08c2a423          	sw	a2,136(t0)
   15444:	18852883          	lw	a7,392(a0)
   15448:	00100613          	li	a2,1
   1544c:	00f617b3          	sll	a5,a2,a5
   15450:	00f8e633          	or	a2,a7,a5
   15454:	18c52423          	sw	a2,392(a0)
   15458:	10d2a423          	sw	a3,264(t0)
   1545c:	00200693          	li	a3,2
   15460:	fad49ce3          	bne	s1,a3,15418 <__register_exitproc+0x84>
   15464:	18c52683          	lw	a3,396(a0)
   15468:	00f6e7b3          	or	a5,a3,a5
   1546c:	18f52623          	sw	a5,396(a0)
   15470:	fa9ff06f          	j	15418 <__register_exitproc+0x84>
   15474:	14c40513          	addi	a0,s0,332
   15478:	14a42423          	sw	a0,328(s0)
   1547c:	f39ff06f          	j	153b4 <__register_exitproc+0x20>
   15480:	fff00513          	li	a0,-1
   15484:	fa5ff06f          	j	15428 <__register_exitproc+0x94>

00015488 <__call_exitprocs>:
   15488:	fc010113          	addi	sp,sp,-64
   1548c:	01712e23          	sw	s7,28(sp)
   15490:	8041ab83          	lw	s7,-2044(gp) # 1de74 <_global_impure_ptr>
   15494:	03612023          	sw	s6,32(sp)
   15498:	03212823          	sw	s2,48(sp)
   1549c:	03412423          	sw	s4,40(sp)
   154a0:	03512223          	sw	s5,36(sp)
   154a4:	01812c23          	sw	s8,24(sp)
   154a8:	01912a23          	sw	s9,20(sp)
   154ac:	02112e23          	sw	ra,60(sp)
   154b0:	02812c23          	sw	s0,56(sp)
   154b4:	02912a23          	sw	s1,52(sp)
   154b8:	03312623          	sw	s3,44(sp)
   154bc:	01a12823          	sw	s10,16(sp)
   154c0:	01b12623          	sw	s11,12(sp)
   154c4:	00050a93          	mv	s5,a0
   154c8:	00058913          	mv	s2,a1
   154cc:	148b8c13          	addi	s8,s7,328
   154d0:	00100a13          	li	s4,1
   154d4:	fff00c93          	li	s9,-1
   154d8:	00000b13          	li	s6,0
   154dc:	148ba983          	lw	s3,328(s7)
   154e0:	04098e63          	beqz	s3,1553c <__call_exitprocs+0xb4>
   154e4:	000c0d93          	mv	s11,s8
   154e8:	0049a403          	lw	s0,4(s3)
   154ec:	00241493          	slli	s1,s0,0x2
   154f0:	fff40413          	addi	s0,s0,-1
   154f4:	009984b3          	add	s1,s3,s1
   154f8:	00044e63          	bltz	s0,15514 <__call_exitprocs+0x8c>
   154fc:	06090e63          	beqz	s2,15578 <__call_exitprocs+0xf0>
   15500:	1044a783          	lw	a5,260(s1)
   15504:	06f90a63          	beq	s2,a5,15578 <__call_exitprocs+0xf0>
   15508:	fff40413          	addi	s0,s0,-1
   1550c:	ffc48493          	addi	s1,s1,-4
   15510:	ff9416e3          	bne	s0,s9,154fc <__call_exitprocs+0x74>
   15514:	020b0463          	beqz	s6,1553c <__call_exitprocs+0xb4>
   15518:	0049a783          	lw	a5,4(s3)
   1551c:	0c079863          	bnez	a5,155ec <__call_exitprocs+0x164>
   15520:	0009a783          	lw	a5,0(s3)
   15524:	0c078e63          	beqz	a5,15600 <__call_exitprocs+0x178>
   15528:	00098513          	mv	a0,s3
   1552c:	00fda023          	sw	a5,0(s11)
   15530:	ad1ea0ef          	jal	0 <_ftext-0x10000>
   15534:	000da983          	lw	s3,0(s11)
   15538:	fa0998e3          	bnez	s3,154e8 <__call_exitprocs+0x60>
   1553c:	03c12083          	lw	ra,60(sp)
   15540:	03812403          	lw	s0,56(sp)
   15544:	03412483          	lw	s1,52(sp)
   15548:	03012903          	lw	s2,48(sp)
   1554c:	02c12983          	lw	s3,44(sp)
   15550:	02812a03          	lw	s4,40(sp)
   15554:	02412a83          	lw	s5,36(sp)
   15558:	02012b03          	lw	s6,32(sp)
   1555c:	01c12b83          	lw	s7,28(sp)
   15560:	01812c03          	lw	s8,24(sp)
   15564:	01412c83          	lw	s9,20(sp)
   15568:	01012d03          	lw	s10,16(sp)
   1556c:	00c12d83          	lw	s11,12(sp)
   15570:	04010113          	addi	sp,sp,64
   15574:	00008067          	ret
   15578:	0049a783          	lw	a5,4(s3)
   1557c:	0044a703          	lw	a4,4(s1)
   15580:	fff78793          	addi	a5,a5,-1
   15584:	04878a63          	beq	a5,s0,155d8 <__call_exitprocs+0x150>
   15588:	0004a223          	sw	zero,4(s1)
   1558c:	f6070ee3          	beqz	a4,15508 <__call_exitprocs+0x80>
   15590:	1889a783          	lw	a5,392(s3)
   15594:	008a16b3          	sll	a3,s4,s0
   15598:	0049ad03          	lw	s10,4(s3)
   1559c:	00f6f7b3          	and	a5,a3,a5
   155a0:	02078863          	beqz	a5,155d0 <__call_exitprocs+0x148>
   155a4:	18c9a783          	lw	a5,396(s3)
   155a8:	00f6f6b3          	and	a3,a3,a5
   155ac:	02069a63          	bnez	a3,155e0 <__call_exitprocs+0x158>
   155b0:	0844a583          	lw	a1,132(s1)
   155b4:	000a8513          	mv	a0,s5
   155b8:	000700e7          	jalr	a4
   155bc:	0049a783          	lw	a5,4(s3)
   155c0:	f1a79ee3          	bne	a5,s10,154dc <__call_exitprocs+0x54>
   155c4:	000da783          	lw	a5,0(s11)
   155c8:	f53780e3          	beq	a5,s3,15508 <__call_exitprocs+0x80>
   155cc:	f11ff06f          	j	154dc <__call_exitprocs+0x54>
   155d0:	000700e7          	jalr	a4
   155d4:	fe9ff06f          	j	155bc <__call_exitprocs+0x134>
   155d8:	0089a223          	sw	s0,4(s3)
   155dc:	fb1ff06f          	j	1558c <__call_exitprocs+0x104>
   155e0:	0844a503          	lw	a0,132(s1)
   155e4:	000700e7          	jalr	a4
   155e8:	fd5ff06f          	j	155bc <__call_exitprocs+0x134>
   155ec:	0009a783          	lw	a5,0(s3)
   155f0:	00098d93          	mv	s11,s3
   155f4:	00078993          	mv	s3,a5
   155f8:	ee0998e3          	bnez	s3,154e8 <__call_exitprocs+0x60>
   155fc:	f41ff06f          	j	1553c <__call_exitprocs+0xb4>
   15600:	00000793          	li	a5,0
   15604:	fedff06f          	j	155f0 <__call_exitprocs+0x168>

00015608 <quorem>:
   15608:	fe010113          	addi	sp,sp,-32
   1560c:	01212823          	sw	s2,16(sp)
   15610:	01052783          	lw	a5,16(a0)
   15614:	0105a903          	lw	s2,16(a1)
   15618:	00112e23          	sw	ra,28(sp)
   1561c:	00812c23          	sw	s0,24(sp)
   15620:	00912a23          	sw	s1,20(sp)
   15624:	01312623          	sw	s3,12(sp)
   15628:	01412423          	sw	s4,8(sp)
   1562c:	01512223          	sw	s5,4(sp)
   15630:	1b27cc63          	blt	a5,s2,157e8 <quorem+0x1e0>
   15634:	fff90913          	addi	s2,s2,-1
   15638:	00291e13          	slli	t3,s2,0x2
   1563c:	01458413          	addi	s0,a1,20
   15640:	01c409b3          	add	s3,s0,t3
   15644:	01450a13          	addi	s4,a0,20
   15648:	01ca0e33          	add	t3,s4,t3
   1564c:	0009a783          	lw	a5,0(s3)
   15650:	000e2483          	lw	s1,0(t3)
   15654:	00178793          	addi	a5,a5,1
   15658:	02f4d4b3          	divu	s1,s1,a5
   1565c:	0a048e63          	beqz	s1,15718 <quorem+0x110>
   15660:	000102b7          	lui	t0,0x10
   15664:	00040393          	mv	t2,s0
   15668:	000a0313          	mv	t1,s4
   1566c:	00000693          	li	a3,0
   15670:	00000793          	li	a5,0
   15674:	fff28293          	addi	t0,t0,-1 # ffff <_ftext-0x1>
   15678:	00438393          	addi	t2,t2,4 # 20000004 <_end+0x1ffdf894>
   1567c:	ffc3a603          	lw	a2,-4(t2)
   15680:	00032703          	lw	a4,0(t1) # 10000000 <_end+0xffdf890>
   15684:	00430313          	addi	t1,t1,4
   15688:	005678b3          	and	a7,a2,t0
   1568c:	029888b3          	mul	a7,a7,s1
   15690:	01065613          	srli	a2,a2,0x10
   15694:	00577833          	and	a6,a4,t0
   15698:	01075713          	srli	a4,a4,0x10
   1569c:	02960633          	mul	a2,a2,s1
   156a0:	00d888b3          	add	a7,a7,a3
   156a4:	0108d693          	srli	a3,a7,0x10
   156a8:	0058f8b3          	and	a7,a7,t0
   156ac:	411787b3          	sub	a5,a5,a7
   156b0:	01078833          	add	a6,a5,a6
   156b4:	41085893          	srai	a7,a6,0x10
   156b8:	00587833          	and	a6,a6,t0
   156bc:	00d606b3          	add	a3,a2,a3
   156c0:	0056f7b3          	and	a5,a3,t0
   156c4:	40f70733          	sub	a4,a4,a5
   156c8:	011707b3          	add	a5,a4,a7
   156cc:	01079713          	slli	a4,a5,0x10
   156d0:	01076833          	or	a6,a4,a6
   156d4:	0106d693          	srli	a3,a3,0x10
   156d8:	4107d793          	srai	a5,a5,0x10
   156dc:	ff032e23          	sw	a6,-4(t1)
   156e0:	f879fce3          	bleu	t2,s3,15678 <quorem+0x70>
   156e4:	000e2783          	lw	a5,0(t3)
   156e8:	02079863          	bnez	a5,15718 <quorem+0x110>
   156ec:	ffce0793          	addi	a5,t3,-4
   156f0:	02fa7263          	bleu	a5,s4,15714 <quorem+0x10c>
   156f4:	ffce2703          	lw	a4,-4(t3)
   156f8:	00070863          	beqz	a4,15708 <quorem+0x100>
   156fc:	0180006f          	j	15714 <quorem+0x10c>
   15700:	0007a703          	lw	a4,0(a5)
   15704:	00071863          	bnez	a4,15714 <quorem+0x10c>
   15708:	ffc78793          	addi	a5,a5,-4
   1570c:	fff90913          	addi	s2,s2,-1
   15710:	fefa68e3          	bltu	s4,a5,15700 <quorem+0xf8>
   15714:	01252823          	sw	s2,16(a0)
   15718:	00050a93          	mv	s5,a0
   1571c:	654030ef          	jal	18d70 <__mcmp>
   15720:	0a054063          	bltz	a0,157c0 <quorem+0x1b8>
   15724:	00010837          	lui	a6,0x10
   15728:	00148493          	addi	s1,s1,1
   1572c:	000a0593          	mv	a1,s4
   15730:	00000793          	li	a5,0
   15734:	fff80813          	addi	a6,a6,-1 # ffff <_ftext-0x1>
   15738:	00440413          	addi	s0,s0,4
   1573c:	ffc42603          	lw	a2,-4(s0)
   15740:	0005a703          	lw	a4,0(a1)
   15744:	00458593          	addi	a1,a1,4
   15748:	010676b3          	and	a3,a2,a6
   1574c:	40d787b3          	sub	a5,a5,a3
   15750:	010776b3          	and	a3,a4,a6
   15754:	00d786b3          	add	a3,a5,a3
   15758:	01075713          	srli	a4,a4,0x10
   1575c:	01065793          	srli	a5,a2,0x10
   15760:	40f70733          	sub	a4,a4,a5
   15764:	4106d793          	srai	a5,a3,0x10
   15768:	00f707b3          	add	a5,a4,a5
   1576c:	01079713          	slli	a4,a5,0x10
   15770:	0106f6b3          	and	a3,a3,a6
   15774:	00d766b3          	or	a3,a4,a3
   15778:	4107d793          	srai	a5,a5,0x10
   1577c:	fed5ae23          	sw	a3,-4(a1)
   15780:	fa89fce3          	bleu	s0,s3,15738 <quorem+0x130>
   15784:	00291713          	slli	a4,s2,0x2
   15788:	00ea0733          	add	a4,s4,a4
   1578c:	00072783          	lw	a5,0(a4)
   15790:	02079863          	bnez	a5,157c0 <quorem+0x1b8>
   15794:	ffc70793          	addi	a5,a4,-4
   15798:	02fa7263          	bleu	a5,s4,157bc <quorem+0x1b4>
   1579c:	ffc72703          	lw	a4,-4(a4)
   157a0:	00070863          	beqz	a4,157b0 <quorem+0x1a8>
   157a4:	0180006f          	j	157bc <quorem+0x1b4>
   157a8:	0007a703          	lw	a4,0(a5)
   157ac:	00071863          	bnez	a4,157bc <quorem+0x1b4>
   157b0:	ffc78793          	addi	a5,a5,-4
   157b4:	fff90913          	addi	s2,s2,-1
   157b8:	fefa68e3          	bltu	s4,a5,157a8 <quorem+0x1a0>
   157bc:	012aa823          	sw	s2,16(s5)
   157c0:	00048513          	mv	a0,s1
   157c4:	01c12083          	lw	ra,28(sp)
   157c8:	01812403          	lw	s0,24(sp)
   157cc:	01412483          	lw	s1,20(sp)
   157d0:	01012903          	lw	s2,16(sp)
   157d4:	00c12983          	lw	s3,12(sp)
   157d8:	00812a03          	lw	s4,8(sp)
   157dc:	00412a83          	lw	s5,4(sp)
   157e0:	02010113          	addi	sp,sp,32
   157e4:	00008067          	ret
   157e8:	00000513          	li	a0,0
   157ec:	fd9ff06f          	j	157c4 <quorem+0x1bc>

000157f0 <_dtoa_r>:
   157f0:	04052683          	lw	a3,64(a0)
   157f4:	f4010113          	addi	sp,sp,-192
   157f8:	0a812c23          	sw	s0,184(sp)
   157fc:	0b312623          	sw	s3,172(sp)
   15800:	0b412423          	sw	s4,168(sp)
   15804:	0a112e23          	sw	ra,188(sp)
   15808:	0a912a23          	sw	s1,180(sp)
   1580c:	0b212823          	sw	s2,176(sp)
   15810:	0b512223          	sw	s5,164(sp)
   15814:	0b612023          	sw	s6,160(sp)
   15818:	09712e23          	sw	s7,156(sp)
   1581c:	09812c23          	sw	s8,152(sp)
   15820:	09912a23          	sw	s9,148(sp)
   15824:	09a12823          	sw	s10,144(sp)
   15828:	09b12623          	sw	s11,140(sp)
   1582c:	06813c27          	fsd	fs0,120(sp)
   15830:	06913827          	fsd	fs1,112(sp)
   15834:	07213427          	fsd	fs2,104(sp)
   15838:	07413027          	fsd	fs4,96(sp)
   1583c:	05613c27          	fsd	fs6,88(sp)
   15840:	00c13c27          	fsd	fa2,24(sp)
   15844:	03012623          	sw	a6,44(sp)
   15848:	00050413          	mv	s0,a0
   1584c:	00070a13          	mv	s4,a4
   15850:	00078993          	mv	s3,a5
   15854:	02068663          	beqz	a3,15880 <_dtoa_r+0x90>
   15858:	04452703          	lw	a4,68(a0)
   1585c:	00100793          	li	a5,1
   15860:	00068593          	mv	a1,a3
   15864:	00e797b3          	sll	a5,a5,a4
   15868:	00e6a223          	sw	a4,4(a3)
   1586c:	00f6a423          	sw	a5,8(a3)
   15870:	01112a23          	sw	a7,20(sp)
   15874:	4ed020ef          	jal	18560 <_Bfree>
   15878:	01412883          	lw	a7,20(sp)
   1587c:	04042023          	sw	zero,64(s0)
   15880:	01c12483          	lw	s1,28(sp)
   15884:	0e04c663          	bltz	s1,15970 <_dtoa_r+0x180>
   15888:	0008a023          	sw	zero,0(a7)
   1588c:	7ff007b7          	lui	a5,0x7ff00
   15890:	00f4f733          	and	a4,s1,a5
   15894:	08f70a63          	beq	a4,a5,15928 <_dtoa_r+0x138>
   15898:	01813007          	fld	ft0,24(sp)
   1589c:	02013027          	fsd	ft0,32(sp)
   158a0:	02013087          	fld	ft1,32(sp)
   158a4:	d2000053          	fcvt.d.w	ft0,zero
   158a8:	a200a7d3          	feq.d	a5,ft1,ft0
   158ac:	0e078263          	beqz	a5,15990 <_dtoa_r+0x1a0>
   158b0:	02c12603          	lw	a2,44(sp)
   158b4:	0c012703          	lw	a4,192(sp)
   158b8:	00100793          	li	a5,1
   158bc:	00f62023          	sw	a5,0(a2) # 2000 <_ftext-0xe000>
   158c0:	48070263          	beqz	a4,15d44 <_dtoa_r+0x554>
   158c4:	0001c7b7          	lui	a5,0x1c
   158c8:	31578793          	addi	a5,a5,789 # 1c315 <zeroes.3949+0x59>
   158cc:	0001c4b7          	lui	s1,0x1c
   158d0:	00f72023          	sw	a5,0(a4)
   158d4:	31448513          	addi	a0,s1,788 # 1c314 <zeroes.3949+0x58>
   158d8:	0bc12083          	lw	ra,188(sp)
   158dc:	0b812403          	lw	s0,184(sp)
   158e0:	0b412483          	lw	s1,180(sp)
   158e4:	0b012903          	lw	s2,176(sp)
   158e8:	0ac12983          	lw	s3,172(sp)
   158ec:	0a812a03          	lw	s4,168(sp)
   158f0:	0a412a83          	lw	s5,164(sp)
   158f4:	0a012b03          	lw	s6,160(sp)
   158f8:	09c12b83          	lw	s7,156(sp)
   158fc:	09812c03          	lw	s8,152(sp)
   15900:	09412c83          	lw	s9,148(sp)
   15904:	09012d03          	lw	s10,144(sp)
   15908:	08c12d83          	lw	s11,140(sp)
   1590c:	07813407          	fld	fs0,120(sp)
   15910:	07013487          	fld	fs1,112(sp)
   15914:	06813907          	fld	fs2,104(sp)
   15918:	06013a07          	fld	fs4,96(sp)
   1591c:	05813b07          	fld	fs6,88(sp)
   15920:	0c010113          	addi	sp,sp,192
   15924:	00008067          	ret
   15928:	02c12603          	lw	a2,44(sp)
   1592c:	01812703          	lw	a4,24(sp)
   15930:	000027b7          	lui	a5,0x2
   15934:	70f78793          	addi	a5,a5,1807 # 270f <_ftext-0xd8f1>
   15938:	00f62023          	sw	a5,0(a2)
   1593c:	3c070463          	beqz	a4,15d04 <_dtoa_r+0x514>
   15940:	0001c537          	lui	a0,0x1c
   15944:	32450493          	addi	s1,a0,804 # 1c324 <zeroes.3949+0x68>
   15948:	0c012603          	lw	a2,192(sp)
   1594c:	300602e3          	beqz	a2,16450 <_dtoa_r+0xc60>
   15950:	0034c703          	lbu	a4,3(s1)
   15954:	00348793          	addi	a5,s1,3
   15958:	00070463          	beqz	a4,15960 <_dtoa_r+0x170>
   1595c:	00848793          	addi	a5,s1,8
   15960:	0c012703          	lw	a4,192(sp)
   15964:	00048513          	mv	a0,s1
   15968:	00f72023          	sw	a5,0(a4)
   1596c:	f6dff06f          	j	158d8 <_dtoa_r+0xe8>
   15970:	01c12783          	lw	a5,28(sp)
   15974:	800004b7          	lui	s1,0x80000
   15978:	fff4c493          	not	s1,s1
   1597c:	00f4f4b3          	and	s1,s1,a5
   15980:	00100793          	li	a5,1
   15984:	00f8a023          	sw	a5,0(a7)
   15988:	00912e23          	sw	s1,28(sp)
   1598c:	f01ff06f          	j	1588c <_dtoa_r+0x9c>
   15990:	02013607          	fld	fa2,32(sp)
   15994:	04810793          	addi	a5,sp,72
   15998:	04c10713          	addi	a4,sp,76
   1599c:	00040513          	mv	a0,s0
   159a0:	7f4030ef          	jal	19194 <__d2b>
   159a4:	0144d813          	srli	a6,s1,0x14
   159a8:	02a12823          	sw	a0,48(sp)
   159ac:	36081663          	bnez	a6,15d18 <_dtoa_r+0x528>
   159b0:	04812803          	lw	a6,72(sp)
   159b4:	04c12683          	lw	a3,76(sp)
   159b8:	02000793          	li	a5,32
   159bc:	00d806b3          	add	a3,a6,a3
   159c0:	43268613          	addi	a2,a3,1074
   159c4:	62c7d863          	ble	a2,a5,15ff4 <_dtoa_r+0x804>
   159c8:	04000793          	li	a5,64
   159cc:	40c78633          	sub	a2,a5,a2
   159d0:	01812783          	lw	a5,24(sp)
   159d4:	41268713          	addi	a4,a3,1042
   159d8:	00c494b3          	sll	s1,s1,a2
   159dc:	00e7d733          	srl	a4,a5,a4
   159e0:	009764b3          	or	s1,a4,s1
   159e4:	d2148053          	fcvt.d.wu	ft0,s1
   159e8:	00013027          	fsd	ft0,0(sp)
   159ec:	00412783          	lw	a5,4(sp)
   159f0:	00012703          	lw	a4,0(sp)
   159f4:	fe100637          	lui	a2,0xfe100
   159f8:	00f607b3          	add	a5,a2,a5
   159fc:	fff68693          	addi	a3,a3,-1
   15a00:	00100913          	li	s2,1
   15a04:	00f12223          	sw	a5,4(sp)
   15a08:	00e12023          	sw	a4,0(sp)
   15a0c:	8281b007          	fld	ft0,-2008(gp) # 1de98 <__wctomb+0x10>
   15a10:	00013107          	fld	ft2,0(sp)
   15a14:	0a0170d3          	fsub.d	ft1,ft2,ft0
   15a18:	8381b007          	fld	ft0,-1992(gp) # 1dea8 <__wctomb+0x20>
   15a1c:	8301b107          	fld	ft2,-2000(gp) # 1dea0 <__wctomb+0x18>
   15a20:	0220f043          	fmadd.d	ft0,ft1,ft2,ft0
   15a24:	8401b107          	fld	ft2,-1984(gp) # 1deb0 <__wctomb+0x28>
   15a28:	d20680d3          	fcvt.d.w	ft1,a3
   15a2c:	0220f043          	fmadd.d	ft0,ft1,ft2,ft0
   15a30:	d20000d3          	fcvt.d.w	ft1,zero
   15a34:	a21017d3          	flt.d	a5,ft0,ft1
   15a38:	c2001bd3          	fcvt.w.d	s7,ft0,rtz
   15a3c:	58079663          	bnez	a5,15fc8 <_dtoa_r+0x7d8>
   15a40:	00100713          	li	a4,1
   15a44:	01600793          	li	a5,22
   15a48:	02e12a23          	sw	a4,52(sp)
   15a4c:	0377e663          	bltu	a5,s7,15a78 <_dtoa_r+0x288>
   15a50:	0001c737          	lui	a4,0x1c
   15a54:	003b9793          	slli	a5,s7,0x3
   15a58:	03070713          	addi	a4,a4,48 # 1c030 <__mprec_tens>
   15a5c:	00e787b3          	add	a5,a5,a4
   15a60:	0007b007          	fld	ft0,0(a5)
   15a64:	01813087          	fld	ft1,24(sp)
   15a68:	a20097d3          	flt.d	a5,ft1,ft0
   15a6c:	58078063          	beqz	a5,15fec <_dtoa_r+0x7fc>
   15a70:	fffb8b93          	addi	s7,s7,-1
   15a74:	02012a23          	sw	zero,52(sp)
   15a78:	40d80833          	sub	a6,a6,a3
   15a7c:	fff80d13          	addi	s10,a6,-1
   15a80:	00000c93          	li	s9,0
   15a84:	2c0d4663          	bltz	s10,15d50 <_dtoa_r+0x560>
   15a88:	520bc863          	bltz	s7,15fb8 <_dtoa_r+0x7c8>
   15a8c:	017d0d33          	add	s10,s10,s7
   15a90:	03712c23          	sw	s7,56(sp)
   15a94:	00000c13          	li	s8,0
   15a98:	00900793          	li	a5,9
   15a9c:	2d47e063          	bltu	a5,s4,15d5c <_dtoa_r+0x56c>
   15aa0:	00500793          	li	a5,5
   15aa4:	00100d93          	li	s11,1
   15aa8:	0147d663          	ble	s4,a5,15ab4 <_dtoa_r+0x2c4>
   15aac:	ffca0a13          	addi	s4,s4,-4
   15ab0:	00000d93          	li	s11,0
   15ab4:	00300793          	li	a5,3
   15ab8:	24fa0ae3          	beq	s4,a5,1650c <_dtoa_r+0xd1c>
   15abc:	1b47dce3          	ble	s4,a5,16474 <_dtoa_r+0xc84>
   15ac0:	00400793          	li	a5,4
   15ac4:	06fa0ce3          	beq	s4,a5,1633c <_dtoa_r+0xb4c>
   15ac8:	00100793          	li	a5,1
   15acc:	02f12023          	sw	a5,32(sp)
   15ad0:	00500793          	li	a5,5
   15ad4:	1afa16e3          	bne	s4,a5,16480 <_dtoa_r+0xc90>
   15ad8:	013b87b3          	add	a5,s7,s3
   15adc:	00178b13          	addi	s6,a5,1
   15ae0:	02f12e23          	sw	a5,60(sp)
   15ae4:	000b0613          	mv	a2,s6
   15ae8:	000b0a93          	mv	s5,s6
   15aec:	17605ee3          	blez	s6,16468 <_dtoa_r+0xc78>
   15af0:	01700793          	li	a5,23
   15af4:	04042223          	sw	zero,68(s0)
   15af8:	00000593          	li	a1,0
   15afc:	02c7f263          	bleu	a2,a5,15b20 <_dtoa_r+0x330>
   15b00:	00100713          	li	a4,1
   15b04:	00400793          	li	a5,4
   15b08:	00179793          	slli	a5,a5,0x1
   15b0c:	01478693          	addi	a3,a5,20
   15b10:	00070593          	mv	a1,a4
   15b14:	00170713          	addi	a4,a4,1
   15b18:	fed678e3          	bleu	a3,a2,15b08 <_dtoa_r+0x318>
   15b1c:	04b42223          	sw	a1,68(s0)
   15b20:	00040513          	mv	a0,s0
   15b24:	199020ef          	jal	184bc <_Balloc>
   15b28:	00e00793          	li	a5,14
   15b2c:	00050493          	mv	s1,a0
   15b30:	04a42023          	sw	a0,64(s0)
   15b34:	2557ec63          	bltu	a5,s5,15d8c <_dtoa_r+0x59c>
   15b38:	240d8a63          	beqz	s11,15d8c <_dtoa_r+0x59c>
   15b3c:	01813007          	fld	ft0,24(sp)
   15b40:	29705ce3          	blez	s7,165d8 <_dtoa_r+0xde8>
   15b44:	00fbf793          	andi	a5,s7,15
   15b48:	00379713          	slli	a4,a5,0x3
   15b4c:	0001c7b7          	lui	a5,0x1c
   15b50:	404bda93          	srai	s5,s7,0x4
   15b54:	03078793          	addi	a5,a5,48 # 1c030 <__mprec_tens>
   15b58:	00f707b3          	add	a5,a4,a5
   15b5c:	010af713          	andi	a4,s5,16
   15b60:	0007b407          	fld	fs0,0(a5)
   15b64:	22000553          	fmv.d	fa0,ft0
   15b68:	00200d93          	li	s11,2
   15b6c:	00070c63          	beqz	a4,15b84 <_dtoa_r+0x394>
   15b70:	0001c7b7          	lui	a5,0x1c
   15b74:	1407b607          	fld	fa2,320(a5) # 1c140 <__mprec_bigtens+0x20>
   15b78:	00fafa93          	andi	s5,s5,15
   15b7c:	00300d93          	li	s11,3
   15b80:	bddfc0ef          	jal	1275c <__divdf3>
   15b84:	020a8663          	beqz	s5,15bb0 <_dtoa_r+0x3c0>
   15b88:	0001c7b7          	lui	a5,0x1c
   15b8c:	12078793          	addi	a5,a5,288 # 1c120 <__mprec_bigtens>
   15b90:	001af713          	andi	a4,s5,1
   15b94:	401ada93          	srai	s5,s5,0x1
   15b98:	00070863          	beqz	a4,15ba8 <_dtoa_r+0x3b8>
   15b9c:	0007b007          	fld	ft0,0(a5)
   15ba0:	001d8d93          	addi	s11,s11,1
   15ba4:	12047453          	fmul.d	fs0,fs0,ft0
   15ba8:	00878793          	addi	a5,a5,8
   15bac:	fe0a92e3          	bnez	s5,15b90 <_dtoa_r+0x3a0>
   15bb0:	22840653          	fmv.d	fa2,fs0
   15bb4:	ba9fc0ef          	jal	1275c <__divdf3>
   15bb8:	22a50453          	fmv.d	fs0,fa0
   15bbc:	03412703          	lw	a4,52(sp)
   15bc0:	00070863          	beqz	a4,15bd0 <_dtoa_r+0x3e0>
   15bc4:	8481b007          	fld	ft0,-1976(gp) # 1deb8 <__wctomb+0x30>
   15bc8:	a20417d3          	flt.d	a5,fs0,ft0
   15bcc:	3a0796e3          	bnez	a5,16778 <_dtoa_r+0xf88>
   15bd0:	8581b007          	fld	ft0,-1960(gp) # 1dec8 <__wctomb+0x40>
   15bd4:	d20d80d3          	fcvt.d.w	ft1,s11
   15bd8:	fcc006b7          	lui	a3,0xfcc00
   15bdc:	0280f043          	fmadd.d	ft0,ft1,fs0,ft0
   15be0:	00013027          	fsd	ft0,0(sp)
   15be4:	00412783          	lw	a5,4(sp)
   15be8:	00012703          	lw	a4,0(sp)
   15bec:	00f687b3          	add	a5,a3,a5
   15bf0:	140b02e3          	beqz	s6,16534 <_dtoa_r+0xd44>
   15bf4:	000b8a93          	mv	s5,s7
   15bf8:	000b0693          	mv	a3,s6
   15bfc:	02012603          	lw	a2,32(sp)
   15c00:	26060ce3          	beqz	a2,16678 <_dtoa_r+0xe88>
   15c04:	fff68613          	addi	a2,a3,-1 # fcbfffff <_end+0xfcbdf88f>
   15c08:	00361593          	slli	a1,a2,0x3
   15c0c:	0001c637          	lui	a2,0x1c
   15c10:	03060613          	addi	a2,a2,48 # 1c030 <__mprec_tens>
   15c14:	00c58633          	add	a2,a1,a2
   15c18:	00063607          	fld	fa2,0(a2)
   15c1c:	8681b507          	fld	fa0,-1944(gp) # 1ded8 <__wctomb+0x50>
   15c20:	00d12a23          	sw	a3,20(sp)
   15c24:	00e12623          	sw	a4,12(sp)
   15c28:	00f12823          	sw	a5,16(sp)
   15c2c:	b31fc0ef          	jal	1275c <__divdf3>
   15c30:	00c12703          	lw	a4,12(sp)
   15c34:	01012783          	lw	a5,16(sp)
   15c38:	c2041653          	fcvt.w.d	a2,fs0,rtz
   15c3c:	00e12023          	sw	a4,0(sp)
   15c40:	00f12223          	sw	a5,4(sp)
   15c44:	00013087          	fld	ft1,0(sp)
   15c48:	d2060053          	fcvt.d.w	ft0,a2
   15c4c:	0a047053          	fsub.d	ft0,fs0,ft0
   15c50:	0a157553          	fsub.d	fa0,fa0,ft1
   15c54:	03060793          	addi	a5,a2,48
   15c58:	0ff7f793          	andi	a5,a5,255
   15c5c:	00f48023          	sb	a5,0(s1) # 80000000 <_end+0x7ffdf890>
   15c60:	a2a01753          	flt.d	a4,ft0,fa0
   15c64:	00148d93          	addi	s11,s1,1
   15c68:	01412683          	lw	a3,20(sp)
   15c6c:	06071263          	bnez	a4,15cd0 <_dtoa_r+0x4e0>
   15c70:	8481b207          	fld	ft4,-1976(gp) # 1deb8 <__wctomb+0x30>
   15c74:	0a0270d3          	fsub.d	ft1,ft4,ft0
   15c78:	a2a09753          	flt.d	a4,ft1,fa0
   15c7c:	36071ae3          	bnez	a4,167f0 <_dtoa_r+0x1000>
   15c80:	00100793          	li	a5,1
   15c84:	10d7d463          	ble	a3,a5,15d8c <_dtoa_r+0x59c>
   15c88:	8501b107          	fld	ft2,-1968(gp) # 1dec0 <__wctomb+0x38>
   15c8c:	00d486b3          	add	a3,s1,a3
   15c90:	0140006f          	j	15ca4 <_dtoa_r+0x4b4>
   15c94:	0a0270d3          	fsub.d	ft1,ft4,ft0
   15c98:	a2a09753          	flt.d	a4,ft1,fa0
   15c9c:	34071ae3          	bnez	a4,167f0 <_dtoa_r+0x1000>
   15ca0:	0edd8663          	beq	s11,a3,15d8c <_dtoa_r+0x59c>
   15ca4:	12207053          	fmul.d	ft0,ft0,ft2
   15ca8:	12257553          	fmul.d	fa0,fa0,ft2
   15cac:	001d8d93          	addi	s11,s11,1
   15cb0:	c20017d3          	fcvt.w.d	a5,ft0,rtz
   15cb4:	d20780d3          	fcvt.d.w	ft1,a5
   15cb8:	0a107053          	fsub.d	ft0,ft0,ft1
   15cbc:	03078793          	addi	a5,a5,48
   15cc0:	0ff7f793          	andi	a5,a5,255
   15cc4:	fefd8fa3          	sb	a5,-1(s11)
   15cc8:	a2a01753          	flt.d	a4,ft0,fa0
   15ccc:	fc0704e3          	beqz	a4,15c94 <_dtoa_r+0x4a4>
   15cd0:	000a8b93          	mv	s7,s5
   15cd4:	03012583          	lw	a1,48(sp)
   15cd8:	00040513          	mv	a0,s0
   15cdc:	001b8b93          	addi	s7,s7,1
   15ce0:	081020ef          	jal	18560 <_Bfree>
   15ce4:	02c12783          	lw	a5,44(sp)
   15ce8:	0c012603          	lw	a2,192(sp)
   15cec:	000d8023          	sb	zero,0(s11)
   15cf0:	0177a023          	sw	s7,0(a5)
   15cf4:	74060e63          	beqz	a2,16450 <_dtoa_r+0xc60>
   15cf8:	01b62023          	sw	s11,0(a2)
   15cfc:	00048513          	mv	a0,s1
   15d00:	bd9ff06f          	j	158d8 <_dtoa_r+0xe8>
   15d04:	00c49793          	slli	a5,s1,0xc
   15d08:	c2079ce3          	bnez	a5,15940 <_dtoa_r+0x150>
   15d0c:	0001c537          	lui	a0,0x1c
   15d10:	31850493          	addi	s1,a0,792 # 1c318 <zeroes.3949+0x5c>
   15d14:	c35ff06f          	j	15948 <_dtoa_r+0x158>
   15d18:	02412783          	lw	a5,36(sp)
   15d1c:	00100637          	lui	a2,0x100
   15d20:	fff60613          	addi	a2,a2,-1 # fffff <_end+0xdf88f>
   15d24:	3ff006b7          	lui	a3,0x3ff00
   15d28:	00c7f633          	and	a2,a5,a2
   15d2c:	00d667b3          	or	a5,a2,a3
   15d30:	c0180693          	addi	a3,a6,-1023
   15d34:	02012703          	lw	a4,32(sp)
   15d38:	04812803          	lw	a6,72(sp)
   15d3c:	00000913          	li	s2,0
   15d40:	cc5ff06f          	j	15a04 <_dtoa_r+0x214>
   15d44:	0001c4b7          	lui	s1,0x1c
   15d48:	31448513          	addi	a0,s1,788 # 1c314 <zeroes.3949+0x58>
   15d4c:	b8dff06f          	j	158d8 <_dtoa_r+0xe8>
   15d50:	41a00cb3          	neg	s9,s10
   15d54:	00000d13          	li	s10,0
   15d58:	d31ff06f          	j	15a88 <_dtoa_r+0x298>
   15d5c:	04042223          	sw	zero,68(s0)
   15d60:	00000593          	li	a1,0
   15d64:	00040513          	mv	a0,s0
   15d68:	754020ef          	jal	184bc <_Balloc>
   15d6c:	fff00b13          	li	s6,-1
   15d70:	00100793          	li	a5,1
   15d74:	00050493          	mv	s1,a0
   15d78:	04a42023          	sw	a0,64(s0)
   15d7c:	03612e23          	sw	s6,60(sp)
   15d80:	00000993          	li	s3,0
   15d84:	00000a13          	li	s4,0
   15d88:	02f12023          	sw	a5,32(sp)
   15d8c:	04c12783          	lw	a5,76(sp)
   15d90:	0e07cc63          	bltz	a5,15e88 <_dtoa_r+0x698>
   15d94:	00e00713          	li	a4,14
   15d98:	0f774863          	blt	a4,s7,15e88 <_dtoa_r+0x698>
   15d9c:	0001c737          	lui	a4,0x1c
   15da0:	003b9793          	slli	a5,s7,0x3
   15da4:	03070713          	addi	a4,a4,48 # 1c030 <__mprec_tens>
   15da8:	00e787b3          	add	a5,a5,a4
   15dac:	0007b407          	fld	fs0,0(a5)
   15db0:	5a09c663          	bltz	s3,1635c <_dtoa_r+0xb6c>
   15db4:	01813487          	fld	fs1,24(sp)
   15db8:	22840653          	fmv.d	fa2,fs0
   15dbc:	22841b53          	fneg.d	fs6,fs0
   15dc0:	22948553          	fmv.d	fa0,fs1
   15dc4:	00148d93          	addi	s11,s1,1
   15dc8:	995fc0ef          	jal	1275c <__divdf3>
   15dcc:	c2051753          	fcvt.w.d	a4,fa0,rtz
   15dd0:	03070793          	addi	a5,a4,48
   15dd4:	d2070053          	fcvt.d.w	ft0,a4
   15dd8:	00f48023          	sb	a5,0(s1)
   15ddc:	00100793          	li	a5,1
   15de0:	4a0b74c3          	fmadd.d	fs1,fs6,ft0,fs1
   15de4:	04fb0e63          	beq	s6,a5,15e40 <_dtoa_r+0x650>
   15de8:	8501ba07          	fld	fs4,-1968(gp) # 1dec0 <__wctomb+0x38>
   15dec:	d2000953          	fcvt.d.w	fs2,zero
   15df0:	00248913          	addi	s2,s1,2
   15df4:	1344f4d3          	fmul.d	fs1,fs1,fs4
   15df8:	01648b33          	add	s6,s1,s6
   15dfc:	a324a7d3          	feq.d	a5,fs1,fs2
   15e00:	00078c63          	beqz	a5,15e18 <_dtoa_r+0x628>
   15e04:	ed1ff06f          	j	15cd4 <_dtoa_r+0x4e4>
   15e08:	1344f4d3          	fmul.d	fs1,fs1,fs4
   15e0c:	00190913          	addi	s2,s2,1
   15e10:	a324a7d3          	feq.d	a5,fs1,fs2
   15e14:	ec0790e3          	bnez	a5,15cd4 <_dtoa_r+0x4e4>
   15e18:	22948553          	fmv.d	fa0,fs1
   15e1c:	22840653          	fmv.d	fa2,fs0
   15e20:	00090d93          	mv	s11,s2
   15e24:	939fc0ef          	jal	1275c <__divdf3>
   15e28:	c2051753          	fcvt.w.d	a4,fa0,rtz
   15e2c:	d2070053          	fcvt.d.w	ft0,a4
   15e30:	03070793          	addi	a5,a4,48
   15e34:	fef90fa3          	sb	a5,-1(s2)
   15e38:	4a0b74c3          	fmadd.d	fs1,fs6,ft0,fs1
   15e3c:	fd2b16e3          	bne	s6,s2,15e08 <_dtoa_r+0x618>
   15e40:	0294f4d3          	fadd.d	fs1,fs1,fs1
   15e44:	a29417d3          	flt.d	a5,fs0,fs1
   15e48:	00079a63          	bnez	a5,15e5c <_dtoa_r+0x66c>
   15e4c:	a29427d3          	feq.d	a5,fs0,fs1
   15e50:	e80782e3          	beqz	a5,15cd4 <_dtoa_r+0x4e4>
   15e54:	00177713          	andi	a4,a4,1
   15e58:	e6070ee3          	beqz	a4,15cd4 <_dtoa_r+0x4e4>
   15e5c:	fffdc783          	lbu	a5,-1(s11)
   15e60:	03900693          	li	a3,57
   15e64:	0100006f          	j	15e74 <_dtoa_r+0x684>
   15e68:	74970e63          	beq	a4,s1,165c4 <_dtoa_r+0xdd4>
   15e6c:	fff74783          	lbu	a5,-1(a4)
   15e70:	00070d93          	mv	s11,a4
   15e74:	fffd8713          	addi	a4,s11,-1
   15e78:	fed788e3          	beq	a5,a3,15e68 <_dtoa_r+0x678>
   15e7c:	00178793          	addi	a5,a5,1
   15e80:	00f70023          	sb	a5,0(a4)
   15e84:	e51ff06f          	j	15cd4 <_dtoa_r+0x4e4>
   15e88:	02012703          	lw	a4,32(sp)
   15e8c:	14070863          	beqz	a4,15fdc <_dtoa_r+0x7ec>
   15e90:	00100713          	li	a4,1
   15e94:	51475463          	ble	s4,a4,1639c <_dtoa_r+0xbac>
   15e98:	fffb0713          	addi	a4,s6,-1
   15e9c:	6eec4263          	blt	s8,a4,16580 <_dtoa_r+0xd90>
   15ea0:	40ec0733          	sub	a4,s8,a4
   15ea4:	000c8d93          	mv	s11,s9
   15ea8:	000b0793          	mv	a5,s6
   15eac:	0a0b40e3          	bltz	s6,1674c <_dtoa_r+0xf5c>
   15eb0:	00100593          	li	a1,1
   15eb4:	00040513          	mv	a0,s0
   15eb8:	00e12623          	sw	a4,12(sp)
   15ebc:	00fc8cb3          	add	s9,s9,a5
   15ec0:	00fd0d33          	add	s10,s10,a5
   15ec4:	201020ef          	jal	188c4 <__i2b>
   15ec8:	00c12703          	lw	a4,12(sp)
   15ecc:	00050a93          	mv	s5,a0
   15ed0:	000d8e63          	beqz	s11,15eec <_dtoa_r+0x6fc>
   15ed4:	01a05c63          	blez	s10,15eec <_dtoa_r+0x6fc>
   15ed8:	000d8793          	mv	a5,s11
   15edc:	41bd4863          	blt	s10,s11,162ec <_dtoa_r+0xafc>
   15ee0:	40fc8cb3          	sub	s9,s9,a5
   15ee4:	40fd8db3          	sub	s11,s11,a5
   15ee8:	40fd0d33          	sub	s10,s10,a5
   15eec:	03012903          	lw	s2,48(sp)
   15ef0:	07805663          	blez	s8,15f5c <_dtoa_r+0x76c>
   15ef4:	02012783          	lw	a5,32(sp)
   15ef8:	66078863          	beqz	a5,16568 <_dtoa_r+0xd78>
   15efc:	04070663          	beqz	a4,15f48 <_dtoa_r+0x758>
   15f00:	00070613          	mv	a2,a4
   15f04:	000a8593          	mv	a1,s5
   15f08:	00040513          	mv	a0,s0
   15f0c:	00e12623          	sw	a4,12(sp)
   15f10:	3d9020ef          	jal	18ae8 <__pow5mult>
   15f14:	03012603          	lw	a2,48(sp)
   15f18:	00050593          	mv	a1,a0
   15f1c:	00050a93          	mv	s5,a0
   15f20:	00040513          	mv	a0,s0
   15f24:	1d5020ef          	jal	188f8 <__multiply>
   15f28:	00c12703          	lw	a4,12(sp)
   15f2c:	03012583          	lw	a1,48(sp)
   15f30:	00050913          	mv	s2,a0
   15f34:	40ec0c33          	sub	s8,s8,a4
   15f38:	00040513          	mv	a0,s0
   15f3c:	624020ef          	jal	18560 <_Bfree>
   15f40:	000c0e63          	beqz	s8,15f5c <_dtoa_r+0x76c>
   15f44:	03212823          	sw	s2,48(sp)
   15f48:	03012583          	lw	a1,48(sp)
   15f4c:	000c0613          	mv	a2,s8
   15f50:	00040513          	mv	a0,s0
   15f54:	395020ef          	jal	18ae8 <__pow5mult>
   15f58:	00050913          	mv	s2,a0
   15f5c:	00100593          	li	a1,1
   15f60:	00040513          	mv	a0,s0
   15f64:	161020ef          	jal	188c4 <__i2b>
   15f68:	03812703          	lw	a4,56(sp)
   15f6c:	00050c13          	mv	s8,a0
   15f70:	08070a63          	beqz	a4,16004 <_dtoa_r+0x814>
   15f74:	00050593          	mv	a1,a0
   15f78:	00070613          	mv	a2,a4
   15f7c:	00040513          	mv	a0,s0
   15f80:	369020ef          	jal	18ae8 <__pow5mult>
   15f84:	00100793          	li	a5,1
   15f88:	00050c13          	mv	s8,a0
   15f8c:	3747d463          	ble	s4,a5,162f4 <_dtoa_r+0xb04>
   15f90:	02012823          	sw	zero,48(sp)
   15f94:	010c2783          	lw	a5,16(s8)
   15f98:	00378793          	addi	a5,a5,3
   15f9c:	00279793          	slli	a5,a5,0x2
   15fa0:	00fc07b3          	add	a5,s8,a5
   15fa4:	0047a503          	lw	a0,4(a5)
   15fa8:	7f0020ef          	jal	18798 <__hi0bits>
   15fac:	02000793          	li	a5,32
   15fb0:	40a78533          	sub	a0,a5,a0
   15fb4:	05c0006f          	j	16010 <_dtoa_r+0x820>
   15fb8:	417c8cb3          	sub	s9,s9,s7
   15fbc:	41700c33          	neg	s8,s7
   15fc0:	02012c23          	sw	zero,56(sp)
   15fc4:	ad5ff06f          	j	15a98 <_dtoa_r+0x2a8>
   15fc8:	d20b80d3          	fcvt.d.w	ft1,s7
   15fcc:	a21027d3          	feq.d	a5,ft0,ft1
   15fd0:	0017b793          	seqz	a5,a5
   15fd4:	40fb8bb3          	sub	s7,s7,a5
   15fd8:	a69ff06f          	j	15a40 <_dtoa_r+0x250>
   15fdc:	000c0713          	mv	a4,s8
   15fe0:	000c8d93          	mv	s11,s9
   15fe4:	00000a93          	li	s5,0
   15fe8:	ee9ff06f          	j	15ed0 <_dtoa_r+0x6e0>
   15fec:	02012a23          	sw	zero,52(sp)
   15ff0:	a89ff06f          	j	15a78 <_dtoa_r+0x288>
   15ff4:	40c784b3          	sub	s1,a5,a2
   15ff8:	01812603          	lw	a2,24(sp)
   15ffc:	009614b3          	sll	s1,a2,s1
   16000:	9e5ff06f          	j	159e4 <_dtoa_r+0x1f4>
   16004:	00100513          	li	a0,1
   16008:	43455463          	ble	s4,a0,16430 <_dtoa_r+0xc40>
   1600c:	02012823          	sw	zero,48(sp)
   16010:	01a50533          	add	a0,a0,s10
   16014:	01f57513          	andi	a0,a0,31
   16018:	1a050663          	beqz	a0,161c4 <_dtoa_r+0x9d4>
   1601c:	02000793          	li	a5,32
   16020:	40a787b3          	sub	a5,a5,a0
   16024:	00400713          	li	a4,4
   16028:	00f75ae3          	ble	a5,a4,1683c <_dtoa_r+0x104c>
   1602c:	01c00793          	li	a5,28
   16030:	40a78533          	sub	a0,a5,a0
   16034:	00ac8cb3          	add	s9,s9,a0
   16038:	00ad8db3          	add	s11,s11,a0
   1603c:	00ad0d33          	add	s10,s10,a0
   16040:	01905c63          	blez	s9,16058 <_dtoa_r+0x868>
   16044:	00090593          	mv	a1,s2
   16048:	000c8613          	mv	a2,s9
   1604c:	00040513          	mv	a0,s0
   16050:	3d1020ef          	jal	18c20 <__lshift>
   16054:	00050913          	mv	s2,a0
   16058:	01a05c63          	blez	s10,16070 <_dtoa_r+0x880>
   1605c:	000c0593          	mv	a1,s8
   16060:	000d0613          	mv	a2,s10
   16064:	00040513          	mv	a0,s0
   16068:	3b9020ef          	jal	18c20 <__lshift>
   1606c:	00050c13          	mv	s8,a0
   16070:	03412783          	lw	a5,52(sp)
   16074:	16079263          	bnez	a5,161d8 <_dtoa_r+0x9e8>
   16078:	43605c63          	blez	s6,164b0 <_dtoa_r+0xcc0>
   1607c:	02012703          	lw	a4,32(sp)
   16080:	1a070263          	beqz	a4,16224 <_dtoa_r+0xa34>
   16084:	01b05c63          	blez	s11,1609c <_dtoa_r+0x8ac>
   16088:	000a8593          	mv	a1,s5
   1608c:	000d8613          	mv	a2,s11
   16090:	00040513          	mv	a0,s0
   16094:	38d020ef          	jal	18c20 <__lshift>
   16098:	00050a93          	mv	s5,a0
   1609c:	03012783          	lw	a5,48(sp)
   160a0:	000a8d13          	mv	s10,s5
   160a4:	58079a63          	bnez	a5,16638 <_dtoa_r+0xe48>
   160a8:	01812703          	lw	a4,24(sp)
   160ac:	01648b33          	add	s6,s1,s6
   160b0:	00148993          	addi	s3,s1,1
   160b4:	00177713          	andi	a4,a4,1
   160b8:	03612823          	sw	s6,48(sp)
   160bc:	02e12023          	sw	a4,32(sp)
   160c0:	000c0593          	mv	a1,s8
   160c4:	00090513          	mv	a0,s2
   160c8:	d40ff0ef          	jal	15608 <quorem>
   160cc:	00050d93          	mv	s11,a0
   160d0:	000a8593          	mv	a1,s5
   160d4:	00090513          	mv	a0,s2
   160d8:	499020ef          	jal	18d70 <__mcmp>
   160dc:	00050b13          	mv	s6,a0
   160e0:	000d0613          	mv	a2,s10
   160e4:	000c0593          	mv	a1,s8
   160e8:	00040513          	mv	a0,s0
   160ec:	4e5020ef          	jal	18dd0 <__mdiff>
   160f0:	00c52683          	lw	a3,12(a0)
   160f4:	fff98713          	addi	a4,s3,-1
   160f8:	00e12c23          	sw	a4,24(sp)
   160fc:	00050793          	mv	a5,a0
   16100:	030d8c93          	addi	s9,s11,48
   16104:	00100713          	li	a4,1
   16108:	00069e63          	bnez	a3,16124 <_dtoa_r+0x934>
   1610c:	00050593          	mv	a1,a0
   16110:	00090513          	mv	a0,s2
   16114:	00f12823          	sw	a5,16(sp)
   16118:	459020ef          	jal	18d70 <__mcmp>
   1611c:	01012783          	lw	a5,16(sp)
   16120:	00050713          	mv	a4,a0
   16124:	00078593          	mv	a1,a5
   16128:	00040513          	mv	a0,s0
   1612c:	00e12623          	sw	a4,12(sp)
   16130:	430020ef          	jal	18560 <_Bfree>
   16134:	00c12703          	lw	a4,12(sp)
   16138:	014767b3          	or	a5,a4,s4
   1613c:	00079663          	bnez	a5,16148 <_dtoa_r+0x958>
   16140:	02012783          	lw	a5,32(sp)
   16144:	26078663          	beqz	a5,163b0 <_dtoa_r+0xbc0>
   16148:	280b4a63          	bltz	s6,163dc <_dtoa_r+0xbec>
   1614c:	014b6b33          	or	s6,s6,s4
   16150:	000b1663          	bnez	s6,1615c <_dtoa_r+0x96c>
   16154:	02012783          	lw	a5,32(sp)
   16158:	28078263          	beqz	a5,163dc <_dtoa_r+0xbec>
   1615c:	5ae04e63          	bgtz	a4,16718 <_dtoa_r+0xf28>
   16160:	03012703          	lw	a4,48(sp)
   16164:	00098d93          	mv	s11,s3
   16168:	ff998fa3          	sb	s9,-1(s3)
   1616c:	5d370a63          	beq	a4,s3,16740 <_dtoa_r+0xf50>
   16170:	00090593          	mv	a1,s2
   16174:	00000693          	li	a3,0
   16178:	00a00613          	li	a2,10
   1617c:	00040513          	mv	a0,s0
   16180:	404020ef          	jal	18584 <__multadd>
   16184:	00050913          	mv	s2,a0
   16188:	00000693          	li	a3,0
   1618c:	00a00613          	li	a2,10
   16190:	000a8593          	mv	a1,s5
   16194:	00040513          	mv	a0,s0
   16198:	2baa8263          	beq	s5,s10,1643c <_dtoa_r+0xc4c>
   1619c:	3e8020ef          	jal	18584 <__multadd>
   161a0:	00050a93          	mv	s5,a0
   161a4:	000d0593          	mv	a1,s10
   161a8:	00000693          	li	a3,0
   161ac:	00a00613          	li	a2,10
   161b0:	00040513          	mv	a0,s0
   161b4:	3d0020ef          	jal	18584 <__multadd>
   161b8:	00050d13          	mv	s10,a0
   161bc:	00198993          	addi	s3,s3,1
   161c0:	f01ff06f          	j	160c0 <_dtoa_r+0x8d0>
   161c4:	01c00513          	li	a0,28
   161c8:	00ac8cb3          	add	s9,s9,a0
   161cc:	00ad8db3          	add	s11,s11,a0
   161d0:	00ad0d33          	add	s10,s10,a0
   161d4:	e6dff06f          	j	16040 <_dtoa_r+0x850>
   161d8:	000c0593          	mv	a1,s8
   161dc:	00090513          	mv	a0,s2
   161e0:	391020ef          	jal	18d70 <__mcmp>
   161e4:	e8055ae3          	bgez	a0,16078 <_dtoa_r+0x888>
   161e8:	00090593          	mv	a1,s2
   161ec:	00000693          	li	a3,0
   161f0:	00a00613          	li	a2,10
   161f4:	00040513          	mv	a0,s0
   161f8:	38c020ef          	jal	18584 <__multadd>
   161fc:	02012703          	lw	a4,32(sp)
   16200:	00050913          	mv	s2,a0
   16204:	fffb8b93          	addi	s7,s7,-1
   16208:	60071063          	bnez	a4,16808 <_dtoa_r+0x1018>
   1620c:	03c12703          	lw	a4,60(sp)
   16210:	00070b13          	mv	s6,a4
   16214:	00e04863          	bgtz	a4,16224 <_dtoa_r+0xa34>
   16218:	00200793          	li	a5,2
   1621c:	6347c863          	blt	a5,s4,1684c <_dtoa_r+0x105c>
   16220:	03c12b03          	lw	s6,60(sp)
   16224:	00048993          	mv	s3,s1
   16228:	00c0006f          	j	16234 <_dtoa_r+0xa44>
   1622c:	358020ef          	jal	18584 <__multadd>
   16230:	00050913          	mv	s2,a0
   16234:	000c0593          	mv	a1,s8
   16238:	00090513          	mv	a0,s2
   1623c:	bccff0ef          	jal	15608 <quorem>
   16240:	00198993          	addi	s3,s3,1
   16244:	03050c93          	addi	s9,a0,48
   16248:	409987b3          	sub	a5,s3,s1
   1624c:	00000693          	li	a3,0
   16250:	00a00613          	li	a2,10
   16254:	00090593          	mv	a1,s2
   16258:	00040513          	mv	a0,s0
   1625c:	ff998fa3          	sb	s9,-1(s3)
   16260:	fd67c6e3          	blt	a5,s6,1622c <_dtoa_r+0xa3c>
   16264:	4f605a63          	blez	s6,16758 <_dtoa_r+0xf68>
   16268:	01648db3          	add	s11,s1,s6
   1626c:	00000993          	li	s3,0
   16270:	00090593          	mv	a1,s2
   16274:	00100613          	li	a2,1
   16278:	00040513          	mv	a0,s0
   1627c:	1a5020ef          	jal	18c20 <__lshift>
   16280:	000c0593          	mv	a1,s8
   16284:	02a12823          	sw	a0,48(sp)
   16288:	2e9020ef          	jal	18d70 <__mcmp>
   1628c:	30a05863          	blez	a0,1659c <_dtoa_r+0xdac>
   16290:	fffdc703          	lbu	a4,-1(s11)
   16294:	03900693          	li	a3,57
   16298:	0100006f          	j	162a8 <_dtoa_r+0xab8>
   1629c:	26978063          	beq	a5,s1,164fc <_dtoa_r+0xd0c>
   162a0:	fff7c703          	lbu	a4,-1(a5)
   162a4:	00078d93          	mv	s11,a5
   162a8:	fffd8793          	addi	a5,s11,-1
   162ac:	fed708e3          	beq	a4,a3,1629c <_dtoa_r+0xaac>
   162b0:	00170713          	addi	a4,a4,1
   162b4:	00e78023          	sb	a4,0(a5)
   162b8:	000c0593          	mv	a1,s8
   162bc:	00040513          	mv	a0,s0
   162c0:	2a0020ef          	jal	18560 <_Bfree>
   162c4:	a00a88e3          	beqz	s5,15cd4 <_dtoa_r+0x4e4>
   162c8:	00098a63          	beqz	s3,162dc <_dtoa_r+0xaec>
   162cc:	01598863          	beq	s3,s5,162dc <_dtoa_r+0xaec>
   162d0:	00098593          	mv	a1,s3
   162d4:	00040513          	mv	a0,s0
   162d8:	288020ef          	jal	18560 <_Bfree>
   162dc:	000a8593          	mv	a1,s5
   162e0:	00040513          	mv	a0,s0
   162e4:	27c020ef          	jal	18560 <_Bfree>
   162e8:	9edff06f          	j	15cd4 <_dtoa_r+0x4e4>
   162ec:	000d0793          	mv	a5,s10
   162f0:	bf1ff06f          	j	15ee0 <_dtoa_r+0x6f0>
   162f4:	01812603          	lw	a2,24(sp)
   162f8:	c8061ce3          	bnez	a2,15f90 <_dtoa_r+0x7a0>
   162fc:	01c12783          	lw	a5,28(sp)
   16300:	02012823          	sw	zero,48(sp)
   16304:	00c79613          	slli	a2,a5,0xc
   16308:	02061263          	bnez	a2,1632c <_dtoa_r+0xb3c>
   1630c:	01c12703          	lw	a4,28(sp)
   16310:	7ff007b7          	lui	a5,0x7ff00
   16314:	00e7f7b3          	and	a5,a5,a4
   16318:	00078a63          	beqz	a5,1632c <_dtoa_r+0xb3c>
   1631c:	00100793          	li	a5,1
   16320:	001c8c93          	addi	s9,s9,1
   16324:	001d0d13          	addi	s10,s10,1
   16328:	02f12823          	sw	a5,48(sp)
   1632c:	03812703          	lw	a4,56(sp)
   16330:	00100513          	li	a0,1
   16334:	cc070ee3          	beqz	a4,16010 <_dtoa_r+0x820>
   16338:	c5dff06f          	j	15f94 <_dtoa_r+0x7a4>
   1633c:	00100713          	li	a4,1
   16340:	02e12023          	sw	a4,32(sp)
   16344:	11305a63          	blez	s3,16458 <_dtoa_r+0xc68>
   16348:	00098613          	mv	a2,s3
   1634c:	00098a93          	mv	s5,s3
   16350:	03312e23          	sw	s3,60(sp)
   16354:	00098b13          	mv	s6,s3
   16358:	f98ff06f          	j	15af0 <_dtoa_r+0x300>
   1635c:	a5604ce3          	bgtz	s6,15db4 <_dtoa_r+0x5c4>
   16360:	1e0b1e63          	bnez	s6,1655c <_dtoa_r+0xd6c>
   16364:	8601b007          	fld	ft0,-1952(gp) # 1ded0 <__wctomb+0x48>
   16368:	00000c13          	li	s8,0
   1636c:	00000a93          	li	s5,0
   16370:	12047453          	fmul.d	fs0,fs0,ft0
   16374:	01813007          	fld	ft0,24(sp)
   16378:	a28007d3          	fle.d	a5,ft0,fs0
   1637c:	16078663          	beqz	a5,164e8 <_dtoa_r+0xcf8>
   16380:	fff9cb93          	not	s7,s3
   16384:	00048d93          	mv	s11,s1
   16388:	000c0593          	mv	a1,s8
   1638c:	00040513          	mv	a0,s0
   16390:	1d0020ef          	jal	18560 <_Bfree>
   16394:	940a80e3          	beqz	s5,15cd4 <_dtoa_r+0x4e4>
   16398:	f45ff06f          	j	162dc <_dtoa_r+0xaec>
   1639c:	3c090263          	beqz	s2,16760 <_dtoa_r+0xf70>
   163a0:	43378793          	addi	a5,a5,1075 # 7ff00433 <_end+0x7fedfcc3>
   163a4:	000c0713          	mv	a4,s8
   163a8:	000c8d93          	mv	s11,s9
   163ac:	b05ff06f          	j	15eb0 <_dtoa_r+0x6c0>
   163b0:	03900793          	li	a5,57
   163b4:	04fc8a63          	beq	s9,a5,16408 <_dtoa_r+0xc18>
   163b8:	01605463          	blez	s6,163c0 <_dtoa_r+0xbd0>
   163bc:	031d8c93          	addi	s9,s11,49
   163c0:	01812703          	lw	a4,24(sp)
   163c4:	000a8993          	mv	s3,s5
   163c8:	03212823          	sw	s2,48(sp)
   163cc:	00170d93          	addi	s11,a4,1
   163d0:	01970023          	sb	s9,0(a4)
   163d4:	000d0a93          	mv	s5,s10
   163d8:	ee1ff06f          	j	162b8 <_dtoa_r+0xac8>
   163dc:	fee052e3          	blez	a4,163c0 <_dtoa_r+0xbd0>
   163e0:	00090593          	mv	a1,s2
   163e4:	00100613          	li	a2,1
   163e8:	00040513          	mv	a0,s0
   163ec:	035020ef          	jal	18c20 <__lshift>
   163f0:	000c0593          	mv	a1,s8
   163f4:	00050913          	mv	s2,a0
   163f8:	179020ef          	jal	18d70 <__mcmp>
   163fc:	3ea05e63          	blez	a0,167f8 <_dtoa_r+0x1008>
   16400:	03900793          	li	a5,57
   16404:	fafc9ce3          	bne	s9,a5,163bc <_dtoa_r+0xbcc>
   16408:	01812783          	lw	a5,24(sp)
   1640c:	01812703          	lw	a4,24(sp)
   16410:	000a8993          	mv	s3,s5
   16414:	00178d93          	addi	s11,a5,1
   16418:	03900793          	li	a5,57
   1641c:	00f70023          	sb	a5,0(a4)
   16420:	000d0a93          	mv	s5,s10
   16424:	03212823          	sw	s2,48(sp)
   16428:	03900713          	li	a4,57
   1642c:	e69ff06f          	j	16294 <_dtoa_r+0xaa4>
   16430:	01812703          	lw	a4,24(sp)
   16434:	bc071ce3          	bnez	a4,1600c <_dtoa_r+0x81c>
   16438:	ec5ff06f          	j	162fc <_dtoa_r+0xb0c>
   1643c:	148020ef          	jal	18584 <__multadd>
   16440:	00050a93          	mv	s5,a0
   16444:	00050d13          	mv	s10,a0
   16448:	00198993          	addi	s3,s3,1
   1644c:	c75ff06f          	j	160c0 <_dtoa_r+0x8d0>
   16450:	00048513          	mv	a0,s1
   16454:	c84ff06f          	j	158d8 <_dtoa_r+0xe8>
   16458:	00100a93          	li	s5,1
   1645c:	03512e23          	sw	s5,60(sp)
   16460:	000a8b13          	mv	s6,s5
   16464:	000a8993          	mv	s3,s5
   16468:	04042223          	sw	zero,68(s0)
   1646c:	00000593          	li	a1,0
   16470:	eb0ff06f          	j	15b20 <_dtoa_r+0x330>
   16474:	00200793          	li	a5,2
   16478:	02012023          	sw	zero,32(sp)
   1647c:	ecfa04e3          	beq	s4,a5,16344 <_dtoa_r+0xb54>
   16480:	04042223          	sw	zero,68(s0)
   16484:	00000593          	li	a1,0
   16488:	00040513          	mv	a0,s0
   1648c:	030020ef          	jal	184bc <_Balloc>
   16490:	fff00b13          	li	s6,-1
   16494:	00100713          	li	a4,1
   16498:	00050493          	mv	s1,a0
   1649c:	04a42023          	sw	a0,64(s0)
   164a0:	03612e23          	sw	s6,60(sp)
   164a4:	00000993          	li	s3,0
   164a8:	02e12023          	sw	a4,32(sp)
   164ac:	8e1ff06f          	j	15d8c <_dtoa_r+0x59c>
   164b0:	00200793          	li	a5,2
   164b4:	bd47d4e3          	ble	s4,a5,1607c <_dtoa_r+0x88c>
   164b8:	300b1263          	bnez	s6,167bc <_dtoa_r+0xfcc>
   164bc:	000c0593          	mv	a1,s8
   164c0:	00000693          	li	a3,0
   164c4:	00500613          	li	a2,5
   164c8:	00040513          	mv	a0,s0
   164cc:	0b8020ef          	jal	18584 <__multadd>
   164d0:	00050593          	mv	a1,a0
   164d4:	00050c13          	mv	s8,a0
   164d8:	00090513          	mv	a0,s2
   164dc:	095020ef          	jal	18d70 <__mcmp>
   164e0:	03212823          	sw	s2,48(sp)
   164e4:	e8a05ee3          	blez	a0,16380 <_dtoa_r+0xb90>
   164e8:	03100793          	li	a5,49
   164ec:	00148d93          	addi	s11,s1,1
   164f0:	00f48023          	sb	a5,0(s1)
   164f4:	001b8b93          	addi	s7,s7,1
   164f8:	e91ff06f          	j	16388 <_dtoa_r+0xb98>
   164fc:	03100793          	li	a5,49
   16500:	001b8b93          	addi	s7,s7,1
   16504:	00f48023          	sb	a5,0(s1)
   16508:	db1ff06f          	j	162b8 <_dtoa_r+0xac8>
   1650c:	02012023          	sw	zero,32(sp)
   16510:	dc8ff06f          	j	15ad8 <_dtoa_r+0x2e8>
   16514:	8581b087          	fld	ft1,-1960(gp) # 1dec8 <__wctomb+0x40>
   16518:	d20d8053          	fcvt.d.w	ft0,s11
   1651c:	fcc006b7          	lui	a3,0xfcc00
   16520:	0a0470c3          	fmadd.d	ft1,fs0,ft0,ft1
   16524:	00113027          	fsd	ft1,0(sp)
   16528:	00412783          	lw	a5,4(sp)
   1652c:	00012703          	lw	a4,0(sp)
   16530:	00f687b3          	add	a5,a3,a5
   16534:	00f12223          	sw	a5,4(sp)
   16538:	8601b007          	fld	ft0,-1952(gp) # 1ded0 <__wctomb+0x48>
   1653c:	00e12023          	sw	a4,0(sp)
   16540:	00013087          	fld	ft1,0(sp)
   16544:	0a047053          	fsub.d	ft0,fs0,ft0
   16548:	a20097d3          	flt.d	a5,ft1,ft0
   1654c:	1c079063          	bnez	a5,1670c <_dtoa_r+0xf1c>
   16550:	221090d3          	fneg.d	ft1,ft1
   16554:	a21017d3          	flt.d	a5,ft0,ft1
   16558:	82078ae3          	beqz	a5,15d8c <_dtoa_r+0x59c>
   1655c:	00000c13          	li	s8,0
   16560:	00000a93          	li	s5,0
   16564:	e1dff06f          	j	16380 <_dtoa_r+0xb90>
   16568:	00090593          	mv	a1,s2
   1656c:	000c0613          	mv	a2,s8
   16570:	00040513          	mv	a0,s0
   16574:	574020ef          	jal	18ae8 <__pow5mult>
   16578:	00050913          	mv	s2,a0
   1657c:	9e1ff06f          	j	15f5c <_dtoa_r+0x76c>
   16580:	03812783          	lw	a5,56(sp)
   16584:	41870c33          	sub	s8,a4,s8
   16588:	018787b3          	add	a5,a5,s8
   1658c:	02f12c23          	sw	a5,56(sp)
   16590:	00070c13          	mv	s8,a4
   16594:	00000713          	li	a4,0
   16598:	90dff06f          	j	15ea4 <_dtoa_r+0x6b4>
   1659c:	00051663          	bnez	a0,165a8 <_dtoa_r+0xdb8>
   165a0:	001cfc93          	andi	s9,s9,1
   165a4:	ce0c96e3          	bnez	s9,16290 <_dtoa_r+0xaa0>
   165a8:	03000693          	li	a3,48
   165ac:	0080006f          	j	165b4 <_dtoa_r+0xdc4>
   165b0:	00070d93          	mv	s11,a4
   165b4:	fffdc783          	lbu	a5,-1(s11)
   165b8:	fffd8713          	addi	a4,s11,-1
   165bc:	fed78ae3          	beq	a5,a3,165b0 <_dtoa_r+0xdc0>
   165c0:	cf9ff06f          	j	162b8 <_dtoa_r+0xac8>
   165c4:	03000793          	li	a5,48
   165c8:	00f48023          	sb	a5,0(s1)
   165cc:	001b8b93          	addi	s7,s7,1
   165d0:	fffdc783          	lbu	a5,-1(s11)
   165d4:	8a9ff06f          	j	15e7c <_dtoa_r+0x68c>
   165d8:	417007b3          	neg	a5,s7
   165dc:	01813407          	fld	fs0,24(sp)
   165e0:	00200d93          	li	s11,2
   165e4:	dc078c63          	beqz	a5,15bbc <_dtoa_r+0x3cc>
   165e8:	00f7f713          	andi	a4,a5,15
   165ec:	00371693          	slli	a3,a4,0x3
   165f0:	0001c737          	lui	a4,0x1c
   165f4:	03070713          	addi	a4,a4,48 # 1c030 <__mprec_tens>
   165f8:	00e68733          	add	a4,a3,a4
   165fc:	00073007          	fld	ft0,0(a4)
   16600:	4047d793          	srai	a5,a5,0x4
   16604:	12047453          	fmul.d	fs0,fs0,ft0
   16608:	da078a63          	beqz	a5,15bbc <_dtoa_r+0x3cc>
   1660c:	0001c737          	lui	a4,0x1c
   16610:	12070713          	addi	a4,a4,288 # 1c120 <__mprec_bigtens>
   16614:	0017f693          	andi	a3,a5,1
   16618:	4017d793          	srai	a5,a5,0x1
   1661c:	00068863          	beqz	a3,1662c <_dtoa_r+0xe3c>
   16620:	00073007          	fld	ft0,0(a4)
   16624:	001d8d93          	addi	s11,s11,1
   16628:	12047453          	fmul.d	fs0,fs0,ft0
   1662c:	00870713          	addi	a4,a4,8
   16630:	fe0792e3          	bnez	a5,16614 <_dtoa_r+0xe24>
   16634:	d88ff06f          	j	15bbc <_dtoa_r+0x3cc>
   16638:	004aa583          	lw	a1,4(s5)
   1663c:	00040513          	mv	a0,s0
   16640:	67d010ef          	jal	184bc <_Balloc>
   16644:	010aa603          	lw	a2,16(s5)
   16648:	00050993          	mv	s3,a0
   1664c:	00ca8593          	addi	a1,s5,12
   16650:	00260613          	addi	a2,a2,2
   16654:	00261613          	slli	a2,a2,0x2
   16658:	00c50513          	addi	a0,a0,12
   1665c:	935fc0ef          	jal	12f90 <memcpy>
   16660:	00100613          	li	a2,1
   16664:	00098593          	mv	a1,s3
   16668:	00040513          	mv	a0,s0
   1666c:	5b4020ef          	jal	18c20 <__lshift>
   16670:	00050d13          	mv	s10,a0
   16674:	a35ff06f          	j	160a8 <_dtoa_r+0x8b8>
   16678:	fff68593          	addi	a1,a3,-1 # fcbfffff <_end+0xfcbdf88f>
   1667c:	0001c637          	lui	a2,0x1c
   16680:	00359513          	slli	a0,a1,0x3
   16684:	03060613          	addi	a2,a2,48 # 1c030 <__mprec_tens>
   16688:	00f12223          	sw	a5,4(sp)
   1668c:	00c50633          	add	a2,a0,a2
   16690:	00e12023          	sw	a4,0(sp)
   16694:	00063187          	fld	ft3,0(a2)
   16698:	00013107          	fld	ft2,0(sp)
   1669c:	c2041653          	fcvt.w.d	a2,fs0,rtz
   166a0:	d2060053          	fcvt.d.w	ft0,a2
   166a4:	00100793          	li	a5,1
   166a8:	03060613          	addi	a2,a2,48
   166ac:	1221f1d3          	fmul.d	ft3,ft3,ft2
   166b0:	0a047053          	fsub.d	ft0,fs0,ft0
   166b4:	00148d93          	addi	s11,s1,1
   166b8:	00c48023          	sb	a2,0(s1)
   166bc:	02f68a63          	beq	a3,a5,166f0 <_dtoa_r+0xf00>
   166c0:	8501b107          	fld	ft2,-1968(gp) # 1dec0 <__wctomb+0x38>
   166c4:	00d486b3          	add	a3,s1,a3
   166c8:	000d8713          	mv	a4,s11
   166cc:	12207053          	fmul.d	ft0,ft0,ft2
   166d0:	00170713          	addi	a4,a4,1
   166d4:	c20017d3          	fcvt.w.d	a5,ft0,rtz
   166d8:	d20780d3          	fcvt.d.w	ft1,a5
   166dc:	03078793          	addi	a5,a5,48
   166e0:	0a107053          	fsub.d	ft0,ft0,ft1
   166e4:	fef70fa3          	sb	a5,-1(a4)
   166e8:	fee692e3          	bne	a3,a4,166cc <_dtoa_r+0xedc>
   166ec:	00bd8db3          	add	s11,s11,a1
   166f0:	8681b087          	fld	ft1,-1944(gp) # 1ded8 <__wctomb+0x50>
   166f4:	0211f153          	fadd.d	ft2,ft3,ft1
   166f8:	a20117d3          	flt.d	a5,ft2,ft0
   166fc:	0c078463          	beqz	a5,167c4 <_dtoa_r+0xfd4>
   16700:	fffdc783          	lbu	a5,-1(s11)
   16704:	000a8b93          	mv	s7,s5
   16708:	f58ff06f          	j	15e60 <_dtoa_r+0x670>
   1670c:	00000c13          	li	s8,0
   16710:	00000a93          	li	s5,0
   16714:	dd5ff06f          	j	164e8 <_dtoa_r+0xcf8>
   16718:	03900793          	li	a5,57
   1671c:	cefc86e3          	beq	s9,a5,16408 <_dtoa_r+0xc18>
   16720:	01812783          	lw	a5,24(sp)
   16724:	001c8c93          	addi	s9,s9,1
   16728:	000a8993          	mv	s3,s5
   1672c:	00178d93          	addi	s11,a5,1
   16730:	01978023          	sb	s9,0(a5)
   16734:	000d0a93          	mv	s5,s10
   16738:	03212823          	sw	s2,48(sp)
   1673c:	b7dff06f          	j	162b8 <_dtoa_r+0xac8>
   16740:	000a8993          	mv	s3,s5
   16744:	000d0a93          	mv	s5,s10
   16748:	b29ff06f          	j	16270 <_dtoa_r+0xa80>
   1674c:	416c8db3          	sub	s11,s9,s6
   16750:	00000793          	li	a5,0
   16754:	f5cff06f          	j	15eb0 <_dtoa_r+0x6c0>
   16758:	00100b13          	li	s6,1
   1675c:	b0dff06f          	j	16268 <_dtoa_r+0xa78>
   16760:	04812683          	lw	a3,72(sp)
   16764:	03600793          	li	a5,54
   16768:	000c0713          	mv	a4,s8
   1676c:	40d787b3          	sub	a5,a5,a3
   16770:	000c8d93          	mv	s11,s9
   16774:	f3cff06f          	j	15eb0 <_dtoa_r+0x6c0>
   16778:	d80b0ee3          	beqz	s6,16514 <_dtoa_r+0xd24>
   1677c:	03c12783          	lw	a5,60(sp)
   16780:	e0f05663          	blez	a5,15d8c <_dtoa_r+0x59c>
   16784:	8501b007          	fld	ft0,-1968(gp) # 1dec0 <__wctomb+0x38>
   16788:	8581b087          	fld	ft1,-1960(gp) # 1dec8 <__wctomb+0x40>
   1678c:	12047453          	fmul.d	fs0,fs0,ft0
   16790:	001d8d93          	addi	s11,s11,1
   16794:	d20d8053          	fcvt.d.w	ft0,s11
   16798:	fcc00637          	lui	a2,0xfcc00
   1679c:	fffb8a93          	addi	s5,s7,-1
   167a0:	03c12683          	lw	a3,60(sp)
   167a4:	0a0470c3          	fmadd.d	ft1,fs0,ft0,ft1
   167a8:	00113027          	fsd	ft1,0(sp)
   167ac:	00412783          	lw	a5,4(sp)
   167b0:	00012703          	lw	a4,0(sp)
   167b4:	00f607b3          	add	a5,a2,a5
   167b8:	c44ff06f          	j	15bfc <_dtoa_r+0x40c>
   167bc:	03212823          	sw	s2,48(sp)
   167c0:	bc1ff06f          	j	16380 <_dtoa_r+0xb90>
   167c4:	0a30f1d3          	fsub.d	ft3,ft1,ft3
   167c8:	03000693          	li	a3,48
   167cc:	a23017d3          	flt.d	a5,ft0,ft3
   167d0:	00079663          	bnez	a5,167dc <_dtoa_r+0xfec>
   167d4:	db8ff06f          	j	15d8c <_dtoa_r+0x59c>
   167d8:	00070d93          	mv	s11,a4
   167dc:	fffdc783          	lbu	a5,-1(s11)
   167e0:	fffd8713          	addi	a4,s11,-1
   167e4:	fed78ae3          	beq	a5,a3,167d8 <_dtoa_r+0xfe8>
   167e8:	000a8b93          	mv	s7,s5
   167ec:	ce8ff06f          	j	15cd4 <_dtoa_r+0x4e4>
   167f0:	000a8b93          	mv	s7,s5
   167f4:	e6cff06f          	j	15e60 <_dtoa_r+0x670>
   167f8:	bc0514e3          	bnez	a0,163c0 <_dtoa_r+0xbd0>
   167fc:	001cf793          	andi	a5,s9,1
   16800:	bc0780e3          	beqz	a5,163c0 <_dtoa_r+0xbd0>
   16804:	bfdff06f          	j	16400 <_dtoa_r+0xc10>
   16808:	000a8593          	mv	a1,s5
   1680c:	00000693          	li	a3,0
   16810:	00a00613          	li	a2,10
   16814:	00040513          	mv	a0,s0
   16818:	56d010ef          	jal	18584 <__multadd>
   1681c:	03c12783          	lw	a5,60(sp)
   16820:	00050a93          	mv	s5,a0
   16824:	00078b13          	mv	s6,a5
   16828:	84f04ee3          	bgtz	a5,16084 <_dtoa_r+0x894>
   1682c:	00200793          	li	a5,2
   16830:	0147ce63          	blt	a5,s4,1684c <_dtoa_r+0x105c>
   16834:	03c12b03          	lw	s6,60(sp)
   16838:	84dff06f          	j	16084 <_dtoa_r+0x894>
   1683c:	80e782e3          	beq	a5,a4,16040 <_dtoa_r+0x850>
   16840:	03c00793          	li	a5,60
   16844:	40a78533          	sub	a0,a5,a0
   16848:	981ff06f          	j	161c8 <_dtoa_r+0x9d8>
   1684c:	03c12b03          	lw	s6,60(sp)
   16850:	c69ff06f          	j	164b8 <_dtoa_r+0xcc8>

00016854 <_fflush_r>:
   16854:	fe010113          	addi	sp,sp,-32
   16858:	00812c23          	sw	s0,24(sp)
   1685c:	01312623          	sw	s3,12(sp)
   16860:	00112e23          	sw	ra,28(sp)
   16864:	00912a23          	sw	s1,20(sp)
   16868:	01212823          	sw	s2,16(sp)
   1686c:	00050993          	mv	s3,a0
   16870:	00058413          	mv	s0,a1
   16874:	00050663          	beqz	a0,16880 <_fflush_r+0x2c>
   16878:	03852783          	lw	a5,56(a0)
   1687c:	18078863          	beqz	a5,16a0c <_fflush_r+0x1b8>
   16880:	00c41783          	lh	a5,12(s0)
   16884:	10078063          	beqz	a5,16984 <_fflush_r+0x130>
   16888:	0087f713          	andi	a4,a5,8
   1688c:	10071c63          	bnez	a4,169a4 <_fflush_r+0x150>
   16890:	00001737          	lui	a4,0x1
   16894:	00442683          	lw	a3,4(s0)
   16898:	80070713          	addi	a4,a4,-2048 # 800 <_ftext-0xf800>
   1689c:	00e7e7b3          	or	a5,a5,a4
   168a0:	00f41623          	sh	a5,12(s0)
   168a4:	1ad05663          	blez	a3,16a50 <_fflush_r+0x1fc>
   168a8:	02842803          	lw	a6,40(s0)
   168ac:	0c080c63          	beqz	a6,16984 <_fflush_r+0x130>
   168b0:	01079793          	slli	a5,a5,0x10
   168b4:	0107d793          	srli	a5,a5,0x10
   168b8:	01379693          	slli	a3,a5,0x13
   168bc:	0009a483          	lw	s1,0(s3)
   168c0:	0009a023          	sw	zero,0(s3)
   168c4:	1406dc63          	bgez	a3,16a1c <_fflush_r+0x1c8>
   168c8:	05042603          	lw	a2,80(s0)
   168cc:	41f65693          	srai	a3,a2,0x1f
   168d0:	0047f793          	andi	a5,a5,4
   168d4:	04078263          	beqz	a5,16918 <_fflush_r+0xc4>
   168d8:	00442503          	lw	a0,4(s0)
   168dc:	03042703          	lw	a4,48(s0)
   168e0:	40a607b3          	sub	a5,a2,a0
   168e4:	41f55513          	srai	a0,a0,0x1f
   168e8:	00f635b3          	sltu	a1,a2,a5
   168ec:	40a686b3          	sub	a3,a3,a0
   168f0:	00078613          	mv	a2,a5
   168f4:	40b686b3          	sub	a3,a3,a1
   168f8:	02070063          	beqz	a4,16918 <_fflush_r+0xc4>
   168fc:	03c42503          	lw	a0,60(s0)
   16900:	40a787b3          	sub	a5,a5,a0
   16904:	41f55513          	srai	a0,a0,0x1f
   16908:	00f63733          	sltu	a4,a2,a5
   1690c:	40a686b3          	sub	a3,a3,a0
   16910:	00078613          	mv	a2,a5
   16914:	40e686b3          	sub	a3,a3,a4
   16918:	01c42583          	lw	a1,28(s0)
   1691c:	00000713          	li	a4,0
   16920:	00098513          	mv	a0,s3
   16924:	000800e7          	jalr	a6
   16928:	fff00793          	li	a5,-1
   1692c:	12f50863          	beq	a0,a5,16a5c <_fflush_r+0x208>
   16930:	00c45683          	lhu	a3,12(s0)
   16934:	fffff7b7          	lui	a5,0xfffff
   16938:	7ff78793          	addi	a5,a5,2047 # fffff7ff <_end+0xfffdf08f>
   1693c:	01042703          	lw	a4,16(s0)
   16940:	00f6f7b3          	and	a5,a3,a5
   16944:	01079793          	slli	a5,a5,0x10
   16948:	4107d793          	srai	a5,a5,0x10
   1694c:	00e42023          	sw	a4,0(s0)
   16950:	01379713          	slli	a4,a5,0x13
   16954:	00f41623          	sh	a5,12(s0)
   16958:	00042223          	sw	zero,4(s0)
   1695c:	00075463          	bgez	a4,16964 <_fflush_r+0x110>
   16960:	04a42823          	sw	a0,80(s0)
   16964:	03042583          	lw	a1,48(s0)
   16968:	0099a023          	sw	s1,0(s3)
   1696c:	00058c63          	beqz	a1,16984 <_fflush_r+0x130>
   16970:	04040793          	addi	a5,s0,64
   16974:	00f58663          	beq	a1,a5,16980 <_fflush_r+0x12c>
   16978:	00098513          	mv	a0,s3
   1697c:	608000ef          	jal	16f84 <_free_r>
   16980:	02042823          	sw	zero,48(s0)
   16984:	00000513          	li	a0,0
   16988:	01c12083          	lw	ra,28(sp)
   1698c:	01812403          	lw	s0,24(sp)
   16990:	01412483          	lw	s1,20(sp)
   16994:	01012903          	lw	s2,16(sp)
   16998:	00c12983          	lw	s3,12(sp)
   1699c:	02010113          	addi	sp,sp,32
   169a0:	00008067          	ret
   169a4:	01042903          	lw	s2,16(s0)
   169a8:	fc090ee3          	beqz	s2,16984 <_fflush_r+0x130>
   169ac:	00042483          	lw	s1,0(s0)
   169b0:	0037f793          	andi	a5,a5,3
   169b4:	01242023          	sw	s2,0(s0)
   169b8:	412484b3          	sub	s1,s1,s2
   169bc:	00000713          	li	a4,0
   169c0:	04078a63          	beqz	a5,16a14 <_fflush_r+0x1c0>
   169c4:	00e42423          	sw	a4,8(s0)
   169c8:	00904863          	bgtz	s1,169d8 <_fflush_r+0x184>
   169cc:	fb9ff06f          	j	16984 <_fflush_r+0x130>
   169d0:	00a90933          	add	s2,s2,a0
   169d4:	fa9058e3          	blez	s1,16984 <_fflush_r+0x130>
   169d8:	02442783          	lw	a5,36(s0)
   169dc:	01c42583          	lw	a1,28(s0)
   169e0:	00048693          	mv	a3,s1
   169e4:	00090613          	mv	a2,s2
   169e8:	00098513          	mv	a0,s3
   169ec:	000780e7          	jalr	a5
   169f0:	40a484b3          	sub	s1,s1,a0
   169f4:	fca04ee3          	bgtz	a0,169d0 <_fflush_r+0x17c>
   169f8:	00c45783          	lhu	a5,12(s0)
   169fc:	fff00513          	li	a0,-1
   16a00:	0407e793          	ori	a5,a5,64
   16a04:	00f41623          	sh	a5,12(s0)
   16a08:	f81ff06f          	j	16988 <_fflush_r+0x134>
   16a0c:	438000ef          	jal	16e44 <__sinit>
   16a10:	e71ff06f          	j	16880 <_fflush_r+0x2c>
   16a14:	01442703          	lw	a4,20(s0)
   16a18:	fadff06f          	j	169c4 <_fflush_r+0x170>
   16a1c:	01c42583          	lw	a1,28(s0)
   16a20:	00000613          	li	a2,0
   16a24:	00000693          	li	a3,0
   16a28:	00100713          	li	a4,1
   16a2c:	00098513          	mv	a0,s3
   16a30:	000800e7          	jalr	a6
   16a34:	fff00793          	li	a5,-1
   16a38:	00050613          	mv	a2,a0
   16a3c:	00058693          	mv	a3,a1
   16a40:	06f50c63          	beq	a0,a5,16ab8 <_fflush_r+0x264>
   16a44:	00c45783          	lhu	a5,12(s0)
   16a48:	02842803          	lw	a6,40(s0)
   16a4c:	e85ff06f          	j	168d0 <_fflush_r+0x7c>
   16a50:	03c42703          	lw	a4,60(s0)
   16a54:	e4e04ae3          	bgtz	a4,168a8 <_fflush_r+0x54>
   16a58:	f2dff06f          	j	16984 <_fflush_r+0x130>
   16a5c:	eca59ae3          	bne	a1,a0,16930 <_fflush_r+0xdc>
   16a60:	0009a703          	lw	a4,0(s3)
   16a64:	01d00793          	li	a5,29
   16a68:	f8e7e8e3          	bltu	a5,a4,169f8 <_fflush_r+0x1a4>
   16a6c:	204007b7          	lui	a5,0x20400
   16a70:	00178793          	addi	a5,a5,1 # 20400001 <_end+0x203df891>
   16a74:	00e7d7b3          	srl	a5,a5,a4
   16a78:	0017f793          	andi	a5,a5,1
   16a7c:	f6078ee3          	beqz	a5,169f8 <_fflush_r+0x1a4>
   16a80:	00c45603          	lhu	a2,12(s0)
   16a84:	fffff7b7          	lui	a5,0xfffff
   16a88:	7ff78793          	addi	a5,a5,2047 # fffff7ff <_end+0xfffdf08f>
   16a8c:	01042683          	lw	a3,16(s0)
   16a90:	00f677b3          	and	a5,a2,a5
   16a94:	01079793          	slli	a5,a5,0x10
   16a98:	4107d793          	srai	a5,a5,0x10
   16a9c:	00d42023          	sw	a3,0(s0)
   16aa0:	01379693          	slli	a3,a5,0x13
   16aa4:	00f41623          	sh	a5,12(s0)
   16aa8:	00042223          	sw	zero,4(s0)
   16aac:	ea06dce3          	bgez	a3,16964 <_fflush_r+0x110>
   16ab0:	ea071ae3          	bnez	a4,16964 <_fflush_r+0x110>
   16ab4:	eadff06f          	j	16960 <_fflush_r+0x10c>
   16ab8:	f8a596e3          	bne	a1,a0,16a44 <_fflush_r+0x1f0>
   16abc:	0009a783          	lw	a5,0(s3)
   16ac0:	f80782e3          	beqz	a5,16a44 <_fflush_r+0x1f0>
   16ac4:	01d00713          	li	a4,29
   16ac8:	00e78663          	beq	a5,a4,16ad4 <_fflush_r+0x280>
   16acc:	01600713          	li	a4,22
   16ad0:	00e79863          	bne	a5,a4,16ae0 <_fflush_r+0x28c>
   16ad4:	0099a023          	sw	s1,0(s3)
   16ad8:	00000513          	li	a0,0
   16adc:	eadff06f          	j	16988 <_fflush_r+0x134>
   16ae0:	00c45783          	lhu	a5,12(s0)
   16ae4:	00058513          	mv	a0,a1
   16ae8:	0407e793          	ori	a5,a5,64
   16aec:	00f41623          	sh	a5,12(s0)
   16af0:	e99ff06f          	j	16988 <_fflush_r+0x134>

00016af4 <fflush>:
   16af4:	00050593          	mv	a1,a0
   16af8:	00050663          	beqz	a0,16b04 <fflush+0x10>
   16afc:	8081a503          	lw	a0,-2040(gp) # 1de78 <_impure_ptr>
   16b00:	d55ff06f          	j	16854 <_fflush_r>
   16b04:	8041a503          	lw	a0,-2044(gp) # 1de74 <_global_impure_ptr>
   16b08:	000175b7          	lui	a1,0x17
   16b0c:	85458593          	addi	a1,a1,-1964 # 16854 <_fflush_r>
   16b10:	4910006f          	j	177a0 <_fwalk_reent>

00016b14 <__fp_unlock>:
   16b14:	00000513          	li	a0,0
   16b18:	00008067          	ret

00016b1c <_cleanup_r>:
   16b1c:	0001b5b7          	lui	a1,0x1b
   16b20:	f8c58593          	addi	a1,a1,-116 # 1af8c <fclose>
   16b24:	3d90006f          	j	176fc <_fwalk>

00016b28 <__sinit.part.1>:
   16b28:	fd010113          	addi	sp,sp,-48
   16b2c:	000177b7          	lui	a5,0x17
   16b30:	02812423          	sw	s0,40(sp)
   16b34:	b1c78793          	addi	a5,a5,-1252 # 16b1c <_cleanup_r>
   16b38:	00452403          	lw	s0,4(a0)
   16b3c:	02112623          	sw	ra,44(sp)
   16b40:	02912223          	sw	s1,36(sp)
   16b44:	03212023          	sw	s2,32(sp)
   16b48:	01312e23          	sw	s3,28(sp)
   16b4c:	01412c23          	sw	s4,24(sp)
   16b50:	01512a23          	sw	s5,20(sp)
   16b54:	01612823          	sw	s6,16(sp)
   16b58:	01712623          	sw	s7,12(sp)
   16b5c:	02f52e23          	sw	a5,60(a0)
   16b60:	00300793          	li	a5,3
   16b64:	2ef52223          	sw	a5,740(a0)
   16b68:	2ec50713          	addi	a4,a0,748
   16b6c:	00100b93          	li	s7,1
   16b70:	00400793          	li	a5,4
   16b74:	2ee52423          	sw	a4,744(a0)
   16b78:	03752c23          	sw	s7,56(a0)
   16b7c:	2e052023          	sw	zero,736(a0)
   16b80:	00050913          	mv	s2,a0
   16b84:	00f41623          	sh	a5,12(s0)
   16b88:	00800613          	li	a2,8
   16b8c:	00000593          	li	a1,0
   16b90:	00042023          	sw	zero,0(s0)
   16b94:	00042223          	sw	zero,4(s0)
   16b98:	00042423          	sw	zero,8(s0)
   16b9c:	06042223          	sw	zero,100(s0)
   16ba0:	00041723          	sh	zero,14(s0)
   16ba4:	00042823          	sw	zero,16(s0)
   16ba8:	00042a23          	sw	zero,20(s0)
   16bac:	00042c23          	sw	zero,24(s0)
   16bb0:	05c40513          	addi	a0,s0,92
   16bb4:	025010ef          	jal	183d8 <memset>
   16bb8:	00892483          	lw	s1,8(s2)
   16bbc:	0001ab37          	lui	s6,0x1a
   16bc0:	0001aab7          	lui	s5,0x1a
   16bc4:	0001aa37          	lui	s4,0x1a
   16bc8:	0001a9b7          	lui	s3,0x1a
   16bcc:	ab4b0b13          	addi	s6,s6,-1356 # 19ab4 <__sread>
   16bd0:	b20a8a93          	addi	s5,s5,-1248 # 19b20 <__swrite>
   16bd4:	b98a0a13          	addi	s4,s4,-1128 # 19b98 <__sseek>
   16bd8:	c0098993          	addi	s3,s3,-1024 # 19c00 <__sclose>
   16bdc:	00900793          	li	a5,9
   16be0:	03642023          	sw	s6,32(s0)
   16be4:	03542223          	sw	s5,36(s0)
   16be8:	03442423          	sw	s4,40(s0)
   16bec:	03342623          	sw	s3,44(s0)
   16bf0:	00842e23          	sw	s0,28(s0)
   16bf4:	00800613          	li	a2,8
   16bf8:	00f49623          	sh	a5,12(s1)
   16bfc:	01749723          	sh	s7,14(s1)
   16c00:	00000593          	li	a1,0
   16c04:	0004a023          	sw	zero,0(s1)
   16c08:	0004a223          	sw	zero,4(s1)
   16c0c:	0004a423          	sw	zero,8(s1)
   16c10:	0604a223          	sw	zero,100(s1)
   16c14:	0004a823          	sw	zero,16(s1)
   16c18:	0004aa23          	sw	zero,20(s1)
   16c1c:	0004ac23          	sw	zero,24(s1)
   16c20:	05c48513          	addi	a0,s1,92
   16c24:	7b4010ef          	jal	183d8 <memset>
   16c28:	00c92403          	lw	s0,12(s2)
   16c2c:	01200793          	li	a5,18
   16c30:	0364a023          	sw	s6,32(s1)
   16c34:	0354a223          	sw	s5,36(s1)
   16c38:	0344a423          	sw	s4,40(s1)
   16c3c:	0334a623          	sw	s3,44(s1)
   16c40:	0094ae23          	sw	s1,28(s1)
   16c44:	00f41623          	sh	a5,12(s0)
   16c48:	00200793          	li	a5,2
   16c4c:	00042023          	sw	zero,0(s0)
   16c50:	00042223          	sw	zero,4(s0)
   16c54:	00042423          	sw	zero,8(s0)
   16c58:	06042223          	sw	zero,100(s0)
   16c5c:	00f41723          	sh	a5,14(s0)
   16c60:	00042823          	sw	zero,16(s0)
   16c64:	00042a23          	sw	zero,20(s0)
   16c68:	00042c23          	sw	zero,24(s0)
   16c6c:	05c40513          	addi	a0,s0,92
   16c70:	00800613          	li	a2,8
   16c74:	00000593          	li	a1,0
   16c78:	760010ef          	jal	183d8 <memset>
   16c7c:	02c12083          	lw	ra,44(sp)
   16c80:	03642023          	sw	s6,32(s0)
   16c84:	03542223          	sw	s5,36(s0)
   16c88:	03442423          	sw	s4,40(s0)
   16c8c:	03342623          	sw	s3,44(s0)
   16c90:	00842e23          	sw	s0,28(s0)
   16c94:	02412483          	lw	s1,36(sp)
   16c98:	02812403          	lw	s0,40(sp)
   16c9c:	02012903          	lw	s2,32(sp)
   16ca0:	01c12983          	lw	s3,28(sp)
   16ca4:	01812a03          	lw	s4,24(sp)
   16ca8:	01412a83          	lw	s5,20(sp)
   16cac:	01012b03          	lw	s6,16(sp)
   16cb0:	00c12b83          	lw	s7,12(sp)
   16cb4:	03010113          	addi	sp,sp,48
   16cb8:	00008067          	ret

00016cbc <__fp_lock>:
   16cbc:	00000513          	li	a0,0
   16cc0:	00008067          	ret

00016cc4 <__sfmoreglue>:
   16cc4:	ff010113          	addi	sp,sp,-16
   16cc8:	00912223          	sw	s1,4(sp)
   16ccc:	06800493          	li	s1,104
   16cd0:	029584b3          	mul	s1,a1,s1
   16cd4:	01212023          	sw	s2,0(sp)
   16cd8:	00058913          	mv	s2,a1
   16cdc:	00812423          	sw	s0,8(sp)
   16ce0:	00112623          	sw	ra,12(sp)
   16ce4:	00c48593          	addi	a1,s1,12
   16ce8:	5bd000ef          	jal	17aa4 <_malloc_r>
   16cec:	00050413          	mv	s0,a0
   16cf0:	02050063          	beqz	a0,16d10 <__sfmoreglue+0x4c>
   16cf4:	00c50513          	addi	a0,a0,12
   16cf8:	00042023          	sw	zero,0(s0)
   16cfc:	01242223          	sw	s2,4(s0)
   16d00:	00a42423          	sw	a0,8(s0)
   16d04:	00048613          	mv	a2,s1
   16d08:	00000593          	li	a1,0
   16d0c:	6cc010ef          	jal	183d8 <memset>
   16d10:	00c12083          	lw	ra,12(sp)
   16d14:	00040513          	mv	a0,s0
   16d18:	00412483          	lw	s1,4(sp)
   16d1c:	00812403          	lw	s0,8(sp)
   16d20:	00012903          	lw	s2,0(sp)
   16d24:	01010113          	addi	sp,sp,16
   16d28:	00008067          	ret

00016d2c <__sfp>:
   16d2c:	fe010113          	addi	sp,sp,-32
   16d30:	01212823          	sw	s2,16(sp)
   16d34:	8041a903          	lw	s2,-2044(gp) # 1de74 <_global_impure_ptr>
   16d38:	01312623          	sw	s3,12(sp)
   16d3c:	00112e23          	sw	ra,28(sp)
   16d40:	03892783          	lw	a5,56(s2)
   16d44:	00812c23          	sw	s0,24(sp)
   16d48:	00912a23          	sw	s1,20(sp)
   16d4c:	00050993          	mv	s3,a0
   16d50:	00079663          	bnez	a5,16d5c <__sfp+0x30>
   16d54:	00090513          	mv	a0,s2
   16d58:	dd1ff0ef          	jal	16b28 <__sinit.part.1>
   16d5c:	2e090913          	addi	s2,s2,736
   16d60:	fff00493          	li	s1,-1
   16d64:	00492783          	lw	a5,4(s2)
   16d68:	00892403          	lw	s0,8(s2)
   16d6c:	fff78793          	addi	a5,a5,-1
   16d70:	0007da63          	bgez	a5,16d84 <__sfp+0x58>
   16d74:	0840006f          	j	16df8 <__sfp+0xcc>
   16d78:	fff78793          	addi	a5,a5,-1
   16d7c:	06840413          	addi	s0,s0,104
   16d80:	06978c63          	beq	a5,s1,16df8 <__sfp+0xcc>
   16d84:	00c41703          	lh	a4,12(s0)
   16d88:	fe0718e3          	bnez	a4,16d78 <__sfp+0x4c>
   16d8c:	fff00793          	li	a5,-1
   16d90:	00f41723          	sh	a5,14(s0)
   16d94:	00100793          	li	a5,1
   16d98:	00f41623          	sh	a5,12(s0)
   16d9c:	06042223          	sw	zero,100(s0)
   16da0:	00042023          	sw	zero,0(s0)
   16da4:	00042423          	sw	zero,8(s0)
   16da8:	00042223          	sw	zero,4(s0)
   16dac:	00042823          	sw	zero,16(s0)
   16db0:	00042a23          	sw	zero,20(s0)
   16db4:	00042c23          	sw	zero,24(s0)
   16db8:	00800613          	li	a2,8
   16dbc:	00000593          	li	a1,0
   16dc0:	05c40513          	addi	a0,s0,92
   16dc4:	614010ef          	jal	183d8 <memset>
   16dc8:	02042823          	sw	zero,48(s0)
   16dcc:	02042a23          	sw	zero,52(s0)
   16dd0:	04042223          	sw	zero,68(s0)
   16dd4:	04042423          	sw	zero,72(s0)
   16dd8:	00040513          	mv	a0,s0
   16ddc:	01c12083          	lw	ra,28(sp)
   16de0:	01812403          	lw	s0,24(sp)
   16de4:	01412483          	lw	s1,20(sp)
   16de8:	01012903          	lw	s2,16(sp)
   16dec:	00c12983          	lw	s3,12(sp)
   16df0:	02010113          	addi	sp,sp,32
   16df4:	00008067          	ret
   16df8:	00092783          	lw	a5,0(s2)
   16dfc:	00078663          	beqz	a5,16e08 <__sfp+0xdc>
   16e00:	00078913          	mv	s2,a5
   16e04:	f61ff06f          	j	16d64 <__sfp+0x38>
   16e08:	00400593          	li	a1,4
   16e0c:	00098513          	mv	a0,s3
   16e10:	eb5ff0ef          	jal	16cc4 <__sfmoreglue>
   16e14:	00a92023          	sw	a0,0(s2)
   16e18:	00050663          	beqz	a0,16e24 <__sfp+0xf8>
   16e1c:	00050913          	mv	s2,a0
   16e20:	f45ff06f          	j	16d64 <__sfp+0x38>
   16e24:	00c00793          	li	a5,12
   16e28:	00f9a023          	sw	a5,0(s3)
   16e2c:	00000513          	li	a0,0
   16e30:	fadff06f          	j	16ddc <__sfp+0xb0>

00016e34 <_cleanup>:
   16e34:	8041a503          	lw	a0,-2044(gp) # 1de74 <_global_impure_ptr>
   16e38:	0001b5b7          	lui	a1,0x1b
   16e3c:	f8c58593          	addi	a1,a1,-116 # 1af8c <fclose>
   16e40:	0bd0006f          	j	176fc <_fwalk>

00016e44 <__sinit>:
   16e44:	03852783          	lw	a5,56(a0)
   16e48:	00078463          	beqz	a5,16e50 <__sinit+0xc>
   16e4c:	00008067          	ret
   16e50:	cd9ff06f          	j	16b28 <__sinit.part.1>

00016e54 <__sfp_lock_acquire>:
   16e54:	00008067          	ret

00016e58 <__sfp_lock_release>:
   16e58:	00008067          	ret

00016e5c <__sinit_lock_acquire>:
   16e5c:	00008067          	ret

00016e60 <__sinit_lock_release>:
   16e60:	00008067          	ret

00016e64 <__fp_lock_all>:
   16e64:	8081a503          	lw	a0,-2040(gp) # 1de78 <_impure_ptr>
   16e68:	000175b7          	lui	a1,0x17
   16e6c:	cbc58593          	addi	a1,a1,-836 # 16cbc <__fp_lock>
   16e70:	08d0006f          	j	176fc <_fwalk>

00016e74 <__fp_unlock_all>:
   16e74:	8081a503          	lw	a0,-2040(gp) # 1de78 <_impure_ptr>
   16e78:	000175b7          	lui	a1,0x17
   16e7c:	b1458593          	addi	a1,a1,-1260 # 16b14 <__fp_unlock>
   16e80:	07d0006f          	j	176fc <_fwalk>

00016e84 <_malloc_trim_r>:
   16e84:	fe010113          	addi	sp,sp,-32
   16e88:	01212823          	sw	s2,16(sp)
   16e8c:	0001e937          	lui	s2,0x1e
   16e90:	a6890913          	addi	s2,s2,-1432 # 1da68 <__malloc_av_>
   16e94:	00812c23          	sw	s0,24(sp)
   16e98:	00912a23          	sw	s1,20(sp)
   16e9c:	00058413          	mv	s0,a1
   16ea0:	01312623          	sw	s3,12(sp)
   16ea4:	00112e23          	sw	ra,28(sp)
   16ea8:	00050993          	mv	s3,a0
   16eac:	608010ef          	jal	184b4 <__malloc_lock>
   16eb0:	00892703          	lw	a4,8(s2)
   16eb4:	000017b7          	lui	a5,0x1
   16eb8:	fef78593          	addi	a1,a5,-17 # fef <_ftext-0xf011>
   16ebc:	00472483          	lw	s1,4(a4)
   16ec0:	ffc4f493          	andi	s1,s1,-4
   16ec4:	40848433          	sub	s0,s1,s0
   16ec8:	00b40433          	add	s0,s0,a1
   16ecc:	00c45413          	srli	s0,s0,0xc
   16ed0:	fff40413          	addi	s0,s0,-1
   16ed4:	00c41413          	slli	s0,s0,0xc
   16ed8:	00f44c63          	blt	s0,a5,16ef0 <_malloc_trim_r+0x6c>
   16edc:	00000513          	li	a0,0
   16ee0:	7e4040ef          	jal	1b6c4 <sbrk>
   16ee4:	00892783          	lw	a5,8(s2)
   16ee8:	009787b3          	add	a5,a5,s1
   16eec:	02f50663          	beq	a0,a5,16f18 <_malloc_trim_r+0x94>
   16ef0:	00098513          	mv	a0,s3
   16ef4:	5c4010ef          	jal	184b8 <__malloc_unlock>
   16ef8:	00000513          	li	a0,0
   16efc:	01c12083          	lw	ra,28(sp)
   16f00:	01812403          	lw	s0,24(sp)
   16f04:	01412483          	lw	s1,20(sp)
   16f08:	01012903          	lw	s2,16(sp)
   16f0c:	00c12983          	lw	s3,12(sp)
   16f10:	02010113          	addi	sp,sp,32
   16f14:	00008067          	ret
   16f18:	40800533          	neg	a0,s0
   16f1c:	7a8040ef          	jal	1b6c4 <sbrk>
   16f20:	fff00793          	li	a5,-1
   16f24:	02f50863          	beq	a0,a5,16f54 <_malloc_trim_r+0xd0>
   16f28:	8ac1a783          	lw	a5,-1876(gp) # 1df1c <__malloc_current_mallinfo>
   16f2c:	00892683          	lw	a3,8(s2)
   16f30:	408484b3          	sub	s1,s1,s0
   16f34:	0014e493          	ori	s1,s1,1
   16f38:	40878433          	sub	s0,a5,s0
   16f3c:	00098513          	mv	a0,s3
   16f40:	0096a223          	sw	s1,4(a3)
   16f44:	8a81a623          	sw	s0,-1876(gp) # 1df1c <__malloc_current_mallinfo>
   16f48:	570010ef          	jal	184b8 <__malloc_unlock>
   16f4c:	00100513          	li	a0,1
   16f50:	fadff06f          	j	16efc <_malloc_trim_r+0x78>
   16f54:	00000513          	li	a0,0
   16f58:	76c040ef          	jal	1b6c4 <sbrk>
   16f5c:	00892703          	lw	a4,8(s2)
   16f60:	00f00693          	li	a3,15
   16f64:	40e507b3          	sub	a5,a0,a4
   16f68:	f8f6d4e3          	ble	a5,a3,16ef0 <_malloc_trim_r+0x6c>
   16f6c:	8101a683          	lw	a3,-2032(gp) # 1de80 <__malloc_sbrk_base>
   16f70:	0017e793          	ori	a5,a5,1
   16f74:	00f72223          	sw	a5,4(a4)
   16f78:	40d50533          	sub	a0,a0,a3
   16f7c:	8aa1a623          	sw	a0,-1876(gp) # 1df1c <__malloc_current_mallinfo>
   16f80:	f71ff06f          	j	16ef0 <_malloc_trim_r+0x6c>

00016f84 <_free_r>:
   16f84:	0e058e63          	beqz	a1,17080 <_free_r+0xfc>
   16f88:	ff010113          	addi	sp,sp,-16
   16f8c:	00812423          	sw	s0,8(sp)
   16f90:	00058413          	mv	s0,a1
   16f94:	00912223          	sw	s1,4(sp)
   16f98:	00112623          	sw	ra,12(sp)
   16f9c:	00050493          	mv	s1,a0
   16fa0:	514010ef          	jal	184b4 <__malloc_lock>
   16fa4:	ffc42503          	lw	a0,-4(s0)
   16fa8:	ff840613          	addi	a2,s0,-8
   16fac:	0001e5b7          	lui	a1,0x1e
   16fb0:	ffe57793          	andi	a5,a0,-2
   16fb4:	00f606b3          	add	a3,a2,a5
   16fb8:	a6858593          	addi	a1,a1,-1432 # 1da68 <__malloc_av_>
   16fbc:	0046a703          	lw	a4,4(a3)
   16fc0:	0085a803          	lw	a6,8(a1)
   16fc4:	00157513          	andi	a0,a0,1
   16fc8:	ffc77713          	andi	a4,a4,-4
   16fcc:	15068463          	beq	a3,a6,17114 <_free_r+0x190>
   16fd0:	00e6a223          	sw	a4,4(a3)
   16fd4:	02051663          	bnez	a0,17000 <_free_r+0x7c>
   16fd8:	ff842503          	lw	a0,-8(s0)
   16fdc:	40a60633          	sub	a2,a2,a0
   16fe0:	00862803          	lw	a6,8(a2) # fcc00008 <_end+0xfcbdf898>
   16fe4:	00a787b3          	add	a5,a5,a0
   16fe8:	0001e537          	lui	a0,0x1e
   16fec:	a7050513          	addi	a0,a0,-1424 # 1da70 <__malloc_av_+0x8>
   16ff0:	16a80663          	beq	a6,a0,1715c <_free_r+0x1d8>
   16ff4:	00c62503          	lw	a0,12(a2)
   16ff8:	00a82623          	sw	a0,12(a6)
   16ffc:	01052423          	sw	a6,8(a0)
   17000:	00e68533          	add	a0,a3,a4
   17004:	00452503          	lw	a0,4(a0)
   17008:	00157513          	andi	a0,a0,1
   1700c:	0c050a63          	beqz	a0,170e0 <_free_r+0x15c>
   17010:	0017e693          	ori	a3,a5,1
   17014:	00f60733          	add	a4,a2,a5
   17018:	00d62223          	sw	a3,4(a2)
   1701c:	00f72023          	sw	a5,0(a4)
   17020:	1ff00713          	li	a4,511
   17024:	06f76063          	bltu	a4,a5,17084 <_free_r+0x100>
   17028:	0037d793          	srli	a5,a5,0x3
   1702c:	00178713          	addi	a4,a5,1
   17030:	00371713          	slli	a4,a4,0x3
   17034:	0045a683          	lw	a3,4(a1)
   17038:	00e58733          	add	a4,a1,a4
   1703c:	00072803          	lw	a6,0(a4)
   17040:	4027d793          	srai	a5,a5,0x2
   17044:	00100513          	li	a0,1
   17048:	00f517b3          	sll	a5,a0,a5
   1704c:	00d7e7b3          	or	a5,a5,a3
   17050:	ff870693          	addi	a3,a4,-8
   17054:	00d62623          	sw	a3,12(a2)
   17058:	01062423          	sw	a6,8(a2)
   1705c:	00f5a223          	sw	a5,4(a1)
   17060:	00c72023          	sw	a2,0(a4)
   17064:	00c82623          	sw	a2,12(a6)
   17068:	00048513          	mv	a0,s1
   1706c:	00c12083          	lw	ra,12(sp)
   17070:	00812403          	lw	s0,8(sp)
   17074:	00412483          	lw	s1,4(sp)
   17078:	01010113          	addi	sp,sp,16
   1707c:	43c0106f          	j	184b8 <__malloc_unlock>
   17080:	00008067          	ret
   17084:	0097d713          	srli	a4,a5,0x9
   17088:	00400693          	li	a3,4
   1708c:	10e6e463          	bltu	a3,a4,17194 <_free_r+0x210>
   17090:	0067d713          	srli	a4,a5,0x6
   17094:	03970513          	addi	a0,a4,57
   17098:	03870693          	addi	a3,a4,56
   1709c:	00151513          	slli	a0,a0,0x1
   170a0:	00251513          	slli	a0,a0,0x2
   170a4:	00a58533          	add	a0,a1,a0
   170a8:	00052703          	lw	a4,0(a0)
   170ac:	ff850513          	addi	a0,a0,-8
   170b0:	0ee50e63          	beq	a0,a4,171ac <_free_r+0x228>
   170b4:	00472683          	lw	a3,4(a4)
   170b8:	ffc6f693          	andi	a3,a3,-4
   170bc:	00d7f663          	bleu	a3,a5,170c8 <_free_r+0x144>
   170c0:	00872703          	lw	a4,8(a4)
   170c4:	fee518e3          	bne	a0,a4,170b4 <_free_r+0x130>
   170c8:	00c72503          	lw	a0,12(a4)
   170cc:	00a62623          	sw	a0,12(a2)
   170d0:	00e62423          	sw	a4,8(a2)
   170d4:	00c52423          	sw	a2,8(a0)
   170d8:	00c72623          	sw	a2,12(a4)
   170dc:	f8dff06f          	j	17068 <_free_r+0xe4>
   170e0:	0086a503          	lw	a0,8(a3)
   170e4:	00e787b3          	add	a5,a5,a4
   170e8:	0001e737          	lui	a4,0x1e
   170ec:	a7070713          	addi	a4,a4,-1424 # 1da70 <__malloc_av_+0x8>
   170f0:	0ce50e63          	beq	a0,a4,171cc <_free_r+0x248>
   170f4:	00c6a803          	lw	a6,12(a3)
   170f8:	00f60733          	add	a4,a2,a5
   170fc:	0017e693          	ori	a3,a5,1
   17100:	01052623          	sw	a6,12(a0)
   17104:	00a82423          	sw	a0,8(a6)
   17108:	00d62223          	sw	a3,4(a2)
   1710c:	00f72023          	sw	a5,0(a4)
   17110:	f11ff06f          	j	17020 <_free_r+0x9c>
   17114:	00e787b3          	add	a5,a5,a4
   17118:	02051063          	bnez	a0,17138 <_free_r+0x1b4>
   1711c:	ff842503          	lw	a0,-8(s0)
   17120:	40a60633          	sub	a2,a2,a0
   17124:	00c62703          	lw	a4,12(a2)
   17128:	00862683          	lw	a3,8(a2)
   1712c:	00a787b3          	add	a5,a5,a0
   17130:	00e6a623          	sw	a4,12(a3)
   17134:	00d72423          	sw	a3,8(a4)
   17138:	8141a703          	lw	a4,-2028(gp) # 1de84 <__malloc_trim_threshold>
   1713c:	0017e693          	ori	a3,a5,1
   17140:	00d62223          	sw	a3,4(a2)
   17144:	00c5a423          	sw	a2,8(a1)
   17148:	f2e7e0e3          	bltu	a5,a4,17068 <_free_r+0xe4>
   1714c:	8881a583          	lw	a1,-1912(gp) # 1def8 <__malloc_top_pad>
   17150:	00048513          	mv	a0,s1
   17154:	d31ff0ef          	jal	16e84 <_malloc_trim_r>
   17158:	f11ff06f          	j	17068 <_free_r+0xe4>
   1715c:	00e685b3          	add	a1,a3,a4
   17160:	0045a583          	lw	a1,4(a1)
   17164:	0015f593          	andi	a1,a1,1
   17168:	0e059263          	bnez	a1,1724c <_free_r+0x2c8>
   1716c:	0086a583          	lw	a1,8(a3)
   17170:	00c6a683          	lw	a3,12(a3)
   17174:	00f707b3          	add	a5,a4,a5
   17178:	0017e513          	ori	a0,a5,1
   1717c:	00f60733          	add	a4,a2,a5
   17180:	00d5a623          	sw	a3,12(a1)
   17184:	00b6a423          	sw	a1,8(a3)
   17188:	00a62223          	sw	a0,4(a2)
   1718c:	00f72023          	sw	a5,0(a4)
   17190:	ed9ff06f          	j	17068 <_free_r+0xe4>
   17194:	01400693          	li	a3,20
   17198:	04e6ec63          	bltu	a3,a4,171f0 <_free_r+0x26c>
   1719c:	05c70513          	addi	a0,a4,92
   171a0:	05b70693          	addi	a3,a4,91
   171a4:	00151513          	slli	a0,a0,0x1
   171a8:	ef9ff06f          	j	170a0 <_free_r+0x11c>
   171ac:	0045a783          	lw	a5,4(a1)
   171b0:	4026d713          	srai	a4,a3,0x2
   171b4:	00100693          	li	a3,1
   171b8:	00e69733          	sll	a4,a3,a4
   171bc:	00f76733          	or	a4,a4,a5
   171c0:	00e5a223          	sw	a4,4(a1)
   171c4:	00050713          	mv	a4,a0
   171c8:	f05ff06f          	j	170cc <_free_r+0x148>
   171cc:	0017e693          	ori	a3,a5,1
   171d0:	00f60733          	add	a4,a2,a5
   171d4:	00c5aa23          	sw	a2,20(a1)
   171d8:	00c5a823          	sw	a2,16(a1)
   171dc:	00a62623          	sw	a0,12(a2)
   171e0:	00a62423          	sw	a0,8(a2)
   171e4:	00d62223          	sw	a3,4(a2)
   171e8:	00f72023          	sw	a5,0(a4)
   171ec:	e7dff06f          	j	17068 <_free_r+0xe4>
   171f0:	05400693          	li	a3,84
   171f4:	00e6ec63          	bltu	a3,a4,1720c <_free_r+0x288>
   171f8:	00c7d713          	srli	a4,a5,0xc
   171fc:	06f70513          	addi	a0,a4,111
   17200:	06e70693          	addi	a3,a4,110
   17204:	00151513          	slli	a0,a0,0x1
   17208:	e99ff06f          	j	170a0 <_free_r+0x11c>
   1720c:	15400693          	li	a3,340
   17210:	00e6ec63          	bltu	a3,a4,17228 <_free_r+0x2a4>
   17214:	00f7d713          	srli	a4,a5,0xf
   17218:	07870513          	addi	a0,a4,120
   1721c:	07770693          	addi	a3,a4,119
   17220:	00151513          	slli	a0,a0,0x1
   17224:	e7dff06f          	j	170a0 <_free_r+0x11c>
   17228:	55400813          	li	a6,1364
   1722c:	0fe00513          	li	a0,254
   17230:	07e00693          	li	a3,126
   17234:	e6e866e3          	bltu	a6,a4,170a0 <_free_r+0x11c>
   17238:	0127d713          	srli	a4,a5,0x12
   1723c:	07d70513          	addi	a0,a4,125
   17240:	07c70693          	addi	a3,a4,124
   17244:	00151513          	slli	a0,a0,0x1
   17248:	e59ff06f          	j	170a0 <_free_r+0x11c>
   1724c:	0017e693          	ori	a3,a5,1
   17250:	00f60733          	add	a4,a2,a5
   17254:	00d62223          	sw	a3,4(a2)
   17258:	00f72023          	sw	a5,0(a4)
   1725c:	e0dff06f          	j	17068 <_free_r+0xe4>

00017260 <__sfvwrite_r>:
   17260:	00862783          	lw	a5,8(a2)
   17264:	1a078863          	beqz	a5,17414 <__sfvwrite_r+0x1b4>
   17268:	00c5d703          	lhu	a4,12(a1)
   1726c:	fd010113          	addi	sp,sp,-48
   17270:	02812423          	sw	s0,40(sp)
   17274:	00877793          	andi	a5,a4,8
   17278:	01312e23          	sw	s3,28(sp)
   1727c:	01612823          	sw	s6,16(sp)
   17280:	02112623          	sw	ra,44(sp)
   17284:	02912223          	sw	s1,36(sp)
   17288:	03212023          	sw	s2,32(sp)
   1728c:	01412c23          	sw	s4,24(sp)
   17290:	01512a23          	sw	s5,20(sp)
   17294:	01712623          	sw	s7,12(sp)
   17298:	01812423          	sw	s8,8(sp)
   1729c:	01912223          	sw	s9,4(sp)
   172a0:	01a12023          	sw	s10,0(sp)
   172a4:	00058413          	mv	s0,a1
   172a8:	00050b13          	mv	s6,a0
   172ac:	00060993          	mv	s3,a2
   172b0:	0a078063          	beqz	a5,17350 <__sfvwrite_r+0xf0>
   172b4:	0105a783          	lw	a5,16(a1)
   172b8:	08078c63          	beqz	a5,17350 <__sfvwrite_r+0xf0>
   172bc:	00277793          	andi	a5,a4,2
   172c0:	0009a483          	lw	s1,0(s3)
   172c4:	0a078663          	beqz	a5,17370 <__sfvwrite_r+0x110>
   172c8:	00000a13          	li	s4,0
   172cc:	00000913          	li	s2,0
   172d0:	40000a93          	li	s5,1024
   172d4:	000a0613          	mv	a2,s4
   172d8:	000b0513          	mv	a0,s6
   172dc:	12090463          	beqz	s2,17404 <__sfvwrite_r+0x1a4>
   172e0:	00090693          	mv	a3,s2
   172e4:	012af463          	bleu	s2,s5,172ec <__sfvwrite_r+0x8c>
   172e8:	40000693          	li	a3,1024
   172ec:	02442783          	lw	a5,36(s0)
   172f0:	01c42583          	lw	a1,28(s0)
   172f4:	000780e7          	jalr	a5
   172f8:	14a05463          	blez	a0,17440 <__sfvwrite_r+0x1e0>
   172fc:	0089a783          	lw	a5,8(s3)
   17300:	00aa0a33          	add	s4,s4,a0
   17304:	40a90933          	sub	s2,s2,a0
   17308:	40a78533          	sub	a0,a5,a0
   1730c:	00a9a423          	sw	a0,8(s3)
   17310:	fc0512e3          	bnez	a0,172d4 <__sfvwrite_r+0x74>
   17314:	00000513          	li	a0,0
   17318:	02c12083          	lw	ra,44(sp)
   1731c:	02812403          	lw	s0,40(sp)
   17320:	02412483          	lw	s1,36(sp)
   17324:	02012903          	lw	s2,32(sp)
   17328:	01c12983          	lw	s3,28(sp)
   1732c:	01812a03          	lw	s4,24(sp)
   17330:	01412a83          	lw	s5,20(sp)
   17334:	01012b03          	lw	s6,16(sp)
   17338:	00c12b83          	lw	s7,12(sp)
   1733c:	00812c03          	lw	s8,8(sp)
   17340:	00412c83          	lw	s9,4(sp)
   17344:	00012d03          	lw	s10,0(sp)
   17348:	03010113          	addi	sp,sp,48
   1734c:	00008067          	ret
   17350:	00040593          	mv	a1,s0
   17354:	000b0513          	mv	a0,s6
   17358:	ef1fd0ef          	jal	15248 <__swsetup_r>
   1735c:	38051263          	bnez	a0,176e0 <__sfvwrite_r+0x480>
   17360:	00c45703          	lhu	a4,12(s0)
   17364:	0009a483          	lw	s1,0(s3)
   17368:	00277793          	andi	a5,a4,2
   1736c:	f4079ee3          	bnez	a5,172c8 <__sfvwrite_r+0x68>
   17370:	00177793          	andi	a5,a4,1
   17374:	0e079063          	bnez	a5,17454 <__sfvwrite_r+0x1f4>
   17378:	00000a93          	li	s5,0
   1737c:	00000913          	li	s2,0
   17380:	06090a63          	beqz	s2,173f4 <__sfvwrite_r+0x194>
   17384:	20077793          	andi	a5,a4,512
   17388:	00842a03          	lw	s4,8(s0)
   1738c:	1a078863          	beqz	a5,1753c <__sfvwrite_r+0x2dc>
   17390:	000a0b93          	mv	s7,s4
   17394:	21496663          	bltu	s2,s4,175a0 <__sfvwrite_r+0x340>
   17398:	48077793          	andi	a5,a4,1152
   1739c:	26079663          	bnez	a5,17608 <__sfvwrite_r+0x3a8>
   173a0:	00042503          	lw	a0,0(s0)
   173a4:	000a0c13          	mv	s8,s4
   173a8:	00090a13          	mv	s4,s2
   173ac:	000b8613          	mv	a2,s7
   173b0:	000a8593          	mv	a1,s5
   173b4:	73d000ef          	jal	182f0 <memmove>
   173b8:	00842783          	lw	a5,8(s0)
   173bc:	00042603          	lw	a2,0(s0)
   173c0:	00090713          	mv	a4,s2
   173c4:	418787b3          	sub	a5,a5,s8
   173c8:	01760633          	add	a2,a2,s7
   173cc:	00f42423          	sw	a5,8(s0)
   173d0:	00c42023          	sw	a2,0(s0)
   173d4:	0089a783          	lw	a5,8(s3)
   173d8:	00ea8ab3          	add	s5,s5,a4
   173dc:	40e90933          	sub	s2,s2,a4
   173e0:	414787b3          	sub	a5,a5,s4
   173e4:	00f9a423          	sw	a5,8(s3)
   173e8:	f20786e3          	beqz	a5,17314 <__sfvwrite_r+0xb4>
   173ec:	00c45703          	lhu	a4,12(s0)
   173f0:	f8091ae3          	bnez	s2,17384 <__sfvwrite_r+0x124>
   173f4:	0004aa83          	lw	s5,0(s1)
   173f8:	0044a903          	lw	s2,4(s1)
   173fc:	00848493          	addi	s1,s1,8
   17400:	f81ff06f          	j	17380 <__sfvwrite_r+0x120>
   17404:	0004aa03          	lw	s4,0(s1)
   17408:	0044a903          	lw	s2,4(s1)
   1740c:	00848493          	addi	s1,s1,8
   17410:	ec5ff06f          	j	172d4 <__sfvwrite_r+0x74>
   17414:	00000513          	li	a0,0
   17418:	00008067          	ret
   1741c:	000b0513          	mv	a0,s6
   17420:	08c020ef          	jal	194ac <_realloc_r>
   17424:	00050c13          	mv	s8,a0
   17428:	24051a63          	bnez	a0,1767c <__sfvwrite_r+0x41c>
   1742c:	01042583          	lw	a1,16(s0)
   17430:	000b0513          	mv	a0,s6
   17434:	b51ff0ef          	jal	16f84 <_free_r>
   17438:	00c00793          	li	a5,12
   1743c:	00fb2023          	sw	a5,0(s6)
   17440:	00c45783          	lhu	a5,12(s0)
   17444:	fff00513          	li	a0,-1
   17448:	0407e793          	ori	a5,a5,64
   1744c:	00f41623          	sh	a5,12(s0)
   17450:	ec9ff06f          	j	17318 <__sfvwrite_r+0xb8>
   17454:	00000a13          	li	s4,0
   17458:	00000c13          	li	s8,0
   1745c:	00000d13          	li	s10,0
   17460:	00000913          	li	s2,0
   17464:	06090c63          	beqz	s2,174dc <__sfvwrite_r+0x27c>
   17468:	160c0e63          	beqz	s8,175e4 <__sfvwrite_r+0x384>
   1746c:	000a0b93          	mv	s7,s4
   17470:	01497463          	bleu	s4,s2,17478 <__sfvwrite_r+0x218>
   17474:	00090b93          	mv	s7,s2
   17478:	00042503          	lw	a0,0(s0)
   1747c:	01042783          	lw	a5,16(s0)
   17480:	000b8a93          	mv	s5,s7
   17484:	01442683          	lw	a3,20(s0)
   17488:	00a7f863          	bleu	a0,a5,17498 <__sfvwrite_r+0x238>
   1748c:	00842c83          	lw	s9,8(s0)
   17490:	01968cb3          	add	s9,a3,s9
   17494:	057cce63          	blt	s9,s7,174f0 <__sfvwrite_r+0x290>
   17498:	0edbc063          	blt	s7,a3,17578 <__sfvwrite_r+0x318>
   1749c:	02442783          	lw	a5,36(s0)
   174a0:	01c42583          	lw	a1,28(s0)
   174a4:	000d0613          	mv	a2,s10
   174a8:	000b0513          	mv	a0,s6
   174ac:	000780e7          	jalr	a5
   174b0:	00050a93          	mv	s5,a0
   174b4:	f8a056e3          	blez	a0,17440 <__sfvwrite_r+0x1e0>
   174b8:	415a0a33          	sub	s4,s4,s5
   174bc:	060a0463          	beqz	s4,17524 <__sfvwrite_r+0x2c4>
   174c0:	0089a783          	lw	a5,8(s3)
   174c4:	015d0d33          	add	s10,s10,s5
   174c8:	41590933          	sub	s2,s2,s5
   174cc:	41578ab3          	sub	s5,a5,s5
   174d0:	0159a423          	sw	s5,8(s3)
   174d4:	e40a80e3          	beqz	s5,17314 <__sfvwrite_r+0xb4>
   174d8:	f80918e3          	bnez	s2,17468 <__sfvwrite_r+0x208>
   174dc:	0004ad03          	lw	s10,0(s1)
   174e0:	0044a903          	lw	s2,4(s1)
   174e4:	00000c13          	li	s8,0
   174e8:	00848493          	addi	s1,s1,8
   174ec:	f79ff06f          	j	17464 <__sfvwrite_r+0x204>
   174f0:	000d0593          	mv	a1,s10
   174f4:	000c8613          	mv	a2,s9
   174f8:	5f9000ef          	jal	182f0 <memmove>
   174fc:	00042783          	lw	a5,0(s0)
   17500:	00040593          	mv	a1,s0
   17504:	000b0513          	mv	a0,s6
   17508:	019787b3          	add	a5,a5,s9
   1750c:	00f42023          	sw	a5,0(s0)
   17510:	b44ff0ef          	jal	16854 <_fflush_r>
   17514:	f20516e3          	bnez	a0,17440 <__sfvwrite_r+0x1e0>
   17518:	000c8a93          	mv	s5,s9
   1751c:	415a0a33          	sub	s4,s4,s5
   17520:	fa0a10e3          	bnez	s4,174c0 <__sfvwrite_r+0x260>
   17524:	00040593          	mv	a1,s0
   17528:	000b0513          	mv	a0,s6
   1752c:	b28ff0ef          	jal	16854 <_fflush_r>
   17530:	f00518e3          	bnez	a0,17440 <__sfvwrite_r+0x1e0>
   17534:	00000c13          	li	s8,0
   17538:	f89ff06f          	j	174c0 <__sfvwrite_r+0x260>
   1753c:	00042503          	lw	a0,0(s0)
   17540:	01042783          	lw	a5,16(s0)
   17544:	00a7f463          	bleu	a0,a5,1754c <__sfvwrite_r+0x2ec>
   17548:	152a6e63          	bltu	s4,s2,176a4 <__sfvwrite_r+0x444>
   1754c:	01442683          	lw	a3,20(s0)
   17550:	06d96263          	bltu	s2,a3,175b4 <__sfvwrite_r+0x354>
   17554:	02442783          	lw	a5,36(s0)
   17558:	01c42583          	lw	a1,28(s0)
   1755c:	000a8613          	mv	a2,s5
   17560:	000b0513          	mv	a0,s6
   17564:	000780e7          	jalr	a5
   17568:	00050a13          	mv	s4,a0
   1756c:	eca05ae3          	blez	a0,17440 <__sfvwrite_r+0x1e0>
   17570:	000a0713          	mv	a4,s4
   17574:	e61ff06f          	j	173d4 <__sfvwrite_r+0x174>
   17578:	000b8613          	mv	a2,s7
   1757c:	000d0593          	mv	a1,s10
   17580:	571000ef          	jal	182f0 <memmove>
   17584:	00842703          	lw	a4,8(s0)
   17588:	00042783          	lw	a5,0(s0)
   1758c:	41770733          	sub	a4,a4,s7
   17590:	01778bb3          	add	s7,a5,s7
   17594:	00e42423          	sw	a4,8(s0)
   17598:	01742023          	sw	s7,0(s0)
   1759c:	f1dff06f          	j	174b8 <__sfvwrite_r+0x258>
   175a0:	00042503          	lw	a0,0(s0)
   175a4:	00090c13          	mv	s8,s2
   175a8:	00090a13          	mv	s4,s2
   175ac:	00090b93          	mv	s7,s2
   175b0:	dfdff06f          	j	173ac <__sfvwrite_r+0x14c>
   175b4:	00090613          	mv	a2,s2
   175b8:	000a8593          	mv	a1,s5
   175bc:	535000ef          	jal	182f0 <memmove>
   175c0:	00842703          	lw	a4,8(s0)
   175c4:	00042783          	lw	a5,0(s0)
   175c8:	00090a13          	mv	s4,s2
   175cc:	41270733          	sub	a4,a4,s2
   175d0:	012787b3          	add	a5,a5,s2
   175d4:	00e42423          	sw	a4,8(s0)
   175d8:	00f42023          	sw	a5,0(s0)
   175dc:	00090713          	mv	a4,s2
   175e0:	df5ff06f          	j	173d4 <__sfvwrite_r+0x174>
   175e4:	00090613          	mv	a2,s2
   175e8:	00a00593          	li	a1,10
   175ec:	000d0513          	mv	a0,s10
   175f0:	42d000ef          	jal	1821c <memchr>
   175f4:	0e050063          	beqz	a0,176d4 <__sfvwrite_r+0x474>
   175f8:	00150513          	addi	a0,a0,1
   175fc:	41a50a33          	sub	s4,a0,s10
   17600:	00100c13          	li	s8,1
   17604:	e69ff06f          	j	1746c <__sfvwrite_r+0x20c>
   17608:	01442a03          	lw	s4,20(s0)
   1760c:	01042583          	lw	a1,16(s0)
   17610:	00042b83          	lw	s7,0(s0)
   17614:	001a1793          	slli	a5,s4,0x1
   17618:	01478a33          	add	s4,a5,s4
   1761c:	01fa5793          	srli	a5,s4,0x1f
   17620:	40bb8bb3          	sub	s7,s7,a1
   17624:	01478a33          	add	s4,a5,s4
   17628:	001b8793          	addi	a5,s7,1
   1762c:	401a5a13          	srai	s4,s4,0x1
   17630:	012787b3          	add	a5,a5,s2
   17634:	000a0613          	mv	a2,s4
   17638:	00fa7663          	bleu	a5,s4,17644 <__sfvwrite_r+0x3e4>
   1763c:	00078a13          	mv	s4,a5
   17640:	00078613          	mv	a2,a5
   17644:	40077713          	andi	a4,a4,1024
   17648:	dc070ae3          	beqz	a4,1741c <__sfvwrite_r+0x1bc>
   1764c:	00060593          	mv	a1,a2
   17650:	000b0513          	mv	a0,s6
   17654:	450000ef          	jal	17aa4 <_malloc_r>
   17658:	00050c13          	mv	s8,a0
   1765c:	dc050ee3          	beqz	a0,17438 <__sfvwrite_r+0x1d8>
   17660:	01042583          	lw	a1,16(s0)
   17664:	000b8613          	mv	a2,s7
   17668:	929fb0ef          	jal	12f90 <memcpy>
   1766c:	00c45783          	lhu	a5,12(s0)
   17670:	b7f7f793          	andi	a5,a5,-1153
   17674:	0807e793          	ori	a5,a5,128
   17678:	00f41623          	sh	a5,12(s0)
   1767c:	017c0533          	add	a0,s8,s7
   17680:	417a0bb3          	sub	s7,s4,s7
   17684:	01842823          	sw	s8,16(s0)
   17688:	01442a23          	sw	s4,20(s0)
   1768c:	01742423          	sw	s7,8(s0)
   17690:	00a42023          	sw	a0,0(s0)
   17694:	00090c13          	mv	s8,s2
   17698:	00090a13          	mv	s4,s2
   1769c:	00090b93          	mv	s7,s2
   176a0:	d0dff06f          	j	173ac <__sfvwrite_r+0x14c>
   176a4:	000a8593          	mv	a1,s5
   176a8:	000a0613          	mv	a2,s4
   176ac:	445000ef          	jal	182f0 <memmove>
   176b0:	00042783          	lw	a5,0(s0)
   176b4:	00040593          	mv	a1,s0
   176b8:	000b0513          	mv	a0,s6
   176bc:	014787b3          	add	a5,a5,s4
   176c0:	00f42023          	sw	a5,0(s0)
   176c4:	990ff0ef          	jal	16854 <_fflush_r>
   176c8:	d6051ce3          	bnez	a0,17440 <__sfvwrite_r+0x1e0>
   176cc:	000a0713          	mv	a4,s4
   176d0:	d05ff06f          	j	173d4 <__sfvwrite_r+0x174>
   176d4:	00190a13          	addi	s4,s2,1
   176d8:	00100c13          	li	s8,1
   176dc:	d91ff06f          	j	1746c <__sfvwrite_r+0x20c>
   176e0:	00c45783          	lhu	a5,12(s0)
   176e4:	fff00513          	li	a0,-1
   176e8:	0407e793          	ori	a5,a5,64
   176ec:	00f41623          	sh	a5,12(s0)
   176f0:	00900793          	li	a5,9
   176f4:	00fb2023          	sw	a5,0(s6)
   176f8:	c21ff06f          	j	17318 <__sfvwrite_r+0xb8>

000176fc <_fwalk>:
   176fc:	fe010113          	addi	sp,sp,-32
   17700:	01312623          	sw	s3,12(sp)
   17704:	2e050993          	addi	s3,a0,736
   17708:	01412423          	sw	s4,8(sp)
   1770c:	01512223          	sw	s5,4(sp)
   17710:	00112e23          	sw	ra,28(sp)
   17714:	00812c23          	sw	s0,24(sp)
   17718:	00912a23          	sw	s1,20(sp)
   1771c:	01212823          	sw	s2,16(sp)
   17720:	00058a93          	mv	s5,a1
   17724:	00000a13          	li	s4,0
   17728:	f2cff0ef          	jal	16e54 <__sfp_lock_acquire>
   1772c:	04098463          	beqz	s3,17774 <_fwalk+0x78>
   17730:	fff00913          	li	s2,-1
   17734:	0049a483          	lw	s1,4(s3)
   17738:	0089a403          	lw	s0,8(s3)
   1773c:	fff48493          	addi	s1,s1,-1
   17740:	0204c663          	bltz	s1,1776c <_fwalk+0x70>
   17744:	00c41783          	lh	a5,12(s0)
   17748:	fff48493          	addi	s1,s1,-1
   1774c:	00078c63          	beqz	a5,17764 <_fwalk+0x68>
   17750:	00e41783          	lh	a5,14(s0)
   17754:	00040513          	mv	a0,s0
   17758:	01278663          	beq	a5,s2,17764 <_fwalk+0x68>
   1775c:	000a80e7          	jalr	s5
   17760:	00aa6a33          	or	s4,s4,a0
   17764:	06840413          	addi	s0,s0,104
   17768:	fd249ee3          	bne	s1,s2,17744 <_fwalk+0x48>
   1776c:	0009a983          	lw	s3,0(s3)
   17770:	fc0992e3          	bnez	s3,17734 <_fwalk+0x38>
   17774:	ee4ff0ef          	jal	16e58 <__sfp_lock_release>
   17778:	01c12083          	lw	ra,28(sp)
   1777c:	000a0513          	mv	a0,s4
   17780:	01812403          	lw	s0,24(sp)
   17784:	01412483          	lw	s1,20(sp)
   17788:	01012903          	lw	s2,16(sp)
   1778c:	00c12983          	lw	s3,12(sp)
   17790:	00812a03          	lw	s4,8(sp)
   17794:	00412a83          	lw	s5,4(sp)
   17798:	02010113          	addi	sp,sp,32
   1779c:	00008067          	ret

000177a0 <_fwalk_reent>:
   177a0:	fe010113          	addi	sp,sp,-32
   177a4:	01312623          	sw	s3,12(sp)
   177a8:	2e050993          	addi	s3,a0,736
   177ac:	01412423          	sw	s4,8(sp)
   177b0:	01512223          	sw	s5,4(sp)
   177b4:	01612023          	sw	s6,0(sp)
   177b8:	00112e23          	sw	ra,28(sp)
   177bc:	00812c23          	sw	s0,24(sp)
   177c0:	00912a23          	sw	s1,20(sp)
   177c4:	01212823          	sw	s2,16(sp)
   177c8:	00050a93          	mv	s5,a0
   177cc:	00058b13          	mv	s6,a1
   177d0:	00000a13          	li	s4,0
   177d4:	e80ff0ef          	jal	16e54 <__sfp_lock_acquire>
   177d8:	04098663          	beqz	s3,17824 <_fwalk_reent+0x84>
   177dc:	fff00913          	li	s2,-1
   177e0:	0049a483          	lw	s1,4(s3)
   177e4:	0089a403          	lw	s0,8(s3)
   177e8:	fff48493          	addi	s1,s1,-1
   177ec:	0204c863          	bltz	s1,1781c <_fwalk_reent+0x7c>
   177f0:	00c41783          	lh	a5,12(s0)
   177f4:	fff48493          	addi	s1,s1,-1
   177f8:	00078e63          	beqz	a5,17814 <_fwalk_reent+0x74>
   177fc:	00e41783          	lh	a5,14(s0)
   17800:	00040593          	mv	a1,s0
   17804:	000a8513          	mv	a0,s5
   17808:	01278663          	beq	a5,s2,17814 <_fwalk_reent+0x74>
   1780c:	000b00e7          	jalr	s6
   17810:	00aa6a33          	or	s4,s4,a0
   17814:	06840413          	addi	s0,s0,104
   17818:	fd249ce3          	bne	s1,s2,177f0 <_fwalk_reent+0x50>
   1781c:	0009a983          	lw	s3,0(s3)
   17820:	fc0990e3          	bnez	s3,177e0 <_fwalk_reent+0x40>
   17824:	e34ff0ef          	jal	16e58 <__sfp_lock_release>
   17828:	01c12083          	lw	ra,28(sp)
   1782c:	000a0513          	mv	a0,s4
   17830:	01812403          	lw	s0,24(sp)
   17834:	01412483          	lw	s1,20(sp)
   17838:	01012903          	lw	s2,16(sp)
   1783c:	00c12983          	lw	s3,12(sp)
   17840:	00812a03          	lw	s4,8(sp)
   17844:	00412a83          	lw	s5,4(sp)
   17848:	00012b03          	lw	s6,0(sp)
   1784c:	02010113          	addi	sp,sp,32
   17850:	00008067          	ret

00017854 <_setlocale_r>:
   17854:	ff010113          	addi	sp,sp,-16
   17858:	00912223          	sw	s1,4(sp)
   1785c:	00112623          	sw	ra,12(sp)
   17860:	00812423          	sw	s0,8(sp)
   17864:	0001c4b7          	lui	s1,0x1c
   17868:	02060063          	beqz	a2,17888 <_setlocale_r+0x34>
   1786c:	0001c5b7          	lui	a1,0x1c
   17870:	32858593          	addi	a1,a1,808 # 1c328 <zeroes.3949+0x6c>
   17874:	00060513          	mv	a0,a2
   17878:	00060413          	mv	s0,a2
   1787c:	b0dfb0ef          	jal	13388 <strcmp>
   17880:	0001c4b7          	lui	s1,0x1c
   17884:	00051e63          	bnez	a0,178a0 <_setlocale_r+0x4c>
   17888:	2cc48513          	addi	a0,s1,716 # 1c2cc <zeroes.3949+0x10>
   1788c:	00c12083          	lw	ra,12(sp)
   17890:	00812403          	lw	s0,8(sp)
   17894:	00412483          	lw	s1,4(sp)
   17898:	01010113          	addi	sp,sp,16
   1789c:	00008067          	ret
   178a0:	2cc48593          	addi	a1,s1,716
   178a4:	00040513          	mv	a0,s0
   178a8:	ae1fb0ef          	jal	13388 <strcmp>
   178ac:	fc050ee3          	beqz	a0,17888 <_setlocale_r+0x34>
   178b0:	0001c5b7          	lui	a1,0x1c
   178b4:	2f458593          	addi	a1,a1,756 # 1c2f4 <zeroes.3949+0x38>
   178b8:	00040513          	mv	a0,s0
   178bc:	acdfb0ef          	jal	13388 <strcmp>
   178c0:	fc0504e3          	beqz	a0,17888 <_setlocale_r+0x34>
   178c4:	00000513          	li	a0,0
   178c8:	fc5ff06f          	j	1788c <_setlocale_r+0x38>

000178cc <__locale_charset>:
   178cc:	0001e537          	lui	a0,0x1e
   178d0:	a2850513          	addi	a0,a0,-1496 # 1da28 <lc_ctype_charset>
   178d4:	00008067          	ret

000178d8 <__locale_msgcharset>:
   178d8:	0001e537          	lui	a0,0x1e
   178dc:	a4850513          	addi	a0,a0,-1464 # 1da48 <lc_message_charset>
   178e0:	00008067          	ret

000178e4 <__locale_cjk_lang>:
   178e4:	00000513          	li	a0,0
   178e8:	00008067          	ret

000178ec <_localeconv_r>:
   178ec:	0001c537          	lui	a0,0x1c
   178f0:	fe450513          	addi	a0,a0,-28 # 1bfe4 <lconv>
   178f4:	00008067          	ret

000178f8 <setlocale>:
   178f8:	00058613          	mv	a2,a1
   178fc:	00050593          	mv	a1,a0
   17900:	8081a503          	lw	a0,-2040(gp) # 1de78 <_impure_ptr>
   17904:	f51ff06f          	j	17854 <_setlocale_r>

00017908 <localeconv>:
   17908:	0001c537          	lui	a0,0x1c
   1790c:	fe450513          	addi	a0,a0,-28 # 1bfe4 <lconv>
   17910:	00008067          	ret

00017914 <__smakebuf_r>:
   17914:	00c59783          	lh	a5,12(a1)
   17918:	f6010113          	addi	sp,sp,-160
   1791c:	08912a23          	sw	s1,148(sp)
   17920:	01079493          	slli	s1,a5,0x10
   17924:	0104d493          	srli	s1,s1,0x10
   17928:	0024f713          	andi	a4,s1,2
   1792c:	08112e23          	sw	ra,156(sp)
   17930:	08812c23          	sw	s0,152(sp)
   17934:	09212823          	sw	s2,144(sp)
   17938:	09312623          	sw	s3,140(sp)
   1793c:	0e071063          	bnez	a4,17a1c <__smakebuf_r+0x108>
   17940:	00050913          	mv	s2,a0
   17944:	00e59503          	lh	a0,14(a1)
   17948:	00058413          	mv	s0,a1
   1794c:	04054c63          	bltz	a0,179a4 <__smakebuf_r+0x90>
   17950:	00010593          	mv	a1,sp
   17954:	2bd030ef          	jal	1b410 <fstat>
   17958:	04054063          	bltz	a0,17998 <__smakebuf_r+0x84>
   1795c:	01012703          	lw	a4,16(sp)
   17960:	0000f7b7          	lui	a5,0xf
   17964:	ffffe9b7          	lui	s3,0xffffe
   17968:	00f777b3          	and	a5,a4,a5
   1796c:	013789b3          	add	s3,a5,s3
   17970:	00008737          	lui	a4,0x8
   17974:	0019b993          	seqz	s3,s3
   17978:	0ae78e63          	beq	a5,a4,17a34 <__smakebuf_r+0x120>
   1797c:	00c45703          	lhu	a4,12(s0)
   17980:	000017b7          	lui	a5,0x1
   17984:	80078793          	addi	a5,a5,-2048 # 800 <_ftext-0xf800>
   17988:	00f767b3          	or	a5,a4,a5
   1798c:	00f41623          	sh	a5,12(s0)
   17990:	40000493          	li	s1,1024
   17994:	0340006f          	j	179c8 <__smakebuf_r+0xb4>
   17998:	00c41783          	lh	a5,12(s0)
   1799c:	01079493          	slli	s1,a5,0x10
   179a0:	0104d493          	srli	s1,s1,0x10
   179a4:	01849493          	slli	s1,s1,0x18
   179a8:	00001737          	lui	a4,0x1
   179ac:	41f4d493          	srai	s1,s1,0x1f
   179b0:	80070713          	addi	a4,a4,-2048 # 800 <_ftext-0xf800>
   179b4:	c404f493          	andi	s1,s1,-960
   179b8:	00e7e7b3          	or	a5,a5,a4
   179bc:	40048493          	addi	s1,s1,1024
   179c0:	00f41623          	sh	a5,12(s0)
   179c4:	00000993          	li	s3,0
   179c8:	00048593          	mv	a1,s1
   179cc:	00090513          	mv	a0,s2
   179d0:	0d4000ef          	jal	17aa4 <_malloc_r>
   179d4:	0a050263          	beqz	a0,17a78 <__smakebuf_r+0x164>
   179d8:	00c45783          	lhu	a5,12(s0)
   179dc:	00017737          	lui	a4,0x17
   179e0:	b1c70713          	addi	a4,a4,-1252 # 16b1c <_cleanup_r>
   179e4:	0807e793          	ori	a5,a5,128
   179e8:	02e92e23          	sw	a4,60(s2)
   179ec:	00f41623          	sh	a5,12(s0)
   179f0:	00a42023          	sw	a0,0(s0)
   179f4:	00a42823          	sw	a0,16(s0)
   179f8:	00942a23          	sw	s1,20(s0)
   179fc:	06099063          	bnez	s3,17a5c <__smakebuf_r+0x148>
   17a00:	09c12083          	lw	ra,156(sp)
   17a04:	09812403          	lw	s0,152(sp)
   17a08:	09412483          	lw	s1,148(sp)
   17a0c:	09012903          	lw	s2,144(sp)
   17a10:	08c12983          	lw	s3,140(sp)
   17a14:	0a010113          	addi	sp,sp,160
   17a18:	00008067          	ret
   17a1c:	04358793          	addi	a5,a1,67
   17a20:	00f5a023          	sw	a5,0(a1)
   17a24:	00f5a823          	sw	a5,16(a1)
   17a28:	00100793          	li	a5,1
   17a2c:	00f5aa23          	sw	a5,20(a1)
   17a30:	fd1ff06f          	j	17a00 <__smakebuf_r+0xec>
   17a34:	02842703          	lw	a4,40(s0)
   17a38:	0001a7b7          	lui	a5,0x1a
   17a3c:	b9878793          	addi	a5,a5,-1128 # 19b98 <__sseek>
   17a40:	f2f71ee3          	bne	a4,a5,1797c <__smakebuf_r+0x68>
   17a44:	00c45783          	lhu	a5,12(s0)
   17a48:	40000493          	li	s1,1024
   17a4c:	04942623          	sw	s1,76(s0)
   17a50:	0097e7b3          	or	a5,a5,s1
   17a54:	00f41623          	sh	a5,12(s0)
   17a58:	f71ff06f          	j	179c8 <__smakebuf_r+0xb4>
   17a5c:	00e41503          	lh	a0,14(s0)
   17a60:	319030ef          	jal	1b578 <isatty>
   17a64:	f8050ee3          	beqz	a0,17a00 <__smakebuf_r+0xec>
   17a68:	00c45783          	lhu	a5,12(s0)
   17a6c:	0017e793          	ori	a5,a5,1
   17a70:	00f41623          	sh	a5,12(s0)
   17a74:	f8dff06f          	j	17a00 <__smakebuf_r+0xec>
   17a78:	00c41783          	lh	a5,12(s0)
   17a7c:	2007f713          	andi	a4,a5,512
   17a80:	f80710e3          	bnez	a4,17a00 <__smakebuf_r+0xec>
   17a84:	0027e793          	ori	a5,a5,2
   17a88:	04340713          	addi	a4,s0,67
   17a8c:	00f41623          	sh	a5,12(s0)
   17a90:	00100793          	li	a5,1
   17a94:	00e42023          	sw	a4,0(s0)
   17a98:	00e42823          	sw	a4,16(s0)
   17a9c:	00f42a23          	sw	a5,20(s0)
   17aa0:	f61ff06f          	j	17a00 <__smakebuf_r+0xec>

00017aa4 <_malloc_r>:
   17aa4:	fd010113          	addi	sp,sp,-48
   17aa8:	02912223          	sw	s1,36(sp)
   17aac:	01600793          	li	a5,22
   17ab0:	00b58493          	addi	s1,a1,11
   17ab4:	01312e23          	sw	s3,28(sp)
   17ab8:	02112623          	sw	ra,44(sp)
   17abc:	02812423          	sw	s0,40(sp)
   17ac0:	03212023          	sw	s2,32(sp)
   17ac4:	01412c23          	sw	s4,24(sp)
   17ac8:	01512a23          	sw	s5,20(sp)
   17acc:	01612823          	sw	s6,16(sp)
   17ad0:	01712623          	sw	s7,12(sp)
   17ad4:	01812423          	sw	s8,8(sp)
   17ad8:	01912223          	sw	s9,4(sp)
   17adc:	00050993          	mv	s3,a0
   17ae0:	1a97fc63          	bleu	s1,a5,17c98 <_malloc_r+0x1f4>
   17ae4:	ff84f493          	andi	s1,s1,-8
   17ae8:	2404c463          	bltz	s1,17d30 <_malloc_r+0x28c>
   17aec:	24b4e263          	bltu	s1,a1,17d30 <_malloc_r+0x28c>
   17af0:	1c5000ef          	jal	184b4 <__malloc_lock>
   17af4:	1f700793          	li	a5,503
   17af8:	7097fa63          	bleu	s1,a5,1820c <_malloc_r+0x768>
   17afc:	0094d793          	srli	a5,s1,0x9
   17b00:	08000693          	li	a3,128
   17b04:	04000513          	li	a0,64
   17b08:	03f00593          	li	a1,63
   17b0c:	22079a63          	bnez	a5,17d40 <_malloc_r+0x29c>
   17b10:	0001e937          	lui	s2,0x1e
   17b14:	a6890913          	addi	s2,s2,-1432 # 1da68 <__malloc_av_>
   17b18:	00269693          	slli	a3,a3,0x2
   17b1c:	00d906b3          	add	a3,s2,a3
   17b20:	0046a403          	lw	s0,4(a3)
   17b24:	ff868693          	addi	a3,a3,-8
   17b28:	22868a63          	beq	a3,s0,17d5c <_malloc_r+0x2b8>
   17b2c:	00442783          	lw	a5,4(s0)
   17b30:	00f00613          	li	a2,15
   17b34:	ffc7f793          	andi	a5,a5,-4
   17b38:	40978733          	sub	a4,a5,s1
   17b3c:	02e64063          	blt	a2,a4,17b5c <_malloc_r+0xb8>
   17b40:	22075263          	bgez	a4,17d64 <_malloc_r+0x2c0>
   17b44:	00c42403          	lw	s0,12(s0)
   17b48:	20868a63          	beq	a3,s0,17d5c <_malloc_r+0x2b8>
   17b4c:	00442783          	lw	a5,4(s0)
   17b50:	ffc7f793          	andi	a5,a5,-4
   17b54:	40978733          	sub	a4,a5,s1
   17b58:	fee654e3          	ble	a4,a2,17b40 <_malloc_r+0x9c>
   17b5c:	00058693          	mv	a3,a1
   17b60:	01092403          	lw	s0,16(s2)
   17b64:	00890813          	addi	a6,s2,8
   17b68:	4b040263          	beq	s0,a6,1800c <_malloc_r+0x568>
   17b6c:	00442783          	lw	a5,4(s0)
   17b70:	00f00613          	li	a2,15
   17b74:	ffc7f793          	andi	a5,a5,-4
   17b78:	40978733          	sub	a4,a5,s1
   17b7c:	44e64a63          	blt	a2,a4,17fd0 <_malloc_r+0x52c>
   17b80:	01092a23          	sw	a6,20(s2)
   17b84:	01092823          	sw	a6,16(s2)
   17b88:	20075663          	bgez	a4,17d94 <_malloc_r+0x2f0>
   17b8c:	1ff00713          	li	a4,511
   17b90:	3cf76e63          	bltu	a4,a5,17f6c <_malloc_r+0x4c8>
   17b94:	0037d793          	srli	a5,a5,0x3
   17b98:	00178613          	addi	a2,a5,1
   17b9c:	00361613          	slli	a2,a2,0x3
   17ba0:	00492703          	lw	a4,4(s2)
   17ba4:	00c90633          	add	a2,s2,a2
   17ba8:	00062503          	lw	a0,0(a2)
   17bac:	4027d793          	srai	a5,a5,0x2
   17bb0:	00100593          	li	a1,1
   17bb4:	00f597b3          	sll	a5,a1,a5
   17bb8:	00e7e7b3          	or	a5,a5,a4
   17bbc:	ff860713          	addi	a4,a2,-8
   17bc0:	00e42623          	sw	a4,12(s0)
   17bc4:	00a42423          	sw	a0,8(s0)
   17bc8:	00f92223          	sw	a5,4(s2)
   17bcc:	00862023          	sw	s0,0(a2)
   17bd0:	00852623          	sw	s0,12(a0)
   17bd4:	4026d713          	srai	a4,a3,0x2
   17bd8:	00100613          	li	a2,1
   17bdc:	00e61633          	sll	a2,a2,a4
   17be0:	1cc7ea63          	bltu	a5,a2,17db4 <_malloc_r+0x310>
   17be4:	00f67733          	and	a4,a2,a5
   17be8:	02071463          	bnez	a4,17c10 <_malloc_r+0x16c>
   17bec:	00161613          	slli	a2,a2,0x1
   17bf0:	ffc6f693          	andi	a3,a3,-4
   17bf4:	00f67733          	and	a4,a2,a5
   17bf8:	00468693          	addi	a3,a3,4
   17bfc:	00071a63          	bnez	a4,17c10 <_malloc_r+0x16c>
   17c00:	00161613          	slli	a2,a2,0x1
   17c04:	00f67733          	and	a4,a2,a5
   17c08:	00468693          	addi	a3,a3,4
   17c0c:	fe070ae3          	beqz	a4,17c00 <_malloc_r+0x15c>
   17c10:	00f00513          	li	a0,15
   17c14:	00369893          	slli	a7,a3,0x3
   17c18:	012888b3          	add	a7,a7,s2
   17c1c:	00088593          	mv	a1,a7
   17c20:	00068293          	mv	t0,a3
   17c24:	00c5a403          	lw	s0,12(a1)
   17c28:	00859a63          	bne	a1,s0,17c3c <_malloc_r+0x198>
   17c2c:	3e80006f          	j	18014 <_malloc_r+0x570>
   17c30:	40075463          	bgez	a4,18038 <_malloc_r+0x594>
   17c34:	00c42403          	lw	s0,12(s0)
   17c38:	3c858e63          	beq	a1,s0,18014 <_malloc_r+0x570>
   17c3c:	00442783          	lw	a5,4(s0)
   17c40:	ffc7f793          	andi	a5,a5,-4
   17c44:	40978733          	sub	a4,a5,s1
   17c48:	fee554e3          	ble	a4,a0,17c30 <_malloc_r+0x18c>
   17c4c:	00c42683          	lw	a3,12(s0)
   17c50:	00842603          	lw	a2,8(s0)
   17c54:	009407b3          	add	a5,s0,s1
   17c58:	00176893          	ori	a7,a4,1
   17c5c:	00e785b3          	add	a1,a5,a4
   17c60:	0014e493          	ori	s1,s1,1
   17c64:	00942223          	sw	s1,4(s0)
   17c68:	00098513          	mv	a0,s3
   17c6c:	00d62623          	sw	a3,12(a2)
   17c70:	00c6a423          	sw	a2,8(a3)
   17c74:	00f92a23          	sw	a5,20(s2)
   17c78:	00f92823          	sw	a5,16(s2)
   17c7c:	0107a623          	sw	a6,12(a5)
   17c80:	0107a423          	sw	a6,8(a5)
   17c84:	0117a223          	sw	a7,4(a5)
   17c88:	00e5a023          	sw	a4,0(a1)
   17c8c:	02d000ef          	jal	184b8 <__malloc_unlock>
   17c90:	00840513          	addi	a0,s0,8
   17c94:	0680006f          	j	17cfc <_malloc_r+0x258>
   17c98:	01000493          	li	s1,16
   17c9c:	08b4ea63          	bltu	s1,a1,17d30 <_malloc_r+0x28c>
   17ca0:	015000ef          	jal	184b4 <__malloc_lock>
   17ca4:	00600793          	li	a5,6
   17ca8:	00200693          	li	a3,2
   17cac:	0001e937          	lui	s2,0x1e
   17cb0:	a6890913          	addi	s2,s2,-1432 # 1da68 <__malloc_av_>
   17cb4:	00279793          	slli	a5,a5,0x2
   17cb8:	00f907b3          	add	a5,s2,a5
   17cbc:	0047a403          	lw	s0,4(a5)
   17cc0:	ff878713          	addi	a4,a5,-8
   17cc4:	36e40263          	beq	s0,a4,18028 <_malloc_r+0x584>
   17cc8:	00442783          	lw	a5,4(s0)
   17ccc:	00c42683          	lw	a3,12(s0)
   17cd0:	00842603          	lw	a2,8(s0)
   17cd4:	ffc7f793          	andi	a5,a5,-4
   17cd8:	00f407b3          	add	a5,s0,a5
   17cdc:	0047a703          	lw	a4,4(a5)
   17ce0:	00098513          	mv	a0,s3
   17ce4:	00d62623          	sw	a3,12(a2)
   17ce8:	00176713          	ori	a4,a4,1
   17cec:	00c6a423          	sw	a2,8(a3)
   17cf0:	00e7a223          	sw	a4,4(a5)
   17cf4:	7c4000ef          	jal	184b8 <__malloc_unlock>
   17cf8:	00840513          	addi	a0,s0,8
   17cfc:	02c12083          	lw	ra,44(sp)
   17d00:	02812403          	lw	s0,40(sp)
   17d04:	02412483          	lw	s1,36(sp)
   17d08:	02012903          	lw	s2,32(sp)
   17d0c:	01c12983          	lw	s3,28(sp)
   17d10:	01812a03          	lw	s4,24(sp)
   17d14:	01412a83          	lw	s5,20(sp)
   17d18:	01012b03          	lw	s6,16(sp)
   17d1c:	00c12b83          	lw	s7,12(sp)
   17d20:	00812c03          	lw	s8,8(sp)
   17d24:	00412c83          	lw	s9,4(sp)
   17d28:	03010113          	addi	sp,sp,48
   17d2c:	00008067          	ret
   17d30:	00c00793          	li	a5,12
   17d34:	00f9a023          	sw	a5,0(s3) # ffffe000 <_end+0xfffdd890>
   17d38:	00000513          	li	a0,0
   17d3c:	fc1ff06f          	j	17cfc <_malloc_r+0x258>
   17d40:	00400713          	li	a4,4
   17d44:	20f76263          	bltu	a4,a5,17f48 <_malloc_r+0x4a4>
   17d48:	0064d593          	srli	a1,s1,0x6
   17d4c:	03958513          	addi	a0,a1,57
   17d50:	00151693          	slli	a3,a0,0x1
   17d54:	03858593          	addi	a1,a1,56
   17d58:	db9ff06f          	j	17b10 <_malloc_r+0x6c>
   17d5c:	00050693          	mv	a3,a0
   17d60:	e01ff06f          	j	17b60 <_malloc_r+0xbc>
   17d64:	00f407b3          	add	a5,s0,a5
   17d68:	0047a703          	lw	a4,4(a5)
   17d6c:	00c42683          	lw	a3,12(s0)
   17d70:	00842603          	lw	a2,8(s0)
   17d74:	00176713          	ori	a4,a4,1
   17d78:	00098513          	mv	a0,s3
   17d7c:	00d62623          	sw	a3,12(a2)
   17d80:	00c6a423          	sw	a2,8(a3)
   17d84:	00e7a223          	sw	a4,4(a5)
   17d88:	730000ef          	jal	184b8 <__malloc_unlock>
   17d8c:	00840513          	addi	a0,s0,8
   17d90:	f6dff06f          	j	17cfc <_malloc_r+0x258>
   17d94:	00f407b3          	add	a5,s0,a5
   17d98:	0047a703          	lw	a4,4(a5)
   17d9c:	00098513          	mv	a0,s3
   17da0:	00176713          	ori	a4,a4,1
   17da4:	00e7a223          	sw	a4,4(a5)
   17da8:	710000ef          	jal	184b8 <__malloc_unlock>
   17dac:	00840513          	addi	a0,s0,8
   17db0:	f4dff06f          	j	17cfc <_malloc_r+0x258>
   17db4:	00892403          	lw	s0,8(s2)
   17db8:	00442a03          	lw	s4,4(s0)
   17dbc:	ffca7a93          	andi	s5,s4,-4
   17dc0:	009ae863          	bltu	s5,s1,17dd0 <_malloc_r+0x32c>
   17dc4:	409a87b3          	sub	a5,s5,s1
   17dc8:	00f00713          	li	a4,15
   17dcc:	14f74a63          	blt	a4,a5,17f20 <_malloc_r+0x47c>
   17dd0:	8881a703          	lw	a4,-1912(gp) # 1def8 <__malloc_top_pad>
   17dd4:	8101a683          	lw	a3,-2032(gp) # 1de80 <__malloc_sbrk_base>
   17dd8:	00e48733          	add	a4,s1,a4
   17ddc:	fff00793          	li	a5,-1
   17de0:	01540b33          	add	s6,s0,s5
   17de4:	01070a13          	addi	s4,a4,16
   17de8:	00f68c63          	beq	a3,a5,17e00 <_malloc_r+0x35c>
   17dec:	000016b7          	lui	a3,0x1
   17df0:	00f68a13          	addi	s4,a3,15 # 100f <_ftext-0xeff1>
   17df4:	014706b3          	add	a3,a4,s4
   17df8:	fffff737          	lui	a4,0xfffff
   17dfc:	00e6fa33          	and	s4,a3,a4
   17e00:	000a0513          	mv	a0,s4
   17e04:	0c1030ef          	jal	1b6c4 <sbrk>
   17e08:	fff00793          	li	a5,-1
   17e0c:	00050b93          	mv	s7,a0
   17e10:	28f50063          	beq	a0,a5,18090 <_malloc_r+0x5ec>
   17e14:	27656c63          	bltu	a0,s6,1808c <_malloc_r+0x5e8>
   17e18:	8ac18c13          	addi	s8,gp,-1876 # 1df1c <__malloc_current_mallinfo>
   17e1c:	000c2703          	lw	a4,0(s8)
   17e20:	00ea0733          	add	a4,s4,a4
   17e24:	00ec2023          	sw	a4,0(s8)
   17e28:	357b0c63          	beq	s6,s7,18180 <_malloc_r+0x6dc>
   17e2c:	8101a683          	lw	a3,-2032(gp) # 1de80 <__malloc_sbrk_base>
   17e30:	fff00793          	li	a5,-1
   17e34:	36f68a63          	beq	a3,a5,181a8 <_malloc_r+0x704>
   17e38:	416b8b33          	sub	s6,s7,s6
   17e3c:	00eb0733          	add	a4,s6,a4
   17e40:	00ec2023          	sw	a4,0(s8)
   17e44:	007bf713          	andi	a4,s7,7
   17e48:	000017b7          	lui	a5,0x1
   17e4c:	00070a63          	beqz	a4,17e60 <_malloc_r+0x3bc>
   17e50:	40eb8bb3          	sub	s7,s7,a4
   17e54:	00878793          	addi	a5,a5,8 # 1008 <_ftext-0xeff8>
   17e58:	008b8b93          	addi	s7,s7,8
   17e5c:	40e787b3          	sub	a5,a5,a4
   17e60:	00001737          	lui	a4,0x1
   17e64:	fff70713          	addi	a4,a4,-1 # fff <_ftext-0xf001>
   17e68:	014b8a33          	add	s4,s7,s4
   17e6c:	00ea7a33          	and	s4,s4,a4
   17e70:	41478a33          	sub	s4,a5,s4
   17e74:	000a0513          	mv	a0,s4
   17e78:	04d030ef          	jal	1b6c4 <sbrk>
   17e7c:	fff00793          	li	a5,-1
   17e80:	30f50e63          	beq	a0,a5,1819c <_malloc_r+0x6f8>
   17e84:	417507b3          	sub	a5,a0,s7
   17e88:	014787b3          	add	a5,a5,s4
   17e8c:	0017e793          	ori	a5,a5,1
   17e90:	000c2703          	lw	a4,0(s8)
   17e94:	01792423          	sw	s7,8(s2)
   17e98:	00fba223          	sw	a5,4(s7)
   17e9c:	00ea0733          	add	a4,s4,a4
   17ea0:	00ec2023          	sw	a4,0(s8)
   17ea4:	03240c63          	beq	s0,s2,17edc <_malloc_r+0x438>
   17ea8:	00f00613          	li	a2,15
   17eac:	29567263          	bleu	s5,a2,18130 <_malloc_r+0x68c>
   17eb0:	ff4a8793          	addi	a5,s5,-12
   17eb4:	ff87f793          	andi	a5,a5,-8
   17eb8:	00f406b3          	add	a3,s0,a5
   17ebc:	00500593          	li	a1,5
   17ec0:	00b6a223          	sw	a1,4(a3)
   17ec4:	00b6a423          	sw	a1,8(a3)
   17ec8:	00442683          	lw	a3,4(s0)
   17ecc:	0016f693          	andi	a3,a3,1
   17ed0:	00f6e6b3          	or	a3,a3,a5
   17ed4:	00d42223          	sw	a3,4(s0)
   17ed8:	2cf66c63          	bltu	a2,a5,181b0 <_malloc_r+0x70c>
   17edc:	8841a683          	lw	a3,-1916(gp) # 1def4 <__malloc_max_sbrked_mem>
   17ee0:	00e6f463          	bleu	a4,a3,17ee8 <_malloc_r+0x444>
   17ee4:	88e1a223          	sw	a4,-1916(gp) # 1def4 <__malloc_max_sbrked_mem>
   17ee8:	8801a683          	lw	a3,-1920(gp) # 1def0 <__malloc_max_total_mem>
   17eec:	00892403          	lw	s0,8(s2)
   17ef0:	00e6f463          	bleu	a4,a3,17ef8 <_malloc_r+0x454>
   17ef4:	88e1a023          	sw	a4,-1920(gp) # 1def0 <__malloc_max_total_mem>
   17ef8:	00442703          	lw	a4,4(s0)
   17efc:	ffc77713          	andi	a4,a4,-4
   17f00:	409707b3          	sub	a5,a4,s1
   17f04:	00976663          	bltu	a4,s1,17f10 <_malloc_r+0x46c>
   17f08:	00f00713          	li	a4,15
   17f0c:	00f74a63          	blt	a4,a5,17f20 <_malloc_r+0x47c>
   17f10:	00098513          	mv	a0,s3
   17f14:	5a4000ef          	jal	184b8 <__malloc_unlock>
   17f18:	00000513          	li	a0,0
   17f1c:	de1ff06f          	j	17cfc <_malloc_r+0x258>
   17f20:	00940733          	add	a4,s0,s1
   17f24:	0017e793          	ori	a5,a5,1
   17f28:	0014e493          	ori	s1,s1,1
   17f2c:	00942223          	sw	s1,4(s0)
   17f30:	00098513          	mv	a0,s3
   17f34:	00e92423          	sw	a4,8(s2)
   17f38:	00f72223          	sw	a5,4(a4)
   17f3c:	57c000ef          	jal	184b8 <__malloc_unlock>
   17f40:	00840513          	addi	a0,s0,8
   17f44:	db9ff06f          	j	17cfc <_malloc_r+0x258>
   17f48:	01400713          	li	a4,20
   17f4c:	10f77e63          	bleu	a5,a4,18068 <_malloc_r+0x5c4>
   17f50:	05400713          	li	a4,84
   17f54:	1af76063          	bltu	a4,a5,180f4 <_malloc_r+0x650>
   17f58:	00c4d593          	srli	a1,s1,0xc
   17f5c:	06f58513          	addi	a0,a1,111
   17f60:	00151693          	slli	a3,a0,0x1
   17f64:	06e58593          	addi	a1,a1,110
   17f68:	ba9ff06f          	j	17b10 <_malloc_r+0x6c>
   17f6c:	0097d713          	srli	a4,a5,0x9
   17f70:	00400613          	li	a2,4
   17f74:	10e67263          	bleu	a4,a2,18078 <_malloc_r+0x5d4>
   17f78:	01400613          	li	a2,20
   17f7c:	1ee66463          	bltu	a2,a4,18164 <_malloc_r+0x6c0>
   17f80:	05c70593          	addi	a1,a4,92
   17f84:	05b70613          	addi	a2,a4,91
   17f88:	00159593          	slli	a1,a1,0x1
   17f8c:	00259593          	slli	a1,a1,0x2
   17f90:	00b905b3          	add	a1,s2,a1
   17f94:	0005a703          	lw	a4,0(a1)
   17f98:	ff858593          	addi	a1,a1,-8
   17f9c:	16e58a63          	beq	a1,a4,18110 <_malloc_r+0x66c>
   17fa0:	00472603          	lw	a2,4(a4)
   17fa4:	ffc67613          	andi	a2,a2,-4
   17fa8:	00c7f663          	bleu	a2,a5,17fb4 <_malloc_r+0x510>
   17fac:	00872703          	lw	a4,8(a4)
   17fb0:	fee598e3          	bne	a1,a4,17fa0 <_malloc_r+0x4fc>
   17fb4:	00c72583          	lw	a1,12(a4)
   17fb8:	00492783          	lw	a5,4(s2)
   17fbc:	00b42623          	sw	a1,12(s0)
   17fc0:	00e42423          	sw	a4,8(s0)
   17fc4:	0085a423          	sw	s0,8(a1)
   17fc8:	00872623          	sw	s0,12(a4)
   17fcc:	c09ff06f          	j	17bd4 <_malloc_r+0x130>
   17fd0:	009407b3          	add	a5,s0,s1
   17fd4:	00176613          	ori	a2,a4,1
   17fd8:	00e786b3          	add	a3,a5,a4
   17fdc:	0014e493          	ori	s1,s1,1
   17fe0:	00942223          	sw	s1,4(s0)
   17fe4:	00098513          	mv	a0,s3
   17fe8:	00f92a23          	sw	a5,20(s2)
   17fec:	00f92823          	sw	a5,16(s2)
   17ff0:	0107a623          	sw	a6,12(a5)
   17ff4:	0107a423          	sw	a6,8(a5)
   17ff8:	00c7a223          	sw	a2,4(a5)
   17ffc:	00e6a023          	sw	a4,0(a3)
   18000:	4b8000ef          	jal	184b8 <__malloc_unlock>
   18004:	00840513          	addi	a0,s0,8
   18008:	cf5ff06f          	j	17cfc <_malloc_r+0x258>
   1800c:	00492783          	lw	a5,4(s2)
   18010:	bc5ff06f          	j	17bd4 <_malloc_r+0x130>
   18014:	00128293          	addi	t0,t0,1
   18018:	0032f793          	andi	a5,t0,3
   1801c:	00858593          	addi	a1,a1,8
   18020:	c00792e3          	bnez	a5,17c24 <_malloc_r+0x180>
   18024:	0880006f          	j	180ac <_malloc_r+0x608>
   18028:	00c7a403          	lw	s0,12(a5)
   1802c:	00268693          	addi	a3,a3,2
   18030:	b28788e3          	beq	a5,s0,17b60 <_malloc_r+0xbc>
   18034:	c95ff06f          	j	17cc8 <_malloc_r+0x224>
   18038:	00f407b3          	add	a5,s0,a5
   1803c:	0047a703          	lw	a4,4(a5)
   18040:	00c42683          	lw	a3,12(s0)
   18044:	00842603          	lw	a2,8(s0)
   18048:	00176713          	ori	a4,a4,1
   1804c:	00e7a223          	sw	a4,4(a5)
   18050:	00098513          	mv	a0,s3
   18054:	00d62623          	sw	a3,12(a2)
   18058:	00c6a423          	sw	a2,8(a3)
   1805c:	45c000ef          	jal	184b8 <__malloc_unlock>
   18060:	00840513          	addi	a0,s0,8
   18064:	c99ff06f          	j	17cfc <_malloc_r+0x258>
   18068:	05c78513          	addi	a0,a5,92
   1806c:	05b78593          	addi	a1,a5,91
   18070:	00151693          	slli	a3,a0,0x1
   18074:	a9dff06f          	j	17b10 <_malloc_r+0x6c>
   18078:	0067d613          	srli	a2,a5,0x6
   1807c:	03960593          	addi	a1,a2,57
   18080:	00159593          	slli	a1,a1,0x1
   18084:	03860613          	addi	a2,a2,56
   18088:	f05ff06f          	j	17f8c <_malloc_r+0x4e8>
   1808c:	d92406e3          	beq	s0,s2,17e18 <_malloc_r+0x374>
   18090:	00892403          	lw	s0,8(s2)
   18094:	00442703          	lw	a4,4(s0)
   18098:	ffc77713          	andi	a4,a4,-4
   1809c:	e65ff06f          	j	17f00 <_malloc_r+0x45c>
   180a0:	0088a783          	lw	a5,8(a7)
   180a4:	fff68693          	addi	a3,a3,-1
   180a8:	14f89e63          	bne	a7,a5,18204 <_malloc_r+0x760>
   180ac:	0036f793          	andi	a5,a3,3
   180b0:	ff888893          	addi	a7,a7,-8
   180b4:	fe0796e3          	bnez	a5,180a0 <_malloc_r+0x5fc>
   180b8:	00492783          	lw	a5,4(s2)
   180bc:	fff64713          	not	a4,a2
   180c0:	00f777b3          	and	a5,a4,a5
   180c4:	00f92223          	sw	a5,4(s2)
   180c8:	00161613          	slli	a2,a2,0x1
   180cc:	cec7e4e3          	bltu	a5,a2,17db4 <_malloc_r+0x310>
   180d0:	ce0602e3          	beqz	a2,17db4 <_malloc_r+0x310>
   180d4:	00f67733          	and	a4,a2,a5
   180d8:	00028693          	mv	a3,t0
   180dc:	b2071ce3          	bnez	a4,17c14 <_malloc_r+0x170>
   180e0:	00161613          	slli	a2,a2,0x1
   180e4:	00f67733          	and	a4,a2,a5
   180e8:	00468693          	addi	a3,a3,4
   180ec:	fe070ae3          	beqz	a4,180e0 <_malloc_r+0x63c>
   180f0:	b25ff06f          	j	17c14 <_malloc_r+0x170>
   180f4:	15400713          	li	a4,340
   180f8:	04f76263          	bltu	a4,a5,1813c <_malloc_r+0x698>
   180fc:	00f4d593          	srli	a1,s1,0xf
   18100:	07858513          	addi	a0,a1,120
   18104:	00151693          	slli	a3,a0,0x1
   18108:	07758593          	addi	a1,a1,119
   1810c:	a05ff06f          	j	17b10 <_malloc_r+0x6c>
   18110:	00492703          	lw	a4,4(s2)
   18114:	40265613          	srai	a2,a2,0x2
   18118:	00100793          	li	a5,1
   1811c:	00c797b3          	sll	a5,a5,a2
   18120:	00e7e7b3          	or	a5,a5,a4
   18124:	00f92223          	sw	a5,4(s2)
   18128:	00058713          	mv	a4,a1
   1812c:	e91ff06f          	j	17fbc <_malloc_r+0x518>
   18130:	00100793          	li	a5,1
   18134:	00fba223          	sw	a5,4(s7)
   18138:	dd9ff06f          	j	17f10 <_malloc_r+0x46c>
   1813c:	55400713          	li	a4,1364
   18140:	0fe00693          	li	a3,254
   18144:	07f00513          	li	a0,127
   18148:	07e00593          	li	a1,126
   1814c:	9cf762e3          	bltu	a4,a5,17b10 <_malloc_r+0x6c>
   18150:	0124d593          	srli	a1,s1,0x12
   18154:	07d58513          	addi	a0,a1,125
   18158:	00151693          	slli	a3,a0,0x1
   1815c:	07c58593          	addi	a1,a1,124
   18160:	9b1ff06f          	j	17b10 <_malloc_r+0x6c>
   18164:	05400613          	li	a2,84
   18168:	04e66e63          	bltu	a2,a4,181c4 <_malloc_r+0x720>
   1816c:	00c7d613          	srli	a2,a5,0xc
   18170:	06f60593          	addi	a1,a2,111
   18174:	00159593          	slli	a1,a1,0x1
   18178:	06e60613          	addi	a2,a2,110
   1817c:	e11ff06f          	j	17f8c <_malloc_r+0x4e8>
   18180:	014b1793          	slli	a5,s6,0x14
   18184:	ca0794e3          	bnez	a5,17e2c <_malloc_r+0x388>
   18188:	00892783          	lw	a5,8(s2)
   1818c:	014a8a33          	add	s4,s5,s4
   18190:	001a6a13          	ori	s4,s4,1
   18194:	0147a223          	sw	s4,4(a5)
   18198:	d45ff06f          	j	17edc <_malloc_r+0x438>
   1819c:	00100793          	li	a5,1
   181a0:	00000a13          	li	s4,0
   181a4:	cedff06f          	j	17e90 <_malloc_r+0x3ec>
   181a8:	8171a823          	sw	s7,-2032(gp) # 1de80 <__malloc_sbrk_base>
   181ac:	c99ff06f          	j	17e44 <_malloc_r+0x3a0>
   181b0:	00840593          	addi	a1,s0,8
   181b4:	00098513          	mv	a0,s3
   181b8:	dcdfe0ef          	jal	16f84 <_free_r>
   181bc:	000c2703          	lw	a4,0(s8)
   181c0:	d1dff06f          	j	17edc <_malloc_r+0x438>
   181c4:	15400613          	li	a2,340
   181c8:	00e66c63          	bltu	a2,a4,181e0 <_malloc_r+0x73c>
   181cc:	00f7d613          	srli	a2,a5,0xf
   181d0:	07860593          	addi	a1,a2,120
   181d4:	00159593          	slli	a1,a1,0x1
   181d8:	07760613          	addi	a2,a2,119
   181dc:	db1ff06f          	j	17f8c <_malloc_r+0x4e8>
   181e0:	55400513          	li	a0,1364
   181e4:	0fe00593          	li	a1,254
   181e8:	07e00613          	li	a2,126
   181ec:	dae560e3          	bltu	a0,a4,17f8c <_malloc_r+0x4e8>
   181f0:	0127d613          	srli	a2,a5,0x12
   181f4:	07d60593          	addi	a1,a2,125
   181f8:	00159593          	slli	a1,a1,0x1
   181fc:	07c60613          	addi	a2,a2,124
   18200:	d8dff06f          	j	17f8c <_malloc_r+0x4e8>
   18204:	00492783          	lw	a5,4(s2)
   18208:	ec1ff06f          	j	180c8 <_malloc_r+0x624>
   1820c:	0034d693          	srli	a3,s1,0x3
   18210:	00168793          	addi	a5,a3,1
   18214:	00179793          	slli	a5,a5,0x1
   18218:	a95ff06f          	j	17cac <_malloc_r+0x208>

0001821c <memchr>:
   1821c:	00357793          	andi	a5,a0,3
   18220:	0ff5f693          	andi	a3,a1,255
   18224:	0c078063          	beqz	a5,182e4 <memchr+0xc8>
   18228:	fff60793          	addi	a5,a2,-1
   1822c:	06060063          	beqz	a2,1828c <memchr+0x70>
   18230:	00054703          	lbu	a4,0(a0)
   18234:	00d71c63          	bne	a4,a3,1824c <memchr+0x30>
   18238:	0b40006f          	j	182ec <memchr+0xd0>
   1823c:	04078863          	beqz	a5,1828c <memchr+0x70>
   18240:	00054703          	lbu	a4,0(a0)
   18244:	fff78793          	addi	a5,a5,-1
   18248:	04d70463          	beq	a4,a3,18290 <memchr+0x74>
   1824c:	00150513          	addi	a0,a0,1
   18250:	00357713          	andi	a4,a0,3
   18254:	fe0714e3          	bnez	a4,1823c <memchr+0x20>
   18258:	00300813          	li	a6,3
   1825c:	02f86c63          	bltu	a6,a5,18294 <memchr+0x78>
   18260:	02078663          	beqz	a5,1828c <memchr+0x70>
   18264:	00054703          	lbu	a4,0(a0)
   18268:	02d70463          	beq	a4,a3,18290 <memchr+0x74>
   1826c:	00150713          	addi	a4,a0,1
   18270:	00f507b3          	add	a5,a0,a5
   18274:	0100006f          	j	18284 <memchr+0x68>
   18278:	00170713          	addi	a4,a4,1
   1827c:	fff74603          	lbu	a2,-1(a4)
   18280:	00d60863          	beq	a2,a3,18290 <memchr+0x74>
   18284:	00070513          	mv	a0,a4
   18288:	fee798e3          	bne	a5,a4,18278 <memchr+0x5c>
   1828c:	00000513          	li	a0,0
   18290:	00008067          	ret
   18294:	0ff5f593          	andi	a1,a1,255
   18298:	00859713          	slli	a4,a1,0x8
   1829c:	00b765b3          	or	a1,a4,a1
   182a0:	01059713          	slli	a4,a1,0x10
   182a4:	feff02b7          	lui	t0,0xfeff0
   182a8:	808088b7          	lui	a7,0x80808
   182ac:	00e5e5b3          	or	a1,a1,a4
   182b0:	eff28293          	addi	t0,t0,-257 # fefefeff <_end+0xfefcf78f>
   182b4:	08088893          	addi	a7,a7,128 # 80808080 <_end+0x807e7910>
   182b8:	00052703          	lw	a4,0(a0)
   182bc:	00e5c733          	xor	a4,a1,a4
   182c0:	00570633          	add	a2,a4,t0
   182c4:	fff74713          	not	a4,a4
   182c8:	00e67733          	and	a4,a2,a4
   182cc:	01177733          	and	a4,a4,a7
   182d0:	f8071ae3          	bnez	a4,18264 <memchr+0x48>
   182d4:	ffc78793          	addi	a5,a5,-4
   182d8:	00450513          	addi	a0,a0,4
   182dc:	fcf86ee3          	bltu	a6,a5,182b8 <memchr+0x9c>
   182e0:	f81ff06f          	j	18260 <memchr+0x44>
   182e4:	00060793          	mv	a5,a2
   182e8:	f71ff06f          	j	18258 <memchr+0x3c>
   182ec:	00008067          	ret

000182f0 <memmove>:
   182f0:	00060693          	mv	a3,a2
   182f4:	02a5f863          	bleu	a0,a1,18324 <memmove+0x34>
   182f8:	00c58733          	add	a4,a1,a2
   182fc:	02e57463          	bleu	a4,a0,18324 <memmove+0x34>
   18300:	00c507b3          	add	a5,a0,a2
   18304:	40c785b3          	sub	a1,a5,a2
   18308:	04060263          	beqz	a2,1834c <memmove+0x5c>
   1830c:	fff70713          	addi	a4,a4,-1
   18310:	00074683          	lbu	a3,0(a4)
   18314:	fff78793          	addi	a5,a5,-1
   18318:	00d78023          	sb	a3,0(a5)
   1831c:	fef598e3          	bne	a1,a5,1830c <memmove+0x1c>
   18320:	00008067          	ret
   18324:	00f00893          	li	a7,15
   18328:	00050793          	mv	a5,a0
   1832c:	02c8e263          	bltu	a7,a2,18350 <memmove+0x60>
   18330:	00068e63          	beqz	a3,1834c <memmove+0x5c>
   18334:	00d786b3          	add	a3,a5,a3
   18338:	00158593          	addi	a1,a1,1
   1833c:	fff5c703          	lbu	a4,-1(a1)
   18340:	00178793          	addi	a5,a5,1
   18344:	fee78fa3          	sb	a4,-1(a5)
   18348:	fef698e3          	bne	a3,a5,18338 <memmove+0x48>
   1834c:	00008067          	ret
   18350:	00a5e733          	or	a4,a1,a0
   18354:	00377713          	andi	a4,a4,3
   18358:	fc071ce3          	bnez	a4,18330 <memmove+0x40>
   1835c:	00060693          	mv	a3,a2
   18360:	00058713          	mv	a4,a1
   18364:	00072803          	lw	a6,0(a4)
   18368:	01078793          	addi	a5,a5,16
   1836c:	01070713          	addi	a4,a4,16
   18370:	ff07a823          	sw	a6,-16(a5)
   18374:	ff472803          	lw	a6,-12(a4)
   18378:	ff068693          	addi	a3,a3,-16
   1837c:	ff07aa23          	sw	a6,-12(a5)
   18380:	ff872803          	lw	a6,-8(a4)
   18384:	ff07ac23          	sw	a6,-8(a5)
   18388:	ffc72803          	lw	a6,-4(a4)
   1838c:	ff07ae23          	sw	a6,-4(a5)
   18390:	fcd8eae3          	bltu	a7,a3,18364 <memmove+0x74>
   18394:	ff060713          	addi	a4,a2,-16
   18398:	ff077713          	andi	a4,a4,-16
   1839c:	01070713          	addi	a4,a4,16
   183a0:	00f67613          	andi	a2,a2,15
   183a4:	00300813          	li	a6,3
   183a8:	00e507b3          	add	a5,a0,a4
   183ac:	00e585b3          	add	a1,a1,a4
   183b0:	00060693          	mv	a3,a2
   183b4:	f6c87ee3          	bleu	a2,a6,18330 <memmove+0x40>
   183b8:	00458593          	addi	a1,a1,4
   183bc:	ffc5a703          	lw	a4,-4(a1)
   183c0:	00478793          	addi	a5,a5,4
   183c4:	ffc60613          	addi	a2,a2,-4
   183c8:	fee7ae23          	sw	a4,-4(a5)
   183cc:	00060693          	mv	a3,a2
   183d0:	fec864e3          	bltu	a6,a2,183b8 <memmove+0xc8>
   183d4:	f5dff06f          	j	18330 <memmove+0x40>

000183d8 <memset>:
   183d8:	00f00813          	li	a6,15
   183dc:	00050713          	mv	a4,a0
   183e0:	02c87e63          	bleu	a2,a6,1841c <memset+0x44>
   183e4:	00f77793          	andi	a5,a4,15
   183e8:	0a079063          	bnez	a5,18488 <memset+0xb0>
   183ec:	08059263          	bnez	a1,18470 <memset+0x98>
   183f0:	ff067693          	andi	a3,a2,-16
   183f4:	00f67613          	andi	a2,a2,15
   183f8:	00e686b3          	add	a3,a3,a4
   183fc:	00b72023          	sw	a1,0(a4)
   18400:	00b72223          	sw	a1,4(a4)
   18404:	00b72423          	sw	a1,8(a4)
   18408:	00b72623          	sw	a1,12(a4)
   1840c:	01070713          	addi	a4,a4,16
   18410:	fed766e3          	bltu	a4,a3,183fc <memset+0x24>
   18414:	00061463          	bnez	a2,1841c <memset+0x44>
   18418:	00008067          	ret
   1841c:	40c806b3          	sub	a3,a6,a2
   18420:	00269693          	slli	a3,a3,0x2
   18424:	00000297          	auipc	t0,0x0
   18428:	005686b3          	add	a3,a3,t0
   1842c:	00c68067          	jr	a3,12
   18430:	00b70723          	sb	a1,14(a4)
   18434:	00b706a3          	sb	a1,13(a4)
   18438:	00b70623          	sb	a1,12(a4)
   1843c:	00b705a3          	sb	a1,11(a4)
   18440:	00b70523          	sb	a1,10(a4)
   18444:	00b704a3          	sb	a1,9(a4)
   18448:	00b70423          	sb	a1,8(a4)
   1844c:	00b703a3          	sb	a1,7(a4)
   18450:	00b70323          	sb	a1,6(a4)
   18454:	00b702a3          	sb	a1,5(a4)
   18458:	00b70223          	sb	a1,4(a4)
   1845c:	00b701a3          	sb	a1,3(a4)
   18460:	00b70123          	sb	a1,2(a4)
   18464:	00b700a3          	sb	a1,1(a4)
   18468:	00b70023          	sb	a1,0(a4)
   1846c:	00008067          	ret
   18470:	0ff5f593          	andi	a1,a1,255
   18474:	00859693          	slli	a3,a1,0x8
   18478:	00d5e5b3          	or	a1,a1,a3
   1847c:	01059693          	slli	a3,a1,0x10
   18480:	00d5e5b3          	or	a1,a1,a3
   18484:	f6dff06f          	j	183f0 <memset+0x18>
   18488:	00279693          	slli	a3,a5,0x2
   1848c:	00000297          	auipc	t0,0x0
   18490:	005686b3          	add	a3,a3,t0
   18494:	00008293          	mv	t0,ra
   18498:	fa0680e7          	jalr	a3,-96
   1849c:	00028093          	mv	ra,t0
   184a0:	ff078793          	addi	a5,a5,-16
   184a4:	40f70733          	sub	a4,a4,a5
   184a8:	00f60633          	add	a2,a2,a5
   184ac:	f6c878e3          	bleu	a2,a6,1841c <memset+0x44>
   184b0:	f3dff06f          	j	183ec <memset+0x14>

000184b4 <__malloc_lock>:
   184b4:	00008067          	ret

000184b8 <__malloc_unlock>:
   184b8:	00008067          	ret

000184bc <_Balloc>:
   184bc:	04c52783          	lw	a5,76(a0)
   184c0:	ff010113          	addi	sp,sp,-16
   184c4:	00812423          	sw	s0,8(sp)
   184c8:	00912223          	sw	s1,4(sp)
   184cc:	00112623          	sw	ra,12(sp)
   184d0:	01212023          	sw	s2,0(sp)
   184d4:	00050413          	mv	s0,a0
   184d8:	00058493          	mv	s1,a1
   184dc:	02078e63          	beqz	a5,18518 <_Balloc+0x5c>
   184e0:	00249713          	slli	a4,s1,0x2
   184e4:	00e787b3          	add	a5,a5,a4
   184e8:	0007a503          	lw	a0,0(a5)
   184ec:	04050663          	beqz	a0,18538 <_Balloc+0x7c>
   184f0:	00052703          	lw	a4,0(a0)
   184f4:	00e7a023          	sw	a4,0(a5)
   184f8:	00052823          	sw	zero,16(a0)
   184fc:	00052623          	sw	zero,12(a0)
   18500:	00c12083          	lw	ra,12(sp)
   18504:	00812403          	lw	s0,8(sp)
   18508:	00412483          	lw	s1,4(sp)
   1850c:	00012903          	lw	s2,0(sp)
   18510:	01010113          	addi	sp,sp,16
   18514:	00008067          	ret
   18518:	02100613          	li	a2,33
   1851c:	00400593          	li	a1,4
   18520:	0b9020ef          	jal	1add8 <_calloc_r>
   18524:	00050793          	mv	a5,a0
   18528:	04a42623          	sw	a0,76(s0)
   1852c:	fa051ae3          	bnez	a0,184e0 <_Balloc+0x24>
   18530:	00000513          	li	a0,0
   18534:	fcdff06f          	j	18500 <_Balloc+0x44>
   18538:	00100593          	li	a1,1
   1853c:	00959933          	sll	s2,a1,s1
   18540:	00590613          	addi	a2,s2,5
   18544:	00261613          	slli	a2,a2,0x2
   18548:	00040513          	mv	a0,s0
   1854c:	08d020ef          	jal	1add8 <_calloc_r>
   18550:	fe0500e3          	beqz	a0,18530 <_Balloc+0x74>
   18554:	00952223          	sw	s1,4(a0)
   18558:	01252423          	sw	s2,8(a0)
   1855c:	f9dff06f          	j	184f8 <_Balloc+0x3c>

00018560 <_Bfree>:
   18560:	02058063          	beqz	a1,18580 <_Bfree+0x20>
   18564:	0045a783          	lw	a5,4(a1)
   18568:	04c52703          	lw	a4,76(a0)
   1856c:	00279793          	slli	a5,a5,0x2
   18570:	00f707b3          	add	a5,a4,a5
   18574:	0007a703          	lw	a4,0(a5)
   18578:	00e5a023          	sw	a4,0(a1)
   1857c:	00b7a023          	sw	a1,0(a5)
   18580:	00008067          	ret

00018584 <__multadd>:
   18584:	fd010113          	addi	sp,sp,-48
   18588:	00010837          	lui	a6,0x10
   1858c:	02812423          	sw	s0,40(sp)
   18590:	02912223          	sw	s1,36(sp)
   18594:	03212023          	sw	s2,32(sp)
   18598:	00058493          	mv	s1,a1
   1859c:	0105a403          	lw	s0,16(a1)
   185a0:	00050913          	mv	s2,a0
   185a4:	02112623          	sw	ra,44(sp)
   185a8:	01312e23          	sw	s3,28(sp)
   185ac:	01458593          	addi	a1,a1,20
   185b0:	00000513          	li	a0,0
   185b4:	fff80813          	addi	a6,a6,-1 # ffff <_ftext-0x1>
   185b8:	0005a783          	lw	a5,0(a1)
   185bc:	00150513          	addi	a0,a0,1
   185c0:	00458593          	addi	a1,a1,4
   185c4:	0107f733          	and	a4,a5,a6
   185c8:	02c70733          	mul	a4,a4,a2
   185cc:	0107d793          	srli	a5,a5,0x10
   185d0:	02c787b3          	mul	a5,a5,a2
   185d4:	00d70733          	add	a4,a4,a3
   185d8:	01075693          	srli	a3,a4,0x10
   185dc:	01077733          	and	a4,a4,a6
   185e0:	00d786b3          	add	a3,a5,a3
   185e4:	01069793          	slli	a5,a3,0x10
   185e8:	00e78733          	add	a4,a5,a4
   185ec:	0106d693          	srli	a3,a3,0x10
   185f0:	fee5ae23          	sw	a4,-4(a1)
   185f4:	fc8542e3          	blt	a0,s0,185b8 <__multadd+0x34>
   185f8:	02068263          	beqz	a3,1861c <__multadd+0x98>
   185fc:	0084a783          	lw	a5,8(s1)
   18600:	02f45e63          	ble	a5,s0,1863c <__multadd+0xb8>
   18604:	00440793          	addi	a5,s0,4
   18608:	00279793          	slli	a5,a5,0x2
   1860c:	00f487b3          	add	a5,s1,a5
   18610:	00140413          	addi	s0,s0,1
   18614:	00d7a223          	sw	a3,4(a5)
   18618:	0084a823          	sw	s0,16(s1)
   1861c:	02c12083          	lw	ra,44(sp)
   18620:	00048513          	mv	a0,s1
   18624:	02812403          	lw	s0,40(sp)
   18628:	02412483          	lw	s1,36(sp)
   1862c:	02012903          	lw	s2,32(sp)
   18630:	01c12983          	lw	s3,28(sp)
   18634:	03010113          	addi	sp,sp,48
   18638:	00008067          	ret
   1863c:	0044a583          	lw	a1,4(s1)
   18640:	00090513          	mv	a0,s2
   18644:	00d12623          	sw	a3,12(sp)
   18648:	00158593          	addi	a1,a1,1
   1864c:	e71ff0ef          	jal	184bc <_Balloc>
   18650:	0104a603          	lw	a2,16(s1)
   18654:	00050993          	mv	s3,a0
   18658:	00c48593          	addi	a1,s1,12
   1865c:	00260613          	addi	a2,a2,2
   18660:	00c50513          	addi	a0,a0,12
   18664:	00261613          	slli	a2,a2,0x2
   18668:	929fa0ef          	jal	12f90 <memcpy>
   1866c:	0044a783          	lw	a5,4(s1)
   18670:	04c92703          	lw	a4,76(s2)
   18674:	00c12683          	lw	a3,12(sp)
   18678:	00279793          	slli	a5,a5,0x2
   1867c:	00f707b3          	add	a5,a4,a5
   18680:	0007a703          	lw	a4,0(a5)
   18684:	00e4a023          	sw	a4,0(s1)
   18688:	0097a023          	sw	s1,0(a5)
   1868c:	00098493          	mv	s1,s3
   18690:	f75ff06f          	j	18604 <__multadd+0x80>

00018694 <__s2b>:
   18694:	fe010113          	addi	sp,sp,-32
   18698:	00868793          	addi	a5,a3,8
   1869c:	01312623          	sw	s3,12(sp)
   186a0:	00068993          	mv	s3,a3
   186a4:	00900693          	li	a3,9
   186a8:	02d7c6b3          	div	a3,a5,a3
   186ac:	00100793          	li	a5,1
   186b0:	00812c23          	sw	s0,24(sp)
   186b4:	00912a23          	sw	s1,20(sp)
   186b8:	01212823          	sw	s2,16(sp)
   186bc:	01412423          	sw	s4,8(sp)
   186c0:	00058413          	mv	s0,a1
   186c4:	00112e23          	sw	ra,28(sp)
   186c8:	01512223          	sw	s5,4(sp)
   186cc:	00050913          	mv	s2,a0
   186d0:	00060a13          	mv	s4,a2
   186d4:	00070493          	mv	s1,a4
   186d8:	00000593          	li	a1,0
   186dc:	00d7d863          	ble	a3,a5,186ec <__s2b+0x58>
   186e0:	00179793          	slli	a5,a5,0x1
   186e4:	00158593          	addi	a1,a1,1
   186e8:	fed7cce3          	blt	a5,a3,186e0 <__s2b+0x4c>
   186ec:	00090513          	mv	a0,s2
   186f0:	dcdff0ef          	jal	184bc <_Balloc>
   186f4:	00100713          	li	a4,1
   186f8:	00900793          	li	a5,9
   186fc:	00952a23          	sw	s1,20(a0)
   18700:	00e52823          	sw	a4,16(a0)
   18704:	0947d463          	ble	s4,a5,1878c <__s2b+0xf8>
   18708:	00f40ab3          	add	s5,s0,a5
   1870c:	000a8493          	mv	s1,s5
   18710:	01440433          	add	s0,s0,s4
   18714:	00148493          	addi	s1,s1,1
   18718:	fff4c683          	lbu	a3,-1(s1)
   1871c:	00050593          	mv	a1,a0
   18720:	00a00613          	li	a2,10
   18724:	fd068693          	addi	a3,a3,-48
   18728:	00090513          	mv	a0,s2
   1872c:	e59ff0ef          	jal	18584 <__multadd>
   18730:	fe8492e3          	bne	s1,s0,18714 <__s2b+0x80>
   18734:	014a8433          	add	s0,s5,s4
   18738:	ff840413          	addi	s0,s0,-8
   1873c:	033a5663          	ble	s3,s4,18768 <__s2b+0xd4>
   18740:	414984b3          	sub	s1,s3,s4
   18744:	009404b3          	add	s1,s0,s1
   18748:	00140413          	addi	s0,s0,1
   1874c:	fff44683          	lbu	a3,-1(s0)
   18750:	00050593          	mv	a1,a0
   18754:	00a00613          	li	a2,10
   18758:	fd068693          	addi	a3,a3,-48
   1875c:	00090513          	mv	a0,s2
   18760:	e25ff0ef          	jal	18584 <__multadd>
   18764:	fe8492e3          	bne	s1,s0,18748 <__s2b+0xb4>
   18768:	01c12083          	lw	ra,28(sp)
   1876c:	01812403          	lw	s0,24(sp)
   18770:	01412483          	lw	s1,20(sp)
   18774:	01012903          	lw	s2,16(sp)
   18778:	00c12983          	lw	s3,12(sp)
   1877c:	00812a03          	lw	s4,8(sp)
   18780:	00412a83          	lw	s5,4(sp)
   18784:	02010113          	addi	sp,sp,32
   18788:	00008067          	ret
   1878c:	00a40413          	addi	s0,s0,10
   18790:	00078a13          	mv	s4,a5
   18794:	fa9ff06f          	j	1873c <__s2b+0xa8>

00018798 <__hi0bits>:
   18798:	ffff06b7          	lui	a3,0xffff0
   1879c:	00d576b3          	and	a3,a0,a3
   187a0:	00050793          	mv	a5,a0
   187a4:	00000713          	li	a4,0
   187a8:	00069663          	bnez	a3,187b4 <__hi0bits+0x1c>
   187ac:	01051793          	slli	a5,a0,0x10
   187b0:	01000713          	li	a4,16
   187b4:	ff0006b7          	lui	a3,0xff000
   187b8:	00d7f6b3          	and	a3,a5,a3
   187bc:	00069663          	bnez	a3,187c8 <__hi0bits+0x30>
   187c0:	00870713          	addi	a4,a4,8
   187c4:	00879793          	slli	a5,a5,0x8
   187c8:	f00006b7          	lui	a3,0xf0000
   187cc:	00d7f6b3          	and	a3,a5,a3
   187d0:	00069663          	bnez	a3,187dc <__hi0bits+0x44>
   187d4:	00470713          	addi	a4,a4,4
   187d8:	00479793          	slli	a5,a5,0x4
   187dc:	c00006b7          	lui	a3,0xc0000
   187e0:	00d7f6b3          	and	a3,a5,a3
   187e4:	00069663          	bnez	a3,187f0 <__hi0bits+0x58>
   187e8:	00270713          	addi	a4,a4,2
   187ec:	00279793          	slli	a5,a5,0x2
   187f0:	0007ce63          	bltz	a5,1880c <__hi0bits+0x74>
   187f4:	00179693          	slli	a3,a5,0x1
   187f8:	02000513          	li	a0,32
   187fc:	0006c463          	bltz	a3,18804 <__hi0bits+0x6c>
   18800:	00008067          	ret
   18804:	00170513          	addi	a0,a4,1
   18808:	00008067          	ret
   1880c:	00070513          	mv	a0,a4
   18810:	00008067          	ret

00018814 <__lo0bits>:
   18814:	00052783          	lw	a5,0(a0)
   18818:	00050693          	mv	a3,a0
   1881c:	0077f713          	andi	a4,a5,7
   18820:	02070463          	beqz	a4,18848 <__lo0bits+0x34>
   18824:	0017f713          	andi	a4,a5,1
   18828:	00000513          	li	a0,0
   1882c:	08071263          	bnez	a4,188b0 <__lo0bits+0x9c>
   18830:	0027f713          	andi	a4,a5,2
   18834:	08071063          	bnez	a4,188b4 <__lo0bits+0xa0>
   18838:	0027d793          	srli	a5,a5,0x2
   1883c:	00f6a023          	sw	a5,0(a3) # c0000000 <_end+0xbffdf890>
   18840:	00200513          	li	a0,2
   18844:	00008067          	ret
   18848:	01079613          	slli	a2,a5,0x10
   1884c:	01065613          	srli	a2,a2,0x10
   18850:	00000713          	li	a4,0
   18854:	00061663          	bnez	a2,18860 <__lo0bits+0x4c>
   18858:	0107d793          	srli	a5,a5,0x10
   1885c:	01000713          	li	a4,16
   18860:	0ff7f613          	andi	a2,a5,255
   18864:	00061663          	bnez	a2,18870 <__lo0bits+0x5c>
   18868:	00870713          	addi	a4,a4,8
   1886c:	0087d793          	srli	a5,a5,0x8
   18870:	00f7f613          	andi	a2,a5,15
   18874:	00061663          	bnez	a2,18880 <__lo0bits+0x6c>
   18878:	00470713          	addi	a4,a4,4
   1887c:	0047d793          	srli	a5,a5,0x4
   18880:	0037f613          	andi	a2,a5,3
   18884:	00061663          	bnez	a2,18890 <__lo0bits+0x7c>
   18888:	00270713          	addi	a4,a4,2
   1888c:	0027d793          	srli	a5,a5,0x2
   18890:	0017f613          	andi	a2,a5,1
   18894:	00061a63          	bnez	a2,188a8 <__lo0bits+0x94>
   18898:	0017d793          	srli	a5,a5,0x1
   1889c:	02000513          	li	a0,32
   188a0:	00078863          	beqz	a5,188b0 <__lo0bits+0x9c>
   188a4:	00170713          	addi	a4,a4,1
   188a8:	00f6a023          	sw	a5,0(a3)
   188ac:	00070513          	mv	a0,a4
   188b0:	00008067          	ret
   188b4:	0017d793          	srli	a5,a5,0x1
   188b8:	00f6a023          	sw	a5,0(a3)
   188bc:	00100513          	li	a0,1
   188c0:	00008067          	ret

000188c4 <__i2b>:
   188c4:	ff010113          	addi	sp,sp,-16
   188c8:	00812423          	sw	s0,8(sp)
   188cc:	00058413          	mv	s0,a1
   188d0:	00100593          	li	a1,1
   188d4:	00112623          	sw	ra,12(sp)
   188d8:	be5ff0ef          	jal	184bc <_Balloc>
   188dc:	00c12083          	lw	ra,12(sp)
   188e0:	00100713          	li	a4,1
   188e4:	00852a23          	sw	s0,20(a0)
   188e8:	00e52823          	sw	a4,16(a0)
   188ec:	00812403          	lw	s0,8(sp)
   188f0:	01010113          	addi	sp,sp,16
   188f4:	00008067          	ret

000188f8 <__multiply>:
   188f8:	fe010113          	addi	sp,sp,-32
   188fc:	01312623          	sw	s3,12(sp)
   18900:	01412423          	sw	s4,8(sp)
   18904:	0105a983          	lw	s3,16(a1)
   18908:	01062a03          	lw	s4,16(a2)
   1890c:	00912a23          	sw	s1,20(sp)
   18910:	01212823          	sw	s2,16(sp)
   18914:	00112e23          	sw	ra,28(sp)
   18918:	00812c23          	sw	s0,24(sp)
   1891c:	00058913          	mv	s2,a1
   18920:	00060493          	mv	s1,a2
   18924:	0149dc63          	ble	s4,s3,1893c <__multiply+0x44>
   18928:	00098713          	mv	a4,s3
   1892c:	00060913          	mv	s2,a2
   18930:	000a0993          	mv	s3,s4
   18934:	00058493          	mv	s1,a1
   18938:	00070a13          	mv	s4,a4
   1893c:	00892783          	lw	a5,8(s2)
   18940:	00492583          	lw	a1,4(s2)
   18944:	01498433          	add	s0,s3,s4
   18948:	0087a7b3          	slt	a5,a5,s0
   1894c:	00f585b3          	add	a1,a1,a5
   18950:	b6dff0ef          	jal	184bc <_Balloc>
   18954:	01450293          	addi	t0,a0,20
   18958:	00241893          	slli	a7,s0,0x2
   1895c:	011288b3          	add	a7,t0,a7
   18960:	00028793          	mv	a5,t0
   18964:	0112f863          	bleu	a7,t0,18974 <__multiply+0x7c>
   18968:	0007a023          	sw	zero,0(a5)
   1896c:	00478793          	addi	a5,a5,4
   18970:	ff17ece3          	bltu	a5,a7,18968 <__multiply+0x70>
   18974:	01448613          	addi	a2,s1,20
   18978:	002a1313          	slli	t1,s4,0x2
   1897c:	01490393          	addi	t2,s2,20
   18980:	00299813          	slli	a6,s3,0x2
   18984:	000105b7          	lui	a1,0x10
   18988:	00660333          	add	t1,a2,t1
   1898c:	01038833          	add	a6,t2,a6
   18990:	fff58593          	addi	a1,a1,-1 # ffff <_ftext-0x1>
   18994:	10667463          	bleu	t1,a2,18a9c <__multiply+0x1a4>
   18998:	00062f83          	lw	t6,0(a2)
   1899c:	00bff933          	and	s2,t6,a1
   189a0:	06090a63          	beqz	s2,18a14 <__multiply+0x11c>
   189a4:	00028f93          	mv	t6,t0
   189a8:	00038f13          	mv	t5,t2
   189ac:	00000693          	li	a3,0
   189b0:	0080006f          	j	189b8 <__multiply+0xc0>
   189b4:	00048f93          	mv	t6,s1
   189b8:	000f2e03          	lw	t3,0(t5)
   189bc:	000fae83          	lw	t4,0(t6)
   189c0:	004f8493          	addi	s1,t6,4
   189c4:	00be7733          	and	a4,t3,a1
   189c8:	03270733          	mul	a4,a4,s2
   189cc:	010e5e13          	srli	t3,t3,0x10
   189d0:	00bef7b3          	and	a5,t4,a1
   189d4:	010ede93          	srli	t4,t4,0x10
   189d8:	004f0f13          	addi	t5,t5,4
   189dc:	032e0e33          	mul	t3,t3,s2
   189e0:	00f70733          	add	a4,a4,a5
   189e4:	00d707b3          	add	a5,a4,a3
   189e8:	0107d693          	srli	a3,a5,0x10
   189ec:	00b7f7b3          	and	a5,a5,a1
   189f0:	01de0e33          	add	t3,t3,t4
   189f4:	00de06b3          	add	a3,t3,a3
   189f8:	01069713          	slli	a4,a3,0x10
   189fc:	00f76733          	or	a4,a4,a5
   18a00:	0106d693          	srli	a3,a3,0x10
   18a04:	fee4ae23          	sw	a4,-4(s1)
   18a08:	fb0f66e3          	bltu	t5,a6,189b4 <__multiply+0xbc>
   18a0c:	00dfa223          	sw	a3,4(t6)
   18a10:	00062f83          	lw	t6,0(a2)
   18a14:	010fdf93          	srli	t6,t6,0x10
   18a18:	060f8c63          	beqz	t6,18a90 <__multiply+0x198>
   18a1c:	0002a783          	lw	a5,0(t0) # 1848c <memset+0xb4>
   18a20:	00028f13          	mv	t5,t0
   18a24:	00038e93          	mv	t4,t2
   18a28:	00078e13          	mv	t3,a5
   18a2c:	00000913          	li	s2,0
   18a30:	0080006f          	j	18a38 <__multiply+0x140>
   18a34:	00048f13          	mv	t5,s1
   18a38:	000ea703          	lw	a4,0(t4) # 80000000 <_end+0x7ffdf890>
   18a3c:	010e5693          	srli	a3,t3,0x10
   18a40:	00b7f7b3          	and	a5,a5,a1
   18a44:	00b77733          	and	a4,a4,a1
   18a48:	03f70733          	mul	a4,a4,t6
   18a4c:	004f0493          	addi	s1,t5,4
   18a50:	004e8e93          	addi	t4,t4,4
   18a54:	00d706b3          	add	a3,a4,a3
   18a58:	012686b3          	add	a3,a3,s2
   18a5c:	01069713          	slli	a4,a3,0x10
   18a60:	00f767b3          	or	a5,a4,a5
   18a64:	fef4ae23          	sw	a5,-4(s1)
   18a68:	ffeed703          	lhu	a4,-2(t4)
   18a6c:	004f2e03          	lw	t3,4(t5)
   18a70:	0106d693          	srli	a3,a3,0x10
   18a74:	03f70733          	mul	a4,a4,t6
   18a78:	00be77b3          	and	a5,t3,a1
   18a7c:	00f707b3          	add	a5,a4,a5
   18a80:	00d787b3          	add	a5,a5,a3
   18a84:	0107d913          	srli	s2,a5,0x10
   18a88:	fb0ee6e3          	bltu	t4,a6,18a34 <__multiply+0x13c>
   18a8c:	00ff2223          	sw	a5,4(t5)
   18a90:	00460613          	addi	a2,a2,4
   18a94:	00428293          	addi	t0,t0,4
   18a98:	f06660e3          	bltu	a2,t1,18998 <__multiply+0xa0>
   18a9c:	02805463          	blez	s0,18ac4 <__multiply+0x1cc>
   18aa0:	ffc8a783          	lw	a5,-4(a7)
   18aa4:	ffc88893          	addi	a7,a7,-4
   18aa8:	00078863          	beqz	a5,18ab8 <__multiply+0x1c0>
   18aac:	0180006f          	j	18ac4 <__multiply+0x1cc>
   18ab0:	0008a783          	lw	a5,0(a7)
   18ab4:	00079863          	bnez	a5,18ac4 <__multiply+0x1cc>
   18ab8:	fff40413          	addi	s0,s0,-1
   18abc:	ffc88893          	addi	a7,a7,-4
   18ac0:	fe0418e3          	bnez	s0,18ab0 <__multiply+0x1b8>
   18ac4:	01c12083          	lw	ra,28(sp)
   18ac8:	00852823          	sw	s0,16(a0)
   18acc:	01412483          	lw	s1,20(sp)
   18ad0:	01812403          	lw	s0,24(sp)
   18ad4:	01012903          	lw	s2,16(sp)
   18ad8:	00c12983          	lw	s3,12(sp)
   18adc:	00812a03          	lw	s4,8(sp)
   18ae0:	02010113          	addi	sp,sp,32
   18ae4:	00008067          	ret

00018ae8 <__pow5mult>:
   18ae8:	fe010113          	addi	sp,sp,-32
   18aec:	00367793          	andi	a5,a2,3
   18af0:	00812c23          	sw	s0,24(sp)
   18af4:	01212823          	sw	s2,16(sp)
   18af8:	01312623          	sw	s3,12(sp)
   18afc:	00112e23          	sw	ra,28(sp)
   18b00:	00912a23          	sw	s1,20(sp)
   18b04:	00060413          	mv	s0,a2
   18b08:	00050993          	mv	s3,a0
   18b0c:	00058913          	mv	s2,a1
   18b10:	0a079e63          	bnez	a5,18bcc <__pow5mult+0xe4>
   18b14:	40245413          	srai	s0,s0,0x2
   18b18:	06040663          	beqz	s0,18b84 <__pow5mult+0x9c>
   18b1c:	0489a483          	lw	s1,72(s3)
   18b20:	0c048a63          	beqz	s1,18bf4 <__pow5mult+0x10c>
   18b24:	00147793          	andi	a5,s0,1
   18b28:	02079063          	bnez	a5,18b48 <__pow5mult+0x60>
   18b2c:	40145413          	srai	s0,s0,0x1
   18b30:	04040a63          	beqz	s0,18b84 <__pow5mult+0x9c>
   18b34:	0004a503          	lw	a0,0(s1)
   18b38:	06050663          	beqz	a0,18ba4 <__pow5mult+0xbc>
   18b3c:	00050493          	mv	s1,a0
   18b40:	00147793          	andi	a5,s0,1
   18b44:	fe0784e3          	beqz	a5,18b2c <__pow5mult+0x44>
   18b48:	00048613          	mv	a2,s1
   18b4c:	00090593          	mv	a1,s2
   18b50:	00098513          	mv	a0,s3
   18b54:	da5ff0ef          	jal	188f8 <__multiply>
   18b58:	06090663          	beqz	s2,18bc4 <__pow5mult+0xdc>
   18b5c:	00492783          	lw	a5,4(s2)
   18b60:	04c9a703          	lw	a4,76(s3)
   18b64:	40145413          	srai	s0,s0,0x1
   18b68:	00279793          	slli	a5,a5,0x2
   18b6c:	00f707b3          	add	a5,a4,a5
   18b70:	0007a703          	lw	a4,0(a5)
   18b74:	00e92023          	sw	a4,0(s2)
   18b78:	0127a023          	sw	s2,0(a5)
   18b7c:	00050913          	mv	s2,a0
   18b80:	fa041ae3          	bnez	s0,18b34 <__pow5mult+0x4c>
   18b84:	01c12083          	lw	ra,28(sp)
   18b88:	00090513          	mv	a0,s2
   18b8c:	01812403          	lw	s0,24(sp)
   18b90:	01412483          	lw	s1,20(sp)
   18b94:	01012903          	lw	s2,16(sp)
   18b98:	00c12983          	lw	s3,12(sp)
   18b9c:	02010113          	addi	sp,sp,32
   18ba0:	00008067          	ret
   18ba4:	00048613          	mv	a2,s1
   18ba8:	00048593          	mv	a1,s1
   18bac:	00098513          	mv	a0,s3
   18bb0:	d49ff0ef          	jal	188f8 <__multiply>
   18bb4:	00a4a023          	sw	a0,0(s1)
   18bb8:	00052023          	sw	zero,0(a0)
   18bbc:	00050493          	mv	s1,a0
   18bc0:	f81ff06f          	j	18b40 <__pow5mult+0x58>
   18bc4:	00050913          	mv	s2,a0
   18bc8:	f65ff06f          	j	18b2c <__pow5mult+0x44>
   18bcc:	fff78793          	addi	a5,a5,-1
   18bd0:	0001c737          	lui	a4,0x1c
   18bd4:	02070713          	addi	a4,a4,32 # 1c020 <p05.2508>
   18bd8:	00279793          	slli	a5,a5,0x2
   18bdc:	00f707b3          	add	a5,a4,a5
   18be0:	0007a603          	lw	a2,0(a5)
   18be4:	00000693          	li	a3,0
   18be8:	99dff0ef          	jal	18584 <__multadd>
   18bec:	00050913          	mv	s2,a0
   18bf0:	f25ff06f          	j	18b14 <__pow5mult+0x2c>
   18bf4:	00100593          	li	a1,1
   18bf8:	00098513          	mv	a0,s3
   18bfc:	8c1ff0ef          	jal	184bc <_Balloc>
   18c00:	27100793          	li	a5,625
   18c04:	00f52a23          	sw	a5,20(a0)
   18c08:	00100793          	li	a5,1
   18c0c:	00f52823          	sw	a5,16(a0)
   18c10:	00050493          	mv	s1,a0
   18c14:	04a9a423          	sw	a0,72(s3)
   18c18:	00052023          	sw	zero,0(a0)
   18c1c:	f09ff06f          	j	18b24 <__pow5mult+0x3c>

00018c20 <__lshift>:
   18c20:	fe010113          	addi	sp,sp,-32
   18c24:	01412423          	sw	s4,8(sp)
   18c28:	0105aa03          	lw	s4,16(a1)
   18c2c:	00812c23          	sw	s0,24(sp)
   18c30:	0085a783          	lw	a5,8(a1)
   18c34:	40565413          	srai	s0,a2,0x5
   18c38:	01440a33          	add	s4,s0,s4
   18c3c:	00912a23          	sw	s1,20(sp)
   18c40:	001a0493          	addi	s1,s4,1
   18c44:	01212823          	sw	s2,16(sp)
   18c48:	01312623          	sw	s3,12(sp)
   18c4c:	01512223          	sw	s5,4(sp)
   18c50:	00058993          	mv	s3,a1
   18c54:	00112e23          	sw	ra,28(sp)
   18c58:	00060913          	mv	s2,a2
   18c5c:	00050a93          	mv	s5,a0
   18c60:	0045a583          	lw	a1,4(a1)
   18c64:	0097d863          	ble	s1,a5,18c74 <__lshift+0x54>
   18c68:	00179793          	slli	a5,a5,0x1
   18c6c:	00158593          	addi	a1,a1,1
   18c70:	fe97cce3          	blt	a5,s1,18c68 <__lshift+0x48>
   18c74:	000a8513          	mv	a0,s5
   18c78:	845ff0ef          	jal	184bc <_Balloc>
   18c7c:	01450793          	addi	a5,a0,20
   18c80:	0e805463          	blez	s0,18d68 <__lshift+0x148>
   18c84:	00241713          	slli	a4,s0,0x2
   18c88:	00e78733          	add	a4,a5,a4
   18c8c:	00478793          	addi	a5,a5,4
   18c90:	fe07ae23          	sw	zero,-4(a5)
   18c94:	fee79ce3          	bne	a5,a4,18c8c <__lshift+0x6c>
   18c98:	0109a883          	lw	a7,16(s3)
   18c9c:	01498793          	addi	a5,s3,20
   18ca0:	01f97613          	andi	a2,s2,31
   18ca4:	00289893          	slli	a7,a7,0x2
   18ca8:	011788b3          	add	a7,a5,a7
   18cac:	08060863          	beqz	a2,18d3c <__lshift+0x11c>
   18cb0:	02000293          	li	t0,32
   18cb4:	40c282b3          	sub	t0,t0,a2
   18cb8:	00000693          	li	a3,0
   18cbc:	0080006f          	j	18cc4 <__lshift+0xa4>
   18cc0:	00080713          	mv	a4,a6
   18cc4:	0007a583          	lw	a1,0(a5)
   18cc8:	00470813          	addi	a6,a4,4
   18ccc:	00478793          	addi	a5,a5,4
   18cd0:	00c595b3          	sll	a1,a1,a2
   18cd4:	00d5e6b3          	or	a3,a1,a3
   18cd8:	fed82e23          	sw	a3,-4(a6)
   18cdc:	ffc7a683          	lw	a3,-4(a5)
   18ce0:	0056d6b3          	srl	a3,a3,t0
   18ce4:	fd17eee3          	bltu	a5,a7,18cc0 <__lshift+0xa0>
   18ce8:	00d72223          	sw	a3,4(a4)
   18cec:	00068463          	beqz	a3,18cf4 <__lshift+0xd4>
   18cf0:	002a0493          	addi	s1,s4,2
   18cf4:	0049a783          	lw	a5,4(s3)
   18cf8:	04caa703          	lw	a4,76(s5)
   18cfc:	01c12083          	lw	ra,28(sp)
   18d00:	00279793          	slli	a5,a5,0x2
   18d04:	00f707b3          	add	a5,a4,a5
   18d08:	0007a703          	lw	a4,0(a5)
   18d0c:	fff48493          	addi	s1,s1,-1
   18d10:	00952823          	sw	s1,16(a0)
   18d14:	01812403          	lw	s0,24(sp)
   18d18:	00e9a023          	sw	a4,0(s3)
   18d1c:	01412483          	lw	s1,20(sp)
   18d20:	0137a023          	sw	s3,0(a5)
   18d24:	01012903          	lw	s2,16(sp)
   18d28:	00c12983          	lw	s3,12(sp)
   18d2c:	00812a03          	lw	s4,8(sp)
   18d30:	00412a83          	lw	s5,4(sp)
   18d34:	02010113          	addi	sp,sp,32
   18d38:	00008067          	ret
   18d3c:	00478793          	addi	a5,a5,4
   18d40:	ffc7a683          	lw	a3,-4(a5)
   18d44:	00470713          	addi	a4,a4,4
   18d48:	fed72e23          	sw	a3,-4(a4)
   18d4c:	fb17f4e3          	bleu	a7,a5,18cf4 <__lshift+0xd4>
   18d50:	00478793          	addi	a5,a5,4
   18d54:	ffc7a683          	lw	a3,-4(a5)
   18d58:	00470713          	addi	a4,a4,4
   18d5c:	fed72e23          	sw	a3,-4(a4)
   18d60:	fd17eee3          	bltu	a5,a7,18d3c <__lshift+0x11c>
   18d64:	f91ff06f          	j	18cf4 <__lshift+0xd4>
   18d68:	00078713          	mv	a4,a5
   18d6c:	f2dff06f          	j	18c98 <__lshift+0x78>

00018d70 <__mcmp>:
   18d70:	01052703          	lw	a4,16(a0)
   18d74:	0105a783          	lw	a5,16(a1)
   18d78:	40f70733          	sub	a4,a4,a5
   18d7c:	04071263          	bnez	a4,18dc0 <__mcmp+0x50>
   18d80:	00279713          	slli	a4,a5,0x2
   18d84:	01450513          	addi	a0,a0,20
   18d88:	01458593          	addi	a1,a1,20
   18d8c:	00e507b3          	add	a5,a0,a4
   18d90:	00e585b3          	add	a1,a1,a4
   18d94:	0080006f          	j	18d9c <__mcmp+0x2c>
   18d98:	02f57863          	bleu	a5,a0,18dc8 <__mcmp+0x58>
   18d9c:	ffc78793          	addi	a5,a5,-4
   18da0:	ffc58593          	addi	a1,a1,-4
   18da4:	0007a703          	lw	a4,0(a5)
   18da8:	0005a683          	lw	a3,0(a1)
   18dac:	fed706e3          	beq	a4,a3,18d98 <__mcmp+0x28>
   18db0:	00d73733          	sltu	a4,a4,a3
   18db4:	40e00733          	neg	a4,a4
   18db8:	00176513          	ori	a0,a4,1
   18dbc:	00008067          	ret
   18dc0:	00070513          	mv	a0,a4
   18dc4:	00008067          	ret
   18dc8:	00000513          	li	a0,0
   18dcc:	00008067          	ret

00018dd0 <__mdiff>:
   18dd0:	0105a783          	lw	a5,16(a1)
   18dd4:	01062703          	lw	a4,16(a2)
   18dd8:	fd010113          	addi	sp,sp,-48
   18ddc:	03212023          	sw	s2,32(sp)
   18de0:	40e787b3          	sub	a5,a5,a4
   18de4:	02112623          	sw	ra,44(sp)
   18de8:	02812423          	sw	s0,40(sp)
   18dec:	02912223          	sw	s1,36(sp)
   18df0:	01312e23          	sw	s3,28(sp)
   18df4:	00058913          	mv	s2,a1
   18df8:	04079863          	bnez	a5,18e48 <__mdiff+0x78>
   18dfc:	00271713          	slli	a4,a4,0x2
   18e00:	01458813          	addi	a6,a1,20
   18e04:	01460413          	addi	s0,a2,20
   18e08:	00e807b3          	add	a5,a6,a4
   18e0c:	00e40733          	add	a4,s0,a4
   18e10:	0080006f          	j	18e18 <__mdiff+0x48>
   18e14:	16f87463          	bleu	a5,a6,18f7c <__mdiff+0x1ac>
   18e18:	ffc78793          	addi	a5,a5,-4
   18e1c:	ffc70713          	addi	a4,a4,-4
   18e20:	0007a583          	lw	a1,0(a5)
   18e24:	00072683          	lw	a3,0(a4)
   18e28:	fed586e3          	beq	a1,a3,18e14 <__mdiff+0x44>
   18e2c:	16d5f463          	bleu	a3,a1,18f94 <__mdiff+0x1c4>
   18e30:	00090793          	mv	a5,s2
   18e34:	00080493          	mv	s1,a6
   18e38:	00060913          	mv	s2,a2
   18e3c:	00100993          	li	s3,1
   18e40:	00078613          	mv	a2,a5
   18e44:	0140006f          	j	18e58 <__mdiff+0x88>
   18e48:	1407ce63          	bltz	a5,18fa4 <__mdiff+0x1d4>
   18e4c:	01460493          	addi	s1,a2,20
   18e50:	01458413          	addi	s0,a1,20
   18e54:	00000993          	li	s3,0
   18e58:	00492583          	lw	a1,4(s2)
   18e5c:	00c12623          	sw	a2,12(sp)
   18e60:	e5cff0ef          	jal	184bc <_Balloc>
   18e64:	00c12603          	lw	a2,12(sp)
   18e68:	01092303          	lw	t1,16(s2)
   18e6c:	000102b7          	lui	t0,0x10
   18e70:	01062e03          	lw	t3,16(a2)
   18e74:	00231393          	slli	t2,t1,0x2
   18e78:	01352623          	sw	s3,12(a0)
   18e7c:	002e1e13          	slli	t3,t3,0x2
   18e80:	007403b3          	add	t2,s0,t2
   18e84:	01c48e33          	add	t3,s1,t3
   18e88:	01450813          	addi	a6,a0,20
   18e8c:	00000693          	li	a3,0
   18e90:	fff28293          	addi	t0,t0,-1 # ffff <_ftext-0x1>
   18e94:	00042583          	lw	a1,0(s0)
   18e98:	0004a883          	lw	a7,0(s1)
   18e9c:	00480813          	addi	a6,a6,4
   18ea0:	0055f633          	and	a2,a1,t0
   18ea4:	00d606b3          	add	a3,a2,a3
   18ea8:	0058f733          	and	a4,a7,t0
   18eac:	40e68733          	sub	a4,a3,a4
   18eb0:	0105d593          	srli	a1,a1,0x10
   18eb4:	0108d693          	srli	a3,a7,0x10
   18eb8:	40d585b3          	sub	a1,a1,a3
   18ebc:	41075693          	srai	a3,a4,0x10
   18ec0:	00d586b3          	add	a3,a1,a3
   18ec4:	01069793          	slli	a5,a3,0x10
   18ec8:	00577733          	and	a4,a4,t0
   18ecc:	00e7e7b3          	or	a5,a5,a4
   18ed0:	00448493          	addi	s1,s1,4
   18ed4:	00440413          	addi	s0,s0,4
   18ed8:	4106d693          	srai	a3,a3,0x10
   18edc:	fef82e23          	sw	a5,-4(a6)
   18ee0:	fbc4eae3          	bltu	s1,t3,18e94 <__mdiff+0xc4>
   18ee4:	06747063          	bleu	t2,s0,18f44 <__mdiff+0x174>
   18ee8:	00010e37          	lui	t3,0x10
   18eec:	00080293          	mv	t0,a6
   18ef0:	00040893          	mv	a7,s0
   18ef4:	fffe0e13          	addi	t3,t3,-1 # ffff <_ftext-0x1>
   18ef8:	0008a583          	lw	a1,0(a7)
   18efc:	00428293          	addi	t0,t0,4
   18f00:	00488893          	addi	a7,a7,4
   18f04:	01c5f633          	and	a2,a1,t3
   18f08:	00d606b3          	add	a3,a2,a3
   18f0c:	4106d713          	srai	a4,a3,0x10
   18f10:	0105d593          	srli	a1,a1,0x10
   18f14:	00e58733          	add	a4,a1,a4
   18f18:	01c6f6b3          	and	a3,a3,t3
   18f1c:	01071793          	slli	a5,a4,0x10
   18f20:	00d7e7b3          	or	a5,a5,a3
   18f24:	fef2ae23          	sw	a5,-4(t0)
   18f28:	41075693          	srai	a3,a4,0x10
   18f2c:	fc78e6e3          	bltu	a7,t2,18ef8 <__mdiff+0x128>
   18f30:	fff44413          	not	s0,s0
   18f34:	007403b3          	add	t2,s0,t2
   18f38:	ffc3f393          	andi	t2,t2,-4
   18f3c:	00438393          	addi	t2,t2,4
   18f40:	00780833          	add	a6,a6,t2
   18f44:	ffc80813          	addi	a6,a6,-4
   18f48:	00079a63          	bnez	a5,18f5c <__mdiff+0x18c>
   18f4c:	ffc80813          	addi	a6,a6,-4
   18f50:	00082783          	lw	a5,0(a6)
   18f54:	fff30313          	addi	t1,t1,-1
   18f58:	fe078ae3          	beqz	a5,18f4c <__mdiff+0x17c>
   18f5c:	00652823          	sw	t1,16(a0)
   18f60:	02c12083          	lw	ra,44(sp)
   18f64:	02812403          	lw	s0,40(sp)
   18f68:	02412483          	lw	s1,36(sp)
   18f6c:	02012903          	lw	s2,32(sp)
   18f70:	01c12983          	lw	s3,28(sp)
   18f74:	03010113          	addi	sp,sp,48
   18f78:	00008067          	ret
   18f7c:	00000593          	li	a1,0
   18f80:	d3cff0ef          	jal	184bc <_Balloc>
   18f84:	00100793          	li	a5,1
   18f88:	00f52823          	sw	a5,16(a0)
   18f8c:	00052a23          	sw	zero,20(a0)
   18f90:	fd1ff06f          	j	18f60 <__mdiff+0x190>
   18f94:	00040493          	mv	s1,s0
   18f98:	00000993          	li	s3,0
   18f9c:	00080413          	mv	s0,a6
   18fa0:	eb9ff06f          	j	18e58 <__mdiff+0x88>
   18fa4:	00090793          	mv	a5,s2
   18fa8:	01490493          	addi	s1,s2,20
   18fac:	01460413          	addi	s0,a2,20
   18fb0:	00060913          	mv	s2,a2
   18fb4:	00100993          	li	s3,1
   18fb8:	00078613          	mv	a2,a5
   18fbc:	e9dff06f          	j	18e58 <__mdiff+0x88>

00018fc0 <__ulp>:
   18fc0:	ff010113          	addi	sp,sp,-16
   18fc4:	00a13427          	fsd	fa0,8(sp)
   18fc8:	00c12783          	lw	a5,12(sp)
   18fcc:	7ff00737          	lui	a4,0x7ff00
   18fd0:	00e7f7b3          	and	a5,a5,a4
   18fd4:	fcc00737          	lui	a4,0xfcc00
   18fd8:	00e787b3          	add	a5,a5,a4
   18fdc:	02f05063          	blez	a5,18ffc <__ulp+0x3c>
   18fe0:	00000613          	li	a2,0
   18fe4:	00078693          	mv	a3,a5
   18fe8:	00c12023          	sw	a2,0(sp)
   18fec:	00d12223          	sw	a3,4(sp)
   18ff0:	00013507          	fld	fa0,0(sp)
   18ff4:	01010113          	addi	sp,sp,16
   18ff8:	00008067          	ret
   18ffc:	40f007b3          	neg	a5,a5
   19000:	4147d793          	srai	a5,a5,0x14
   19004:	01300713          	li	a4,19
   19008:	02f75c63          	ble	a5,a4,19040 <__ulp+0x80>
   1900c:	fec78793          	addi	a5,a5,-20
   19010:	01e00593          	li	a1,30
   19014:	00000693          	li	a3,0
   19018:	00100713          	li	a4,1
   1901c:	00f5c663          	blt	a1,a5,19028 <__ulp+0x68>
   19020:	fff7c793          	not	a5,a5
   19024:	00f71733          	sll	a4,a4,a5
   19028:	00070613          	mv	a2,a4
   1902c:	00c12023          	sw	a2,0(sp)
   19030:	00d12223          	sw	a3,4(sp)
   19034:	00013507          	fld	fa0,0(sp)
   19038:	01010113          	addi	sp,sp,16
   1903c:	00008067          	ret
   19040:	00080737          	lui	a4,0x80
   19044:	00000613          	li	a2,0
   19048:	40f756b3          	sra	a3,a4,a5
   1904c:	00c12023          	sw	a2,0(sp)
   19050:	00d12223          	sw	a3,4(sp)
   19054:	00013507          	fld	fa0,0(sp)
   19058:	01010113          	addi	sp,sp,16
   1905c:	00008067          	ret

00019060 <__b2d>:
   19060:	fd010113          	addi	sp,sp,-48
   19064:	02812423          	sw	s0,40(sp)
   19068:	01052403          	lw	s0,16(a0)
   1906c:	02912223          	sw	s1,36(sp)
   19070:	01450493          	addi	s1,a0,20
   19074:	00241413          	slli	s0,s0,0x2
   19078:	00848433          	add	s0,s1,s0
   1907c:	03212023          	sw	s2,32(sp)
   19080:	ffc42903          	lw	s2,-4(s0)
   19084:	01312e23          	sw	s3,28(sp)
   19088:	01412c23          	sw	s4,24(sp)
   1908c:	00090513          	mv	a0,s2
   19090:	00058a13          	mv	s4,a1
   19094:	02112623          	sw	ra,44(sp)
   19098:	f00ff0ef          	jal	18798 <__hi0bits>
   1909c:	02000793          	li	a5,32
   190a0:	40a78733          	sub	a4,a5,a0
   190a4:	00ea2023          	sw	a4,0(s4)
   190a8:	00a00713          	li	a4,10
   190ac:	ffc40993          	addi	s3,s0,-4
   190b0:	06a74063          	blt	a4,a0,19110 <__b2d+0xb0>
   190b4:	00b00693          	li	a3,11
   190b8:	40a686b3          	sub	a3,a3,a0
   190bc:	3ff00637          	lui	a2,0x3ff00
   190c0:	00d955b3          	srl	a1,s2,a3
   190c4:	00c5e7b3          	or	a5,a1,a2
   190c8:	00000613          	li	a2,0
   190cc:	0134f663          	bleu	s3,s1,190d8 <__b2d+0x78>
   190d0:	ff842603          	lw	a2,-8(s0)
   190d4:	00d65633          	srl	a2,a2,a3
   190d8:	01550513          	addi	a0,a0,21
   190dc:	00a91533          	sll	a0,s2,a0
   190e0:	00c56733          	or	a4,a0,a2
   190e4:	02c12083          	lw	ra,44(sp)
   190e8:	00e12423          	sw	a4,8(sp)
   190ec:	00f12623          	sw	a5,12(sp)
   190f0:	00813507          	fld	fa0,8(sp)
   190f4:	02812403          	lw	s0,40(sp)
   190f8:	02412483          	lw	s1,36(sp)
   190fc:	02012903          	lw	s2,32(sp)
   19100:	01c12983          	lw	s3,28(sp)
   19104:	01812a03          	lw	s4,24(sp)
   19108:	03010113          	addi	sp,sp,48
   1910c:	00008067          	ret
   19110:	ff550513          	addi	a0,a0,-11
   19114:	0534f263          	bleu	s3,s1,19158 <__b2d+0xf8>
   19118:	ff842603          	lw	a2,-8(s0)
   1911c:	04050263          	beqz	a0,19160 <__b2d+0x100>
   19120:	40a786b3          	sub	a3,a5,a0
   19124:	00a91933          	sll	s2,s2,a0
   19128:	3ff007b7          	lui	a5,0x3ff00
   1912c:	00f96933          	or	s2,s2,a5
   19130:	00d65833          	srl	a6,a2,a3
   19134:	ff840593          	addi	a1,s0,-8
   19138:	010967b3          	or	a5,s2,a6
   1913c:	04b4f663          	bleu	a1,s1,19188 <__b2d+0x128>
   19140:	ff442583          	lw	a1,-12(s0)
   19144:	00a61533          	sll	a0,a2,a0
   19148:	00d5d633          	srl	a2,a1,a3
   1914c:	00a66533          	or	a0,a2,a0
   19150:	00050713          	mv	a4,a0
   19154:	f91ff06f          	j	190e4 <__b2d+0x84>
   19158:	00000613          	li	a2,0
   1915c:	00051a63          	bnez	a0,19170 <__b2d+0x110>
   19160:	3ff006b7          	lui	a3,0x3ff00
   19164:	00d967b3          	or	a5,s2,a3
   19168:	00060713          	mv	a4,a2
   1916c:	f79ff06f          	j	190e4 <__b2d+0x84>
   19170:	00a91533          	sll	a0,s2,a0
   19174:	3ff006b7          	lui	a3,0x3ff00
   19178:	00d567b3          	or	a5,a0,a3
   1917c:	00000513          	li	a0,0
   19180:	00050713          	mv	a4,a0
   19184:	f61ff06f          	j	190e4 <__b2d+0x84>
   19188:	00a61533          	sll	a0,a2,a0
   1918c:	00050713          	mv	a4,a0
   19190:	f55ff06f          	j	190e4 <__b2d+0x84>

00019194 <__d2b>:
   19194:	fc010113          	addi	sp,sp,-64
   19198:	00c13427          	fsd	fa2,8(sp)
   1919c:	03412423          	sw	s4,40(sp)
   191a0:	00c12a03          	lw	s4,12(sp)
   191a4:	00100593          	li	a1,1
   191a8:	02812c23          	sw	s0,56(sp)
   191ac:	02912a23          	sw	s1,52(sp)
   191b0:	03212823          	sw	s2,48(sp)
   191b4:	03312623          	sw	s3,44(sp)
   191b8:	03512223          	sw	s5,36(sp)
   191bc:	00078993          	mv	s3,a5
   191c0:	00070a93          	mv	s5,a4
   191c4:	001a1493          	slli	s1,s4,0x1
   191c8:	02112e23          	sw	ra,60(sp)
   191cc:	00812403          	lw	s0,8(sp)
   191d0:	aecff0ef          	jal	184bc <_Balloc>
   191d4:	00100737          	lui	a4,0x100
   191d8:	fff70793          	addi	a5,a4,-1 # fffff <_end+0xdf88f>
   191dc:	0154d493          	srli	s1,s1,0x15
   191e0:	00050913          	mv	s2,a0
   191e4:	00fa7a33          	and	s4,s4,a5
   191e8:	00048463          	beqz	s1,191f0 <__d2b+0x5c>
   191ec:	00ea6a33          	or	s4,s4,a4
   191f0:	01412e23          	sw	s4,28(sp)
   191f4:	08040463          	beqz	s0,1927c <__d2b+0xe8>
   191f8:	01810513          	addi	a0,sp,24
   191fc:	00812c23          	sw	s0,24(sp)
   19200:	e14ff0ef          	jal	18814 <__lo0bits>
   19204:	00050793          	mv	a5,a0
   19208:	01c12703          	lw	a4,28(sp)
   1920c:	0a051663          	bnez	a0,192b8 <__d2b+0x124>
   19210:	01812683          	lw	a3,24(sp)
   19214:	00d92a23          	sw	a3,20(s2)
   19218:	00173413          	seqz	s0,a4
   1921c:	00200693          	li	a3,2
   19220:	40868433          	sub	s0,a3,s0
   19224:	00e92c23          	sw	a4,24(s2)
   19228:	00892823          	sw	s0,16(s2)
   1922c:	06049863          	bnez	s1,1929c <__d2b+0x108>
   19230:	00241713          	slli	a4,s0,0x2
   19234:	00e90733          	add	a4,s2,a4
   19238:	01072503          	lw	a0,16(a4)
   1923c:	bce78793          	addi	a5,a5,-1074 # 3feffbce <_end+0x3fedf45e>
   19240:	00faa023          	sw	a5,0(s5)
   19244:	d54ff0ef          	jal	18798 <__hi0bits>
   19248:	00541413          	slli	s0,s0,0x5
   1924c:	40a40533          	sub	a0,s0,a0
   19250:	00a9a023          	sw	a0,0(s3)
   19254:	03c12083          	lw	ra,60(sp)
   19258:	00090513          	mv	a0,s2
   1925c:	03812403          	lw	s0,56(sp)
   19260:	03412483          	lw	s1,52(sp)
   19264:	03012903          	lw	s2,48(sp)
   19268:	02c12983          	lw	s3,44(sp)
   1926c:	02812a03          	lw	s4,40(sp)
   19270:	02412a83          	lw	s5,36(sp)
   19274:	04010113          	addi	sp,sp,64
   19278:	00008067          	ret
   1927c:	01c10513          	addi	a0,sp,28
   19280:	d94ff0ef          	jal	18814 <__lo0bits>
   19284:	01c12783          	lw	a5,28(sp)
   19288:	00100413          	li	s0,1
   1928c:	00892823          	sw	s0,16(s2)
   19290:	00f92a23          	sw	a5,20(s2)
   19294:	02050793          	addi	a5,a0,32
   19298:	f8048ce3          	beqz	s1,19230 <__d2b+0x9c>
   1929c:	bcd48493          	addi	s1,s1,-1075
   192a0:	03500713          	li	a4,53
   192a4:	00f484b3          	add	s1,s1,a5
   192a8:	40f707b3          	sub	a5,a4,a5
   192ac:	009aa023          	sw	s1,0(s5)
   192b0:	00f9a023          	sw	a5,0(s3)
   192b4:	fa1ff06f          	j	19254 <__d2b+0xc0>
   192b8:	02000693          	li	a3,32
   192bc:	01812603          	lw	a2,24(sp)
   192c0:	40a686b3          	sub	a3,a3,a0
   192c4:	00d716b3          	sll	a3,a4,a3
   192c8:	00c6e6b3          	or	a3,a3,a2
   192cc:	00a75733          	srl	a4,a4,a0
   192d0:	00d92a23          	sw	a3,20(s2)
   192d4:	00e12e23          	sw	a4,28(sp)
   192d8:	f41ff06f          	j	19218 <__d2b+0x84>

000192dc <__ratio>:
   192dc:	fd010113          	addi	sp,sp,-48
   192e0:	02812423          	sw	s0,40(sp)
   192e4:	00058413          	mv	s0,a1
   192e8:	01810593          	addi	a1,sp,24
   192ec:	02112623          	sw	ra,44(sp)
   192f0:	02912223          	sw	s1,36(sp)
   192f4:	00050493          	mv	s1,a0
   192f8:	d69ff0ef          	jal	19060 <__b2d>
   192fc:	01c10593          	addi	a1,sp,28
   19300:	00040513          	mv	a0,s0
   19304:	00a13027          	fsd	fa0,0(sp)
   19308:	d59ff0ef          	jal	19060 <__b2d>
   1930c:	01042703          	lw	a4,16(s0)
   19310:	0104a783          	lw	a5,16(s1)
   19314:	01c12683          	lw	a3,28(sp)
   19318:	00a13427          	fsd	fa0,8(sp)
   1931c:	40e787b3          	sub	a5,a5,a4
   19320:	00579713          	slli	a4,a5,0x5
   19324:	01812783          	lw	a5,24(sp)
   19328:	00012603          	lw	a2,0(sp)
   1932c:	00812503          	lw	a0,8(sp)
   19330:	40d787b3          	sub	a5,a5,a3
   19334:	00f707b3          	add	a5,a4,a5
   19338:	00412683          	lw	a3,4(sp)
   1933c:	00c12583          	lw	a1,12(sp)
   19340:	02f05a63          	blez	a5,19374 <__ratio+0x98>
   19344:	01479793          	slli	a5,a5,0x14
   19348:	00d786b3          	add	a3,a5,a3
   1934c:	00c12023          	sw	a2,0(sp)
   19350:	00d12223          	sw	a3,4(sp)
   19354:	00813607          	fld	fa2,8(sp)
   19358:	00013507          	fld	fa0,0(sp)
   1935c:	c00f90ef          	jal	1275c <__divdf3>
   19360:	02c12083          	lw	ra,44(sp)
   19364:	02812403          	lw	s0,40(sp)
   19368:	02412483          	lw	s1,36(sp)
   1936c:	03010113          	addi	sp,sp,48
   19370:	00008067          	ret
   19374:	01479793          	slli	a5,a5,0x14
   19378:	40f585b3          	sub	a1,a1,a5
   1937c:	00a12423          	sw	a0,8(sp)
   19380:	00b12623          	sw	a1,12(sp)
   19384:	fd1ff06f          	j	19354 <__ratio+0x78>

00019388 <_mprec_log10>:
   19388:	01700793          	li	a5,23
   1938c:	00a7de63          	ble	a0,a5,193a8 <_mprec_log10+0x20>
   19390:	8481b507          	fld	fa0,-1976(gp) # 1deb8 <__wctomb+0x30>
   19394:	8501b007          	fld	ft0,-1968(gp) # 1dec0 <__wctomb+0x38>
   19398:	fff50513          	addi	a0,a0,-1
   1939c:	12057553          	fmul.d	fa0,fa0,ft0
   193a0:	fe051ce3          	bnez	a0,19398 <_mprec_log10+0x10>
   193a4:	00008067          	ret
   193a8:	0001c7b7          	lui	a5,0x1c
   193ac:	02078793          	addi	a5,a5,32 # 1c020 <p05.2508>
   193b0:	00351513          	slli	a0,a0,0x3
   193b4:	00a78533          	add	a0,a5,a0
   193b8:	01053507          	fld	fa0,16(a0)
   193bc:	00008067          	ret

000193c0 <__copybits>:
   193c0:	01062683          	lw	a3,16(a2) # 3ff00010 <_end+0x3fedf8a0>
   193c4:	fff58593          	addi	a1,a1,-1
   193c8:	4055d813          	srai	a6,a1,0x5
   193cc:	00180813          	addi	a6,a6,1
   193d0:	01460793          	addi	a5,a2,20
   193d4:	00269693          	slli	a3,a3,0x2
   193d8:	00281813          	slli	a6,a6,0x2
   193dc:	00d786b3          	add	a3,a5,a3
   193e0:	01050833          	add	a6,a0,a6
   193e4:	02d7f863          	bleu	a3,a5,19414 <__copybits+0x54>
   193e8:	00050713          	mv	a4,a0
   193ec:	00478793          	addi	a5,a5,4
   193f0:	ffc7a583          	lw	a1,-4(a5)
   193f4:	00470713          	addi	a4,a4,4
   193f8:	feb72e23          	sw	a1,-4(a4)
   193fc:	fed7e8e3          	bltu	a5,a3,193ec <__copybits+0x2c>
   19400:	40c687b3          	sub	a5,a3,a2
   19404:	feb78793          	addi	a5,a5,-21
   19408:	ffc7f793          	andi	a5,a5,-4
   1940c:	00478793          	addi	a5,a5,4
   19410:	00f50533          	add	a0,a0,a5
   19414:	01057863          	bleu	a6,a0,19424 <__copybits+0x64>
   19418:	00450513          	addi	a0,a0,4
   1941c:	fe052e23          	sw	zero,-4(a0)
   19420:	ff056ce3          	bltu	a0,a6,19418 <__copybits+0x58>
   19424:	00008067          	ret

00019428 <__any_on>:
   19428:	01052783          	lw	a5,16(a0)
   1942c:	4055d713          	srai	a4,a1,0x5
   19430:	01450693          	addi	a3,a0,20
   19434:	02e7da63          	ble	a4,a5,19468 <__any_on+0x40>
   19438:	00279793          	slli	a5,a5,0x2
   1943c:	00f687b3          	add	a5,a3,a5
   19440:	06f6f263          	bleu	a5,a3,194a4 <__any_on+0x7c>
   19444:	ffc7a503          	lw	a0,-4(a5)
   19448:	ffc78793          	addi	a5,a5,-4
   1944c:	00051a63          	bnez	a0,19460 <__any_on+0x38>
   19450:	04f6f863          	bleu	a5,a3,194a0 <__any_on+0x78>
   19454:	ffc78793          	addi	a5,a5,-4
   19458:	0007a703          	lw	a4,0(a5)
   1945c:	fe070ae3          	beqz	a4,19450 <__any_on+0x28>
   19460:	00100513          	li	a0,1
   19464:	00008067          	ret
   19468:	02f75663          	ble	a5,a4,19494 <__any_on+0x6c>
   1946c:	00271793          	slli	a5,a4,0x2
   19470:	01f5f593          	andi	a1,a1,31
   19474:	00f687b3          	add	a5,a3,a5
   19478:	fc0584e3          	beqz	a1,19440 <__any_on+0x18>
   1947c:	0007a603          	lw	a2,0(a5)
   19480:	00100513          	li	a0,1
   19484:	00b65733          	srl	a4,a2,a1
   19488:	00b715b3          	sll	a1,a4,a1
   1948c:	fab60ae3          	beq	a2,a1,19440 <__any_on+0x18>
   19490:	00008067          	ret
   19494:	00271793          	slli	a5,a4,0x2
   19498:	00f687b3          	add	a5,a3,a5
   1949c:	fa5ff06f          	j	19440 <__any_on+0x18>
   194a0:	00008067          	ret
   194a4:	00000513          	li	a0,0
   194a8:	00008067          	ret

000194ac <_realloc_r>:
   194ac:	fd010113          	addi	sp,sp,-48
   194b0:	01312e23          	sw	s3,28(sp)
   194b4:	02112623          	sw	ra,44(sp)
   194b8:	02812423          	sw	s0,40(sp)
   194bc:	02912223          	sw	s1,36(sp)
   194c0:	03212023          	sw	s2,32(sp)
   194c4:	01412c23          	sw	s4,24(sp)
   194c8:	01512a23          	sw	s5,20(sp)
   194cc:	01612823          	sw	s6,16(sp)
   194d0:	01712623          	sw	s7,12(sp)
   194d4:	01812423          	sw	s8,8(sp)
   194d8:	01912223          	sw	s9,4(sp)
   194dc:	00060993          	mv	s3,a2
   194e0:	1c058863          	beqz	a1,196b0 <_realloc_r+0x204>
   194e4:	00058a13          	mv	s4,a1
   194e8:	00050493          	mv	s1,a0
   194ec:	fc9fe0ef          	jal	184b4 <__malloc_lock>
   194f0:	ffca2783          	lw	a5,-4(s4)
   194f4:	00b98713          	addi	a4,s3,11
   194f8:	01600693          	li	a3,22
   194fc:	ff8a0b13          	addi	s6,s4,-8
   19500:	ffc7fa93          	andi	s5,a5,-4
   19504:	0ce6f263          	bleu	a4,a3,195c8 <_realloc_r+0x11c>
   19508:	ff877913          	andi	s2,a4,-8
   1950c:	00090713          	mv	a4,s2
   19510:	14094c63          	bltz	s2,19668 <_realloc_r+0x1bc>
   19514:	15396a63          	bltu	s2,s3,19668 <_realloc_r+0x1bc>
   19518:	0aeade63          	ble	a4,s5,195d4 <_realloc_r+0x128>
   1951c:	0001ec37          	lui	s8,0x1e
   19520:	a68c0c13          	addi	s8,s8,-1432 # 1da68 <__malloc_av_>
   19524:	008c2683          	lw	a3,8(s8)
   19528:	015b0533          	add	a0,s6,s5
   1952c:	30d50263          	beq	a0,a3,19830 <_realloc_r+0x384>
   19530:	00452683          	lw	a3,4(a0)
   19534:	ffe6f613          	andi	a2,a3,-2
   19538:	00c50633          	add	a2,a0,a2
   1953c:	00462603          	lw	a2,4(a2)
   19540:	00167613          	andi	a2,a2,1
   19544:	0e060e63          	beqz	a2,19640 <_realloc_r+0x194>
   19548:	0017f793          	andi	a5,a5,1
   1954c:	26078463          	beqz	a5,197b4 <_realloc_r+0x308>
   19550:	00098593          	mv	a1,s3
   19554:	00048513          	mv	a0,s1
   19558:	d4cfe0ef          	jal	17aa4 <_malloc_r>
   1955c:	00050413          	mv	s0,a0
   19560:	4a050463          	beqz	a0,19a08 <_realloc_r+0x55c>
   19564:	ffca2783          	lw	a5,-4(s4)
   19568:	ff850693          	addi	a3,a0,-8
   1956c:	ffe7f713          	andi	a4,a5,-2
   19570:	00eb0733          	add	a4,s6,a4
   19574:	42e68463          	beq	a3,a4,1999c <_realloc_r+0x4f0>
   19578:	ffca8613          	addi	a2,s5,-4
   1957c:	02400793          	li	a5,36
   19580:	3cc7ea63          	bltu	a5,a2,19954 <_realloc_r+0x4a8>
   19584:	01300713          	li	a4,19
   19588:	36c76a63          	bltu	a4,a2,198fc <_realloc_r+0x450>
   1958c:	00050793          	mv	a5,a0
   19590:	000a0713          	mv	a4,s4
   19594:	00072683          	lw	a3,0(a4)
   19598:	00d7a023          	sw	a3,0(a5)
   1959c:	00472683          	lw	a3,4(a4)
   195a0:	00d7a223          	sw	a3,4(a5)
   195a4:	00872703          	lw	a4,8(a4)
   195a8:	00e7a423          	sw	a4,8(a5)
   195ac:	000a0593          	mv	a1,s4
   195b0:	00048513          	mv	a0,s1
   195b4:	9d1fd0ef          	jal	16f84 <_free_r>
   195b8:	00048513          	mv	a0,s1
   195bc:	efdfe0ef          	jal	184b8 <__malloc_unlock>
   195c0:	00040513          	mv	a0,s0
   195c4:	0480006f          	j	1960c <_realloc_r+0x160>
   195c8:	01000713          	li	a4,16
   195cc:	00070913          	mv	s2,a4
   195d0:	f45ff06f          	j	19514 <_realloc_r+0x68>
   195d4:	000a0993          	mv	s3,s4
   195d8:	412a86b3          	sub	a3,s5,s2
   195dc:	00f00713          	li	a4,15
   195e0:	08d76c63          	bltu	a4,a3,19678 <_realloc_r+0x1cc>
   195e4:	0017f793          	andi	a5,a5,1
   195e8:	0157e7b3          	or	a5,a5,s5
   195ec:	00fb2223          	sw	a5,4(s6)
   195f0:	015b0633          	add	a2,s6,s5
   195f4:	00462783          	lw	a5,4(a2)
   195f8:	0017e793          	ori	a5,a5,1
   195fc:	00f62223          	sw	a5,4(a2)
   19600:	00048513          	mv	a0,s1
   19604:	eb5fe0ef          	jal	184b8 <__malloc_unlock>
   19608:	00098513          	mv	a0,s3
   1960c:	02c12083          	lw	ra,44(sp)
   19610:	02812403          	lw	s0,40(sp)
   19614:	02412483          	lw	s1,36(sp)
   19618:	02012903          	lw	s2,32(sp)
   1961c:	01c12983          	lw	s3,28(sp)
   19620:	01812a03          	lw	s4,24(sp)
   19624:	01412a83          	lw	s5,20(sp)
   19628:	01012b03          	lw	s6,16(sp)
   1962c:	00c12b83          	lw	s7,12(sp)
   19630:	00812c03          	lw	s8,8(sp)
   19634:	00412c83          	lw	s9,4(sp)
   19638:	03010113          	addi	sp,sp,48
   1963c:	00008067          	ret
   19640:	ffc6f693          	andi	a3,a3,-4
   19644:	015686b3          	add	a3,a3,s5
   19648:	0ae6c063          	blt	a3,a4,196e8 <_realloc_r+0x23c>
   1964c:	00c52703          	lw	a4,12(a0)
   19650:	00852603          	lw	a2,8(a0)
   19654:	000a0993          	mv	s3,s4
   19658:	00068a93          	mv	s5,a3
   1965c:	00e62623          	sw	a4,12(a2)
   19660:	00c72423          	sw	a2,8(a4)
   19664:	f75ff06f          	j	195d8 <_realloc_r+0x12c>
   19668:	00c00793          	li	a5,12
   1966c:	00f4a023          	sw	a5,0(s1)
   19670:	00000513          	li	a0,0
   19674:	f99ff06f          	j	1960c <_realloc_r+0x160>
   19678:	0017f713          	andi	a4,a5,1
   1967c:	012b05b3          	add	a1,s6,s2
   19680:	0016e793          	ori	a5,a3,1
   19684:	01276733          	or	a4,a4,s2
   19688:	00eb2223          	sw	a4,4(s6)
   1968c:	00d586b3          	add	a3,a1,a3
   19690:	00f5a223          	sw	a5,4(a1)
   19694:	0046a783          	lw	a5,4(a3) # 3ff00004 <_end+0x3fedf894>
   19698:	00858593          	addi	a1,a1,8
   1969c:	00048513          	mv	a0,s1
   196a0:	0017e793          	ori	a5,a5,1
   196a4:	00f6a223          	sw	a5,4(a3)
   196a8:	8ddfd0ef          	jal	16f84 <_free_r>
   196ac:	f55ff06f          	j	19600 <_realloc_r+0x154>
   196b0:	02c12083          	lw	ra,44(sp)
   196b4:	02812403          	lw	s0,40(sp)
   196b8:	02412483          	lw	s1,36(sp)
   196bc:	02012903          	lw	s2,32(sp)
   196c0:	01c12983          	lw	s3,28(sp)
   196c4:	01812a03          	lw	s4,24(sp)
   196c8:	01412a83          	lw	s5,20(sp)
   196cc:	01012b03          	lw	s6,16(sp)
   196d0:	00c12b83          	lw	s7,12(sp)
   196d4:	00812c03          	lw	s8,8(sp)
   196d8:	00412c83          	lw	s9,4(sp)
   196dc:	00060593          	mv	a1,a2
   196e0:	03010113          	addi	sp,sp,48
   196e4:	bc0fe06f          	j	17aa4 <_malloc_r>
   196e8:	0017f793          	andi	a5,a5,1
   196ec:	e60792e3          	bnez	a5,19550 <_realloc_r+0xa4>
   196f0:	ff8a2b83          	lw	s7,-8(s4)
   196f4:	417b0bb3          	sub	s7,s6,s7
   196f8:	004ba783          	lw	a5,4(s7)
   196fc:	ffc7f793          	andi	a5,a5,-4
   19700:	00f68433          	add	s0,a3,a5
   19704:	0ce44063          	blt	s0,a4,197c4 <_realloc_r+0x318>
   19708:	00c52783          	lw	a5,12(a0)
   1970c:	00852703          	lw	a4,8(a0)
   19710:	ffca8613          	addi	a2,s5,-4
   19714:	008b8993          	addi	s3,s7,8
   19718:	00f72623          	sw	a5,12(a4)
   1971c:	00e7a423          	sw	a4,8(a5)
   19720:	008ba703          	lw	a4,8(s7)
   19724:	00cba783          	lw	a5,12(s7)
   19728:	00f72623          	sw	a5,12(a4)
   1972c:	00e7a423          	sw	a4,8(a5)
   19730:	02400793          	li	a5,36
   19734:	22c7e663          	bltu	a5,a2,19960 <_realloc_r+0x4b4>
   19738:	01300713          	li	a4,19
   1973c:	00098793          	mv	a5,s3
   19740:	04c77663          	bleu	a2,a4,1978c <_realloc_r+0x2e0>
   19744:	000a2783          	lw	a5,0(s4)
   19748:	00fba423          	sw	a5,8(s7)
   1974c:	004a2783          	lw	a5,4(s4)
   19750:	00fba623          	sw	a5,12(s7)
   19754:	01b00793          	li	a5,27
   19758:	24c7fc63          	bleu	a2,a5,199b0 <_realloc_r+0x504>
   1975c:	008a2783          	lw	a5,8(s4)
   19760:	00fba823          	sw	a5,16(s7)
   19764:	00ca2783          	lw	a5,12(s4)
   19768:	00fbaa23          	sw	a5,20(s7)
   1976c:	02400793          	li	a5,36
   19770:	0af61a63          	bne	a2,a5,19824 <_realloc_r+0x378>
   19774:	010a2703          	lw	a4,16(s4)
   19778:	020b8793          	addi	a5,s7,32
   1977c:	018a0a13          	addi	s4,s4,24
   19780:	00ebac23          	sw	a4,24(s7)
   19784:	ffca2703          	lw	a4,-4(s4)
   19788:	00ebae23          	sw	a4,28(s7)
   1978c:	000a2703          	lw	a4,0(s4)
   19790:	00040a93          	mv	s5,s0
   19794:	000b8b13          	mv	s6,s7
   19798:	00e7a023          	sw	a4,0(a5)
   1979c:	004a2703          	lw	a4,4(s4)
   197a0:	00e7a223          	sw	a4,4(a5)
   197a4:	008a2703          	lw	a4,8(s4)
   197a8:	00e7a423          	sw	a4,8(a5)
   197ac:	004ba783          	lw	a5,4(s7)
   197b0:	e29ff06f          	j	195d8 <_realloc_r+0x12c>
   197b4:	ff8a2b83          	lw	s7,-8(s4)
   197b8:	417b0bb3          	sub	s7,s6,s7
   197bc:	004ba783          	lw	a5,4(s7)
   197c0:	ffc7f793          	andi	a5,a5,-4
   197c4:	00fa8433          	add	s0,s5,a5
   197c8:	d8e444e3          	blt	s0,a4,19550 <_realloc_r+0xa4>
   197cc:	00cba783          	lw	a5,12(s7)
   197d0:	008ba703          	lw	a4,8(s7)
   197d4:	ffca8613          	addi	a2,s5,-4
   197d8:	02400693          	li	a3,36
   197dc:	00f72623          	sw	a5,12(a4)
   197e0:	008b8993          	addi	s3,s7,8
   197e4:	00e7a423          	sw	a4,8(a5)
   197e8:	16c6ec63          	bltu	a3,a2,19960 <_realloc_r+0x4b4>
   197ec:	01300713          	li	a4,19
   197f0:	00098793          	mv	a5,s3
   197f4:	f8c77ce3          	bleu	a2,a4,1978c <_realloc_r+0x2e0>
   197f8:	000a2783          	lw	a5,0(s4)
   197fc:	00fba423          	sw	a5,8(s7)
   19800:	004a2783          	lw	a5,4(s4)
   19804:	00fba623          	sw	a5,12(s7)
   19808:	01b00793          	li	a5,27
   1980c:	1ac7f263          	bleu	a2,a5,199b0 <_realloc_r+0x504>
   19810:	008a2783          	lw	a5,8(s4)
   19814:	00fba823          	sw	a5,16(s7)
   19818:	00ca2783          	lw	a5,12(s4)
   1981c:	00fbaa23          	sw	a5,20(s7)
   19820:	f4d60ae3          	beq	a2,a3,19774 <_realloc_r+0x2c8>
   19824:	018b8793          	addi	a5,s7,24
   19828:	010a0a13          	addi	s4,s4,16
   1982c:	f61ff06f          	j	1978c <_realloc_r+0x2e0>
   19830:	00452683          	lw	a3,4(a0)
   19834:	01090613          	addi	a2,s2,16
   19838:	ffc6f693          	andi	a3,a3,-4
   1983c:	015686b3          	add	a3,a3,s5
   19840:	0ec6d063          	ble	a2,a3,19920 <_realloc_r+0x474>
   19844:	0017f793          	andi	a5,a5,1
   19848:	d00794e3          	bnez	a5,19550 <_realloc_r+0xa4>
   1984c:	ff8a2b83          	lw	s7,-8(s4)
   19850:	417b0bb3          	sub	s7,s6,s7
   19854:	004ba783          	lw	a5,4(s7)
   19858:	ffc7f793          	andi	a5,a5,-4
   1985c:	00d78cb3          	add	s9,a5,a3
   19860:	f6ccc2e3          	blt	s9,a2,197c4 <_realloc_r+0x318>
   19864:	00cba783          	lw	a5,12(s7)
   19868:	008ba703          	lw	a4,8(s7)
   1986c:	ffca8613          	addi	a2,s5,-4
   19870:	02400693          	li	a3,36
   19874:	00f72623          	sw	a5,12(a4)
   19878:	008b8413          	addi	s0,s7,8
   1987c:	00e7a423          	sw	a4,8(a5)
   19880:	14c6ec63          	bltu	a3,a2,199d8 <_realloc_r+0x52c>
   19884:	01300713          	li	a4,19
   19888:	00040793          	mv	a5,s0
   1988c:	02c77263          	bleu	a2,a4,198b0 <_realloc_r+0x404>
   19890:	000a2783          	lw	a5,0(s4)
   19894:	00fba423          	sw	a5,8(s7)
   19898:	004a2783          	lw	a5,4(s4)
   1989c:	00fba623          	sw	a5,12(s7)
   198a0:	01b00793          	li	a5,27
   198a4:	14c7e263          	bltu	a5,a2,199e8 <_realloc_r+0x53c>
   198a8:	010b8793          	addi	a5,s7,16
   198ac:	008a0a13          	addi	s4,s4,8
   198b0:	000a2703          	lw	a4,0(s4)
   198b4:	00e7a023          	sw	a4,0(a5)
   198b8:	004a2703          	lw	a4,4(s4)
   198bc:	00e7a223          	sw	a4,4(a5)
   198c0:	008a2703          	lw	a4,8(s4)
   198c4:	00e7a423          	sw	a4,8(a5)
   198c8:	412c86b3          	sub	a3,s9,s2
   198cc:	012b87b3          	add	a5,s7,s2
   198d0:	0016e693          	ori	a3,a3,1
   198d4:	00fc2423          	sw	a5,8(s8)
   198d8:	00d7a223          	sw	a3,4(a5)
   198dc:	004ba703          	lw	a4,4(s7)
   198e0:	00048513          	mv	a0,s1
   198e4:	00177713          	andi	a4,a4,1
   198e8:	01276733          	or	a4,a4,s2
   198ec:	00eba223          	sw	a4,4(s7)
   198f0:	bc9fe0ef          	jal	184b8 <__malloc_unlock>
   198f4:	00040513          	mv	a0,s0
   198f8:	d15ff06f          	j	1960c <_realloc_r+0x160>
   198fc:	000a2703          	lw	a4,0(s4)
   19900:	00e52023          	sw	a4,0(a0)
   19904:	004a2703          	lw	a4,4(s4)
   19908:	00e52223          	sw	a4,4(a0)
   1990c:	01b00713          	li	a4,27
   19910:	06c76663          	bltu	a4,a2,1997c <_realloc_r+0x4d0>
   19914:	00850793          	addi	a5,a0,8
   19918:	008a0713          	addi	a4,s4,8
   1991c:	c79ff06f          	j	19594 <_realloc_r+0xe8>
   19920:	412686b3          	sub	a3,a3,s2
   19924:	012b0b33          	add	s6,s6,s2
   19928:	0016e693          	ori	a3,a3,1
   1992c:	016c2423          	sw	s6,8(s8)
   19930:	00db2223          	sw	a3,4(s6)
   19934:	ffca2703          	lw	a4,-4(s4)
   19938:	00048513          	mv	a0,s1
   1993c:	00177713          	andi	a4,a4,1
   19940:	01276733          	or	a4,a4,s2
   19944:	feea2e23          	sw	a4,-4(s4)
   19948:	b71fe0ef          	jal	184b8 <__malloc_unlock>
   1994c:	000a0513          	mv	a0,s4
   19950:	cbdff06f          	j	1960c <_realloc_r+0x160>
   19954:	000a0593          	mv	a1,s4
   19958:	999fe0ef          	jal	182f0 <memmove>
   1995c:	c51ff06f          	j	195ac <_realloc_r+0x100>
   19960:	000a0593          	mv	a1,s4
   19964:	00098513          	mv	a0,s3
   19968:	989fe0ef          	jal	182f0 <memmove>
   1996c:	00040a93          	mv	s5,s0
   19970:	004ba783          	lw	a5,4(s7)
   19974:	000b8b13          	mv	s6,s7
   19978:	c61ff06f          	j	195d8 <_realloc_r+0x12c>
   1997c:	008a2703          	lw	a4,8(s4)
   19980:	00e52423          	sw	a4,8(a0)
   19984:	00ca2703          	lw	a4,12(s4)
   19988:	00e52623          	sw	a4,12(a0)
   1998c:	02f60863          	beq	a2,a5,199bc <_realloc_r+0x510>
   19990:	01050793          	addi	a5,a0,16
   19994:	010a0713          	addi	a4,s4,16
   19998:	bfdff06f          	j	19594 <_realloc_r+0xe8>
   1999c:	ffc52703          	lw	a4,-4(a0)
   199a0:	000a0993          	mv	s3,s4
   199a4:	ffc77713          	andi	a4,a4,-4
   199a8:	00ea8ab3          	add	s5,s5,a4
   199ac:	c2dff06f          	j	195d8 <_realloc_r+0x12c>
   199b0:	010b8793          	addi	a5,s7,16
   199b4:	008a0a13          	addi	s4,s4,8
   199b8:	dd5ff06f          	j	1978c <_realloc_r+0x2e0>
   199bc:	010a2683          	lw	a3,16(s4)
   199c0:	01850793          	addi	a5,a0,24
   199c4:	018a0713          	addi	a4,s4,24
   199c8:	00d52823          	sw	a3,16(a0)
   199cc:	014a2683          	lw	a3,20(s4)
   199d0:	00d52a23          	sw	a3,20(a0)
   199d4:	bc1ff06f          	j	19594 <_realloc_r+0xe8>
   199d8:	000a0593          	mv	a1,s4
   199dc:	00040513          	mv	a0,s0
   199e0:	911fe0ef          	jal	182f0 <memmove>
   199e4:	ee5ff06f          	j	198c8 <_realloc_r+0x41c>
   199e8:	008a2783          	lw	a5,8(s4)
   199ec:	00fba823          	sw	a5,16(s7)
   199f0:	00ca2783          	lw	a5,12(s4)
   199f4:	00fbaa23          	sw	a5,20(s7)
   199f8:	02d60063          	beq	a2,a3,19a18 <_realloc_r+0x56c>
   199fc:	018b8793          	addi	a5,s7,24
   19a00:	010a0a13          	addi	s4,s4,16
   19a04:	eadff06f          	j	198b0 <_realloc_r+0x404>
   19a08:	00048513          	mv	a0,s1
   19a0c:	aadfe0ef          	jal	184b8 <__malloc_unlock>
   19a10:	00000513          	li	a0,0
   19a14:	bf9ff06f          	j	1960c <_realloc_r+0x160>
   19a18:	010a2703          	lw	a4,16(s4)
   19a1c:	020b8793          	addi	a5,s7,32
   19a20:	018a0a13          	addi	s4,s4,24
   19a24:	00ebac23          	sw	a4,24(s7)
   19a28:	ffca2703          	lw	a4,-4(s4)
   19a2c:	00ebae23          	sw	a4,28(s7)
   19a30:	e81ff06f          	j	198b0 <_realloc_r+0x404>

00019a34 <__fpclassifyd>:
   19a34:	ff010113          	addi	sp,sp,-16
   19a38:	00a13427          	fsd	fa0,8(sp)
   19a3c:	00812703          	lw	a4,8(sp)
   19a40:	00c12783          	lw	a5,12(sp)
   19a44:	00200513          	li	a0,2
   19a48:	00e7e6b3          	or	a3,a5,a4
   19a4c:	00069663          	bnez	a3,19a58 <__fpclassifyd+0x24>
   19a50:	01010113          	addi	sp,sp,16
   19a54:	00008067          	ret
   19a58:	800006b7          	lui	a3,0x80000
   19a5c:	04d78863          	beq	a5,a3,19aac <__fpclassifyd+0x78>
   19a60:	fff006b7          	lui	a3,0xfff00
   19a64:	00d786b3          	add	a3,a5,a3
   19a68:	7fe00637          	lui	a2,0x7fe00
   19a6c:	00400513          	li	a0,4
   19a70:	fec6e0e3          	bltu	a3,a2,19a50 <__fpclassifyd+0x1c>
   19a74:	7ff006b7          	lui	a3,0x7ff00
   19a78:	00d786b3          	add	a3,a5,a3
   19a7c:	fcc6eae3          	bltu	a3,a2,19a50 <__fpclassifyd+0x1c>
   19a80:	800006b7          	lui	a3,0x80000
   19a84:	fff6c693          	not	a3,a3
   19a88:	00d7f7b3          	and	a5,a5,a3
   19a8c:	001006b7          	lui	a3,0x100
   19a90:	00300513          	li	a0,3
   19a94:	fad7eee3          	bltu	a5,a3,19a50 <__fpclassifyd+0x1c>
   19a98:	7ff006b7          	lui	a3,0x7ff00
   19a9c:	00000513          	li	a0,0
   19aa0:	fad798e3          	bne	a5,a3,19a50 <__fpclassifyd+0x1c>
   19aa4:	00173513          	seqz	a0,a4
   19aa8:	fa9ff06f          	j	19a50 <__fpclassifyd+0x1c>
   19aac:	fa0702e3          	beqz	a4,19a50 <__fpclassifyd+0x1c>
   19ab0:	fd1ff06f          	j	19a80 <__fpclassifyd+0x4c>

00019ab4 <__sread>:
   19ab4:	00e59503          	lh	a0,14(a1)
   19ab8:	ff010113          	addi	sp,sp,-16
   19abc:	00812423          	sw	s0,8(sp)
   19ac0:	00058413          	mv	s0,a1
   19ac4:	00060593          	mv	a1,a2
   19ac8:	00068613          	mv	a2,a3
   19acc:	00112623          	sw	ra,12(sp)
   19ad0:	119010ef          	jal	1b3e8 <read>
   19ad4:	02054063          	bltz	a0,19af4 <__sread+0x40>
   19ad8:	05042783          	lw	a5,80(s0)
   19adc:	00c12083          	lw	ra,12(sp)
   19ae0:	00a787b3          	add	a5,a5,a0
   19ae4:	04f42823          	sw	a5,80(s0)
   19ae8:	00812403          	lw	s0,8(sp)
   19aec:	01010113          	addi	sp,sp,16
   19af0:	00008067          	ret
   19af4:	00c45703          	lhu	a4,12(s0)
   19af8:	fffff7b7          	lui	a5,0xfffff
   19afc:	00c12083          	lw	ra,12(sp)
   19b00:	fff78793          	addi	a5,a5,-1 # ffffefff <_end+0xfffde88f>
   19b04:	00f777b3          	and	a5,a4,a5
   19b08:	00f41623          	sh	a5,12(s0)
   19b0c:	00812403          	lw	s0,8(sp)
   19b10:	01010113          	addi	sp,sp,16
   19b14:	00008067          	ret

00019b18 <__seofread>:
   19b18:	00000513          	li	a0,0
   19b1c:	00008067          	ret

00019b20 <__swrite>:
   19b20:	00c59703          	lh	a4,12(a1)
   19b24:	ff010113          	addi	sp,sp,-16
   19b28:	00812423          	sw	s0,8(sp)
   19b2c:	10077793          	andi	a5,a4,256
   19b30:	00912223          	sw	s1,4(sp)
   19b34:	01212023          	sw	s2,0(sp)
   19b38:	00112623          	sw	ra,12(sp)
   19b3c:	00058413          	mv	s0,a1
   19b40:	00060493          	mv	s1,a2
   19b44:	00068913          	mv	s2,a3
   19b48:	00078e63          	beqz	a5,19b64 <__swrite+0x44>
   19b4c:	00e59503          	lh	a0,14(a1)
   19b50:	00200713          	li	a4,2
   19b54:	00000613          	li	a2,0
   19b58:	00000693          	li	a3,0
   19b5c:	06d010ef          	jal	1b3c8 <lseek>
   19b60:	00c41703          	lh	a4,12(s0)
   19b64:	fffff7b7          	lui	a5,0xfffff
   19b68:	fff78793          	addi	a5,a5,-1 # ffffefff <_end+0xfffde88f>
   19b6c:	00f777b3          	and	a5,a4,a5
   19b70:	00e41503          	lh	a0,14(s0)
   19b74:	00f41623          	sh	a5,12(s0)
   19b78:	00090613          	mv	a2,s2
   19b7c:	00048593          	mv	a1,s1
   19b80:	00c12083          	lw	ra,12(sp)
   19b84:	00812403          	lw	s0,8(sp)
   19b88:	00412483          	lw	s1,4(sp)
   19b8c:	00012903          	lw	s2,0(sp)
   19b90:	01010113          	addi	sp,sp,16
   19b94:	0690106f          	j	1b3fc <write>

00019b98 <__sseek>:
   19b98:	00e59503          	lh	a0,14(a1)
   19b9c:	ff010113          	addi	sp,sp,-16
   19ba0:	00812423          	sw	s0,8(sp)
   19ba4:	00112623          	sw	ra,12(sp)
   19ba8:	00058413          	mv	s0,a1
   19bac:	01d010ef          	jal	1b3c8 <lseek>
   19bb0:	fff00793          	li	a5,-1
   19bb4:	00c45703          	lhu	a4,12(s0)
   19bb8:	02f50263          	beq	a0,a5,19bdc <__sseek+0x44>
   19bbc:	00c12083          	lw	ra,12(sp)
   19bc0:	000017b7          	lui	a5,0x1
   19bc4:	00f767b3          	or	a5,a4,a5
   19bc8:	04a42823          	sw	a0,80(s0)
   19bcc:	00f41623          	sh	a5,12(s0)
   19bd0:	00812403          	lw	s0,8(sp)
   19bd4:	01010113          	addi	sp,sp,16
   19bd8:	00008067          	ret
   19bdc:	fea590e3          	bne	a1,a0,19bbc <__sseek+0x24>
   19be0:	fffff7b7          	lui	a5,0xfffff
   19be4:	00c12083          	lw	ra,12(sp)
   19be8:	fff78793          	addi	a5,a5,-1 # ffffefff <_end+0xfffde88f>
   19bec:	00f777b3          	and	a5,a4,a5
   19bf0:	00f41623          	sh	a5,12(s0)
   19bf4:	00812403          	lw	s0,8(sp)
   19bf8:	01010113          	addi	sp,sp,16
   19bfc:	00008067          	ret

00019c00 <__sclose>:
   19c00:	00e59503          	lh	a0,14(a1)
   19c04:	08d0106f          	j	1b490 <close>

00019c08 <__sprint_r.part.0>:
   19c08:	0645a783          	lw	a5,100(a1)
   19c0c:	fd010113          	addi	sp,sp,-48
   19c10:	01612823          	sw	s6,16(sp)
   19c14:	01279713          	slli	a4,a5,0x12
   19c18:	02112623          	sw	ra,44(sp)
   19c1c:	02812423          	sw	s0,40(sp)
   19c20:	02912223          	sw	s1,36(sp)
   19c24:	03212023          	sw	s2,32(sp)
   19c28:	01312e23          	sw	s3,28(sp)
   19c2c:	01412c23          	sw	s4,24(sp)
   19c30:	01512a23          	sw	s5,20(sp)
   19c34:	01712623          	sw	s7,12(sp)
   19c38:	00060b13          	mv	s6,a2
   19c3c:	0a075663          	bgez	a4,19ce8 <__sprint_r.part.0+0xe0>
   19c40:	00862783          	lw	a5,8(a2) # 7fe00008 <_end+0x7fddf898>
   19c44:	00058a13          	mv	s4,a1
   19c48:	00050a93          	mv	s5,a0
   19c4c:	00062b83          	lw	s7,0(a2)
   19c50:	fff00993          	li	s3,-1
   19c54:	08078663          	beqz	a5,19ce0 <__sprint_r.part.0+0xd8>
   19c58:	004ba903          	lw	s2,4(s7)
   19c5c:	000ba483          	lw	s1,0(s7)
   19c60:	00000413          	li	s0,0
   19c64:	00295913          	srli	s2,s2,0x2
   19c68:	00091863          	bnez	s2,19c78 <__sprint_r.part.0+0x70>
   19c6c:	0600006f          	j	19ccc <__sprint_r.part.0+0xc4>
   19c70:	00448493          	addi	s1,s1,4
   19c74:	04890a63          	beq	s2,s0,19cc8 <__sprint_r.part.0+0xc0>
   19c78:	0004a583          	lw	a1,0(s1)
   19c7c:	000a0613          	mv	a2,s4
   19c80:	000a8513          	mv	a0,s5
   19c84:	470010ef          	jal	1b0f4 <_fputwc_r>
   19c88:	00140413          	addi	s0,s0,1
   19c8c:	ff3512e3          	bne	a0,s3,19c70 <__sprint_r.part.0+0x68>
   19c90:	00098513          	mv	a0,s3
   19c94:	02c12083          	lw	ra,44(sp)
   19c98:	000b2423          	sw	zero,8(s6)
   19c9c:	000b2223          	sw	zero,4(s6)
   19ca0:	02812403          	lw	s0,40(sp)
   19ca4:	02412483          	lw	s1,36(sp)
   19ca8:	02012903          	lw	s2,32(sp)
   19cac:	01c12983          	lw	s3,28(sp)
   19cb0:	01812a03          	lw	s4,24(sp)
   19cb4:	01412a83          	lw	s5,20(sp)
   19cb8:	01012b03          	lw	s6,16(sp)
   19cbc:	00c12b83          	lw	s7,12(sp)
   19cc0:	03010113          	addi	sp,sp,48
   19cc4:	00008067          	ret
   19cc8:	008b2783          	lw	a5,8(s6)
   19ccc:	00291913          	slli	s2,s2,0x2
   19cd0:	412787b3          	sub	a5,a5,s2
   19cd4:	00fb2423          	sw	a5,8(s6)
   19cd8:	008b8b93          	addi	s7,s7,8
   19cdc:	f6079ee3          	bnez	a5,19c58 <__sprint_r.part.0+0x50>
   19ce0:	00000513          	li	a0,0
   19ce4:	fb1ff06f          	j	19c94 <__sprint_r.part.0+0x8c>
   19ce8:	d78fd0ef          	jal	17260 <__sfvwrite_r>
   19cec:	fa9ff06f          	j	19c94 <__sprint_r.part.0+0x8c>

00019cf0 <__sprint_r>:
   19cf0:	00862703          	lw	a4,8(a2)
   19cf4:	00070463          	beqz	a4,19cfc <__sprint_r+0xc>
   19cf8:	f11ff06f          	j	19c08 <__sprint_r.part.0>
   19cfc:	00062223          	sw	zero,4(a2)
   19d00:	00000513          	li	a0,0
   19d04:	00008067          	ret

00019d08 <_vfiprintf_r>:
   19d08:	b1010113          	addi	sp,sp,-1264
   19d0c:	4d412c23          	sw	s4,1240(sp)
   19d10:	4d912223          	sw	s9,1220(sp)
   19d14:	4bb12e23          	sw	s11,1212(sp)
   19d18:	4e112623          	sw	ra,1260(sp)
   19d1c:	4e812423          	sw	s0,1256(sp)
   19d20:	4e912223          	sw	s1,1252(sp)
   19d24:	4f212023          	sw	s2,1248(sp)
   19d28:	4d312e23          	sw	s3,1244(sp)
   19d2c:	4d512a23          	sw	s5,1236(sp)
   19d30:	4d612823          	sw	s6,1232(sp)
   19d34:	4d712623          	sw	s7,1228(sp)
   19d38:	4d812423          	sw	s8,1224(sp)
   19d3c:	4da12023          	sw	s10,1216(sp)
   19d40:	00050a13          	mv	s4,a0
   19d44:	00058c93          	mv	s9,a1
   19d48:	00060d93          	mv	s11,a2
   19d4c:	00d12a23          	sw	a3,20(sp)
   19d50:	00050663          	beqz	a0,19d5c <_vfiprintf_r+0x54>
   19d54:	03852783          	lw	a5,56(a0)
   19d58:	26078663          	beqz	a5,19fc4 <_vfiprintf_r+0x2bc>
   19d5c:	00cc9703          	lh	a4,12(s9)
   19d60:	01071793          	slli	a5,a4,0x10
   19d64:	0107d793          	srli	a5,a5,0x10
   19d68:	01279593          	slli	a1,a5,0x12
   19d6c:	0205c663          	bltz	a1,19d98 <_vfiprintf_r+0x90>
   19d70:	064ca683          	lw	a3,100(s9)
   19d74:	000027b7          	lui	a5,0x2
   19d78:	00f76733          	or	a4,a4,a5
   19d7c:	ffffe7b7          	lui	a5,0xffffe
   19d80:	fff78793          	addi	a5,a5,-1 # ffffdfff <_end+0xfffdd88f>
   19d84:	00f6f7b3          	and	a5,a3,a5
   19d88:	06fca223          	sw	a5,100(s9)
   19d8c:	01071793          	slli	a5,a4,0x10
   19d90:	00ec9623          	sh	a4,12(s9)
   19d94:	0107d793          	srli	a5,a5,0x10
   19d98:	0087f693          	andi	a3,a5,8
   19d9c:	12068a63          	beqz	a3,19ed0 <_vfiprintf_r+0x1c8>
   19da0:	010ca683          	lw	a3,16(s9)
   19da4:	12068663          	beqz	a3,19ed0 <_vfiprintf_r+0x1c8>
   19da8:	01a7f793          	andi	a5,a5,26
   19dac:	00a00693          	li	a3,10
   19db0:	14d78463          	beq	a5,a3,19ef8 <_vfiprintf_r+0x1f0>
   19db4:	07010793          	addi	a5,sp,112
   19db8:	06f10813          	addi	a6,sp,111
   19dbc:	0b010c13          	addi	s8,sp,176
   19dc0:	410786b3          	sub	a3,a5,a6
   19dc4:	0001c337          	lui	t1,0x1c
   19dc8:	02d12623          	sw	a3,44(sp)
   19dcc:	00f12823          	sw	a5,16(sp)
   19dd0:	01012623          	sw	a6,12(sp)
   19dd4:	03812e23          	sw	s8,60(sp)
   19dd8:	04012223          	sw	zero,68(sp)
   19ddc:	04012023          	sw	zero,64(sp)
   19de0:	02012023          	sw	zero,32(sp)
   19de4:	00012c23          	sw	zero,24(sp)
   19de8:	2ac30b93          	addi	s7,t1,684 # 1c2ac <blanks.3948>
   19dec:	000c0693          	mv	a3,s8
   19df0:	000d8a93          	mv	s5,s11
   19df4:	000ac783          	lbu	a5,0(s5)
   19df8:	540782e3          	beqz	a5,1ab3c <_vfiprintf_r+0xe34>
   19dfc:	02500713          	li	a4,37
   19e00:	000a8493          	mv	s1,s5
   19e04:	00e79663          	bne	a5,a4,19e10 <_vfiprintf_r+0x108>
   19e08:	0540006f          	j	19e5c <_vfiprintf_r+0x154>
   19e0c:	00e78863          	beq	a5,a4,19e1c <_vfiprintf_r+0x114>
   19e10:	00148493          	addi	s1,s1,1
   19e14:	0004c783          	lbu	a5,0(s1)
   19e18:	fe079ae3          	bnez	a5,19e0c <_vfiprintf_r+0x104>
   19e1c:	41548433          	sub	s0,s1,s5
   19e20:	02040e63          	beqz	s0,19e5c <_vfiprintf_r+0x154>
   19e24:	04412703          	lw	a4,68(sp)
   19e28:	04012783          	lw	a5,64(sp)
   19e2c:	00700613          	li	a2,7
   19e30:	00e40733          	add	a4,s0,a4
   19e34:	00178793          	addi	a5,a5,1
   19e38:	0156a023          	sw	s5,0(a3) # 7ff00000 <_end+0x7fedf890>
   19e3c:	0086a223          	sw	s0,4(a3)
   19e40:	04e12223          	sw	a4,68(sp)
   19e44:	04f12023          	sw	a5,64(sp)
   19e48:	00868693          	addi	a3,a3,8
   19e4c:	06f64463          	blt	a2,a5,19eb4 <_vfiprintf_r+0x1ac>
   19e50:	01812703          	lw	a4,24(sp)
   19e54:	00870733          	add	a4,a4,s0
   19e58:	00e12c23          	sw	a4,24(sp)
   19e5c:	0004c783          	lbu	a5,0(s1)
   19e60:	120780e3          	beqz	a5,1a780 <_vfiprintf_r+0xa78>
   19e64:	00148493          	addi	s1,s1,1
   19e68:	02010ba3          	sb	zero,55(sp)
   19e6c:	00000513          	li	a0,0
   19e70:	00000293          	li	t0,0
   19e74:	fff00d93          	li	s11,-1
   19e78:	00000b13          	li	s6,0
   19e7c:	00000913          	li	s2,0
   19e80:	05800613          	li	a2,88
   19e84:	00900593          	li	a1,9
   19e88:	02a00313          	li	t1,42
   19e8c:	0004c703          	lbu	a4,0(s1)
   19e90:	00148a93          	addi	s5,s1,1
   19e94:	fe070793          	addi	a5,a4,-32
   19e98:	74f66463          	bltu	a2,a5,1a5e0 <_vfiprintf_r+0x8d8>
   19e9c:	0001c837          	lui	a6,0x1c
   19ea0:	00279793          	slli	a5,a5,0x2
   19ea4:	14880813          	addi	a6,a6,328 # 1c148 <__mprec_bigtens+0x28>
   19ea8:	010787b3          	add	a5,a5,a6
   19eac:	0007a783          	lw	a5,0(a5)
   19eb0:	00078067          	jr	a5
   19eb4:	380718e3          	bnez	a4,1aa44 <_vfiprintf_r+0xd3c>
   19eb8:	04012023          	sw	zero,64(sp)
   19ebc:	000c0693          	mv	a3,s8
   19ec0:	f91ff06f          	j	19e50 <_vfiprintf_r+0x148>
   19ec4:	01096913          	ori	s2,s2,16
   19ec8:	000a8493          	mv	s1,s5
   19ecc:	fc1ff06f          	j	19e8c <_vfiprintf_r+0x184>
   19ed0:	000c8593          	mv	a1,s9
   19ed4:	000a0513          	mv	a0,s4
   19ed8:	b70fb0ef          	jal	15248 <__swsetup_r>
   19edc:	50051ae3          	bnez	a0,1abf0 <_vfiprintf_r+0xee8>
   19ee0:	00cc9703          	lh	a4,12(s9)
   19ee4:	00a00693          	li	a3,10
   19ee8:	01071793          	slli	a5,a4,0x10
   19eec:	0107d793          	srli	a5,a5,0x10
   19ef0:	01a7f793          	andi	a5,a5,26
   19ef4:	ecd790e3          	bne	a5,a3,19db4 <_vfiprintf_r+0xac>
   19ef8:	00ec9783          	lh	a5,14(s9)
   19efc:	ea07cce3          	bltz	a5,19db4 <_vfiprintf_r+0xac>
   19f00:	064ca303          	lw	t1,100(s9)
   19f04:	01cca283          	lw	t0,28(s9)
   19f08:	024ca883          	lw	a7,36(s9)
   19f0c:	01412683          	lw	a3,20(sp)
   19f10:	ffd77713          	andi	a4,a4,-3
   19f14:	40000813          	li	a6,1024
   19f18:	04e11a23          	sh	a4,84(sp)
   19f1c:	000d8613          	mv	a2,s11
   19f20:	0b010713          	addi	a4,sp,176
   19f24:	04810593          	addi	a1,sp,72
   19f28:	000a0513          	mv	a0,s4
   19f2c:	0a612623          	sw	t1,172(sp)
   19f30:	04f11b23          	sh	a5,86(sp)
   19f34:	06512223          	sw	t0,100(sp)
   19f38:	07112623          	sw	a7,108(sp)
   19f3c:	04e12423          	sw	a4,72(sp)
   19f40:	04e12c23          	sw	a4,88(sp)
   19f44:	05012823          	sw	a6,80(sp)
   19f48:	05012e23          	sw	a6,92(sp)
   19f4c:	06012023          	sw	zero,96(sp)
   19f50:	db9ff0ef          	jal	19d08 <_vfiprintf_r>
   19f54:	00050a93          	mv	s5,a0
   19f58:	00054a63          	bltz	a0,19f6c <_vfiprintf_r+0x264>
   19f5c:	04810593          	addi	a1,sp,72
   19f60:	000a0513          	mv	a0,s4
   19f64:	8f1fc0ef          	jal	16854 <_fflush_r>
   19f68:	5e0518e3          	bnez	a0,1ad58 <_vfiprintf_r+0x1050>
   19f6c:	05415783          	lhu	a5,84(sp)
   19f70:	0407f793          	andi	a5,a5,64
   19f74:	00078863          	beqz	a5,19f84 <_vfiprintf_r+0x27c>
   19f78:	00ccd783          	lhu	a5,12(s9)
   19f7c:	0407e793          	ori	a5,a5,64
   19f80:	00fc9623          	sh	a5,12(s9)
   19f84:	000a8513          	mv	a0,s5
   19f88:	4ec12083          	lw	ra,1260(sp)
   19f8c:	4e812403          	lw	s0,1256(sp)
   19f90:	4e412483          	lw	s1,1252(sp)
   19f94:	4e012903          	lw	s2,1248(sp)
   19f98:	4dc12983          	lw	s3,1244(sp)
   19f9c:	4d812a03          	lw	s4,1240(sp)
   19fa0:	4d412a83          	lw	s5,1236(sp)
   19fa4:	4d012b03          	lw	s6,1232(sp)
   19fa8:	4cc12b83          	lw	s7,1228(sp)
   19fac:	4c812c03          	lw	s8,1224(sp)
   19fb0:	4c412c83          	lw	s9,1220(sp)
   19fb4:	4c012d03          	lw	s10,1216(sp)
   19fb8:	4bc12d83          	lw	s11,1212(sp)
   19fbc:	4f010113          	addi	sp,sp,1264
   19fc0:	00008067          	ret
   19fc4:	e81fc0ef          	jal	16e44 <__sinit>
   19fc8:	d95ff06f          	j	19d5c <_vfiprintf_r+0x54>
   19fcc:	01412703          	lw	a4,20(sp)
   19fd0:	00072b03          	lw	s6,0(a4)
   19fd4:	00470713          	addi	a4,a4,4
   19fd8:	00e12a23          	sw	a4,20(sp)
   19fdc:	ee0b56e3          	bgez	s6,19ec8 <_vfiprintf_r+0x1c0>
   19fe0:	41600b33          	neg	s6,s6
   19fe4:	00496913          	ori	s2,s2,4
   19fe8:	000a8493          	mv	s1,s5
   19fec:	ea1ff06f          	j	19e8c <_vfiprintf_r+0x184>
   19ff0:	01412803          	lw	a6,20(sp)
   19ff4:	03000613          	li	a2,48
   19ff8:	02c10c23          	sb	a2,56(sp)
   19ffc:	07800613          	li	a2,120
   1a000:	00480713          	addi	a4,a6,4
   1a004:	00082783          	lw	a5,0(a6)
   1a008:	00296593          	ori	a1,s2,2
   1a00c:	02c10ca3          	sb	a2,57(sp)
   1a010:	02010ba3          	sb	zero,55(sp)
   1a014:	2e0dc8e3          	bltz	s11,1ab04 <_vfiprintf_r+0xdfc>
   1a018:	f7f97893          	andi	a7,s2,-129
   1a01c:	0028e913          	ori	s2,a7,2
   1a020:	00e12a23          	sw	a4,20(sp)
   1a024:	300792e3          	bnez	a5,1ab28 <_vfiprintf_r+0xe20>
   1a028:	0001c9b7          	lui	s3,0x1c
   1a02c:	2f898993          	addi	s3,s3,760 # 1c2f8 <zeroes.3949+0x3c>
   1a030:	03312023          	sw	s3,32(sp)
   1a034:	00000593          	li	a1,0
   1a038:	00000793          	li	a5,0
   1a03c:	2c0d8c63          	beqz	s11,1a314 <_vfiprintf_r+0x60c>
   1a040:	02012603          	lw	a2,32(sp)
   1a044:	07010993          	addi	s3,sp,112
   1a048:	00f7f713          	andi	a4,a5,15
   1a04c:	00e60733          	add	a4,a2,a4
   1a050:	00074703          	lbu	a4,0(a4)
   1a054:	fff98993          	addi	s3,s3,-1
   1a058:	0047d793          	srli	a5,a5,0x4
   1a05c:	00e98023          	sb	a4,0(s3)
   1a060:	fe0794e3          	bnez	a5,1a048 <_vfiprintf_r+0x340>
   1a064:	01012783          	lw	a5,16(sp)
   1a068:	41378433          	sub	s0,a5,s3
   1a06c:	000d8d13          	mv	s10,s11
   1a070:	008dd463          	ble	s0,s11,1a078 <_vfiprintf_r+0x370>
   1a074:	00040d13          	mv	s10,s0
   1a078:	00b035b3          	snez	a1,a1
   1a07c:	00bd0d33          	add	s10,s10,a1
   1a080:	00297393          	andi	t2,s2,2
   1a084:	00038463          	beqz	t2,1a08c <_vfiprintf_r+0x384>
   1a088:	002d0d13          	addi	s10,s10,2
   1a08c:	08497313          	andi	t1,s2,132
   1a090:	5c031463          	bnez	t1,1a658 <_vfiprintf_r+0x950>
   1a094:	41ab04b3          	sub	s1,s6,s10
   1a098:	5c905063          	blez	s1,1a658 <_vfiprintf_r+0x950>
   1a09c:	01000e13          	li	t3,16
   1a0a0:	04412783          	lw	a5,68(sp)
   1a0a4:	3e9e50e3          	ble	s1,t3,1ac84 <_vfiprintf_r+0xf7c>
   1a0a8:	02812223          	sw	s0,36(sp)
   1a0ac:	04012583          	lw	a1,64(sp)
   1a0b0:	00048413          	mv	s0,s1
   1a0b4:	01712e23          	sw	s7,28(sp)
   1a0b8:	00700e93          	li	t4,7
   1a0bc:	02712423          	sw	t2,40(sp)
   1a0c0:	00030493          	mv	s1,t1
   1a0c4:	0180006f          	j	1a0dc <_vfiprintf_r+0x3d4>
   1a0c8:	00258613          	addi	a2,a1,2
   1a0cc:	00868693          	addi	a3,a3,8
   1a0d0:	00070593          	mv	a1,a4
   1a0d4:	ff040413          	addi	s0,s0,-16
   1a0d8:	028e5c63          	ble	s0,t3,1a110 <_vfiprintf_r+0x408>
   1a0dc:	01078793          	addi	a5,a5,16
   1a0e0:	00158713          	addi	a4,a1,1
   1a0e4:	0176a023          	sw	s7,0(a3)
   1a0e8:	01c6a223          	sw	t3,4(a3)
   1a0ec:	04f12223          	sw	a5,68(sp)
   1a0f0:	04e12023          	sw	a4,64(sp)
   1a0f4:	fceedae3          	ble	a4,t4,1a0c8 <_vfiprintf_r+0x3c0>
   1a0f8:	52079463          	bnez	a5,1a620 <_vfiprintf_r+0x918>
   1a0fc:	ff040413          	addi	s0,s0,-16
   1a100:	00000593          	li	a1,0
   1a104:	00100613          	li	a2,1
   1a108:	000c0693          	mv	a3,s8
   1a10c:	fc8e48e3          	blt	t3,s0,1a0dc <_vfiprintf_r+0x3d4>
   1a110:	00048313          	mv	t1,s1
   1a114:	02812383          	lw	t2,40(sp)
   1a118:	00040493          	mv	s1,s0
   1a11c:	02412403          	lw	s0,36(sp)
   1a120:	01c12803          	lw	a6,28(sp)
   1a124:	00f487b3          	add	a5,s1,a5
   1a128:	00700713          	li	a4,7
   1a12c:	0106a023          	sw	a6,0(a3)
   1a130:	0096a223          	sw	s1,4(a3)
   1a134:	04f12223          	sw	a5,68(sp)
   1a138:	04c12023          	sw	a2,64(sp)
   1a13c:	7ec74263          	blt	a4,a2,1a920 <_vfiprintf_r+0xc18>
   1a140:	03714703          	lbu	a4,55(sp)
   1a144:	00868693          	addi	a3,a3,8
   1a148:	00160593          	addi	a1,a2,1
   1a14c:	52071063          	bnez	a4,1a66c <_vfiprintf_r+0x964>
   1a150:	54038a63          	beqz	t2,1a6a4 <_vfiprintf_r+0x99c>
   1a154:	03810713          	addi	a4,sp,56
   1a158:	00e6a023          	sw	a4,0(a3)
   1a15c:	00200713          	li	a4,2
   1a160:	00278793          	addi	a5,a5,2
   1a164:	00e6a223          	sw	a4,4(a3)
   1a168:	00700713          	li	a4,7
   1a16c:	04f12223          	sw	a5,68(sp)
   1a170:	04b12023          	sw	a1,64(sp)
   1a174:	7eb75c63          	ble	a1,a4,1a96c <_vfiprintf_r+0xc64>
   1a178:	0e0794e3          	bnez	a5,1aa60 <_vfiprintf_r+0xd58>
   1a17c:	08000713          	li	a4,128
   1a180:	00000613          	li	a2,0
   1a184:	00100593          	li	a1,1
   1a188:	000c0693          	mv	a3,s8
   1a18c:	52e31063          	bne	t1,a4,1a6ac <_vfiprintf_r+0x9a4>
   1a190:	41ab04b3          	sub	s1,s6,s10
   1a194:	50905c63          	blez	s1,1a6ac <_vfiprintf_r+0x9a4>
   1a198:	01000393          	li	t2,16
   1a19c:	3693d8e3          	ble	s1,t2,1ad0c <_vfiprintf_r+0x1004>
   1a1a0:	0001c5b7          	lui	a1,0x1c
   1a1a4:	2bc58313          	addi	t1,a1,700 # 1c2bc <zeroes.3949>
   1a1a8:	00812e23          	sw	s0,28(sp)
   1a1ac:	00700e13          	li	t3,7
   1a1b0:	00030413          	mv	s0,t1
   1a1b4:	0180006f          	j	1a1cc <_vfiprintf_r+0x4c4>
   1a1b8:	00260513          	addi	a0,a2,2
   1a1bc:	00868693          	addi	a3,a3,8
   1a1c0:	00070613          	mv	a2,a4
   1a1c4:	ff048493          	addi	s1,s1,-16
   1a1c8:	0293dc63          	ble	s1,t2,1a200 <_vfiprintf_r+0x4f8>
   1a1cc:	01078793          	addi	a5,a5,16
   1a1d0:	00160713          	addi	a4,a2,1
   1a1d4:	0086a023          	sw	s0,0(a3)
   1a1d8:	0076a223          	sw	t2,4(a3)
   1a1dc:	04f12223          	sw	a5,68(sp)
   1a1e0:	04e12023          	sw	a4,64(sp)
   1a1e4:	fcee5ae3          	ble	a4,t3,1a1b8 <_vfiprintf_r+0x4b0>
   1a1e8:	70079063          	bnez	a5,1a8e8 <_vfiprintf_r+0xbe0>
   1a1ec:	ff048493          	addi	s1,s1,-16
   1a1f0:	00000613          	li	a2,0
   1a1f4:	00100513          	li	a0,1
   1a1f8:	000c0693          	mv	a3,s8
   1a1fc:	fc93c8e3          	blt	t2,s1,1a1cc <_vfiprintf_r+0x4c4>
   1a200:	00040313          	mv	t1,s0
   1a204:	01c12403          	lw	s0,28(sp)
   1a208:	009787b3          	add	a5,a5,s1
   1a20c:	00700713          	li	a4,7
   1a210:	0066a023          	sw	t1,0(a3)
   1a214:	0096a223          	sw	s1,4(a3)
   1a218:	04f12223          	sw	a5,68(sp)
   1a21c:	04a12023          	sw	a0,64(sp)
   1a220:	0aa744e3          	blt	a4,a0,1aac8 <_vfiprintf_r+0xdc0>
   1a224:	408d8db3          	sub	s11,s11,s0
   1a228:	00868693          	addi	a3,a3,8
   1a22c:	00150593          	addi	a1,a0,1
   1a230:	00050613          	mv	a2,a0
   1a234:	49b04063          	bgtz	s11,1a6b4 <_vfiprintf_r+0x9ac>
   1a238:	00f407b3          	add	a5,s0,a5
   1a23c:	00700713          	li	a4,7
   1a240:	0136a023          	sw	s3,0(a3)
   1a244:	0086a223          	sw	s0,4(a3)
   1a248:	04f12223          	sw	a5,68(sp)
   1a24c:	04b12023          	sw	a1,64(sp)
   1a250:	56b75e63          	ble	a1,a4,1a7cc <_vfiprintf_r+0xac4>
   1a254:	7c079863          	bnez	a5,1aa24 <_vfiprintf_r+0xd1c>
   1a258:	00497893          	andi	a7,s2,4
   1a25c:	04012023          	sw	zero,64(sp)
   1a260:	78088a63          	beqz	a7,1a9f4 <_vfiprintf_r+0xcec>
   1a264:	41ab0433          	sub	s0,s6,s10
   1a268:	1a804ee3          	bgtz	s0,1ac24 <_vfiprintf_r+0xf1c>
   1a26c:	01ab5463          	ble	s10,s6,1a274 <_vfiprintf_r+0x56c>
   1a270:	000d0b13          	mv	s6,s10
   1a274:	01812703          	lw	a4,24(sp)
   1a278:	01670733          	add	a4,a4,s6
   1a27c:	00e12c23          	sw	a4,24(sp)
   1a280:	04012023          	sw	zero,64(sp)
   1a284:	000c0693          	mv	a3,s8
   1a288:	b6dff06f          	j	19df4 <_vfiprintf_r+0xec>
   1a28c:	00100513          	li	a0,1
   1a290:	02b00293          	li	t0,43
   1a294:	000a8493          	mv	s1,s5
   1a298:	bf5ff06f          	j	19e8c <_vfiprintf_r+0x184>
   1a29c:	08096913          	ori	s2,s2,128
   1a2a0:	000a8493          	mv	s1,s5
   1a2a4:	be9ff06f          	j	19e8c <_vfiprintf_r+0x184>
   1a2a8:	00000b13          	li	s6,0
   1a2ac:	fd070793          	addi	a5,a4,-48
   1a2b0:	001a8a93          	addi	s5,s5,1
   1a2b4:	fffac703          	lbu	a4,-1(s5)
   1a2b8:	001b1813          	slli	a6,s6,0x1
   1a2bc:	003b1b13          	slli	s6,s6,0x3
   1a2c0:	01680b33          	add	s6,a6,s6
   1a2c4:	01678b33          	add	s6,a5,s6
   1a2c8:	fd070793          	addi	a5,a4,-48
   1a2cc:	fef5f2e3          	bleu	a5,a1,1a2b0 <_vfiprintf_r+0x5a8>
   1a2d0:	bc5ff06f          	j	19e94 <_vfiprintf_r+0x18c>
   1a2d4:	280516e3          	bnez	a0,1ad60 <_vfiprintf_r+0x1058>
   1a2d8:	01096913          	ori	s2,s2,16
   1a2dc:	01097793          	andi	a5,s2,16
   1a2e0:	70079063          	bnez	a5,1a9e0 <_vfiprintf_r+0xcd8>
   1a2e4:	04097793          	andi	a5,s2,64
   1a2e8:	6e078c63          	beqz	a5,1a9e0 <_vfiprintf_r+0xcd8>
   1a2ec:	01412803          	lw	a6,20(sp)
   1a2f0:	00081783          	lh	a5,0(a6)
   1a2f4:	00480813          	addi	a6,a6,4
   1a2f8:	01012a23          	sw	a6,20(sp)
   1a2fc:	0607c8e3          	bltz	a5,1ab6c <_vfiprintf_r+0xe64>
   1a300:	03714583          	lbu	a1,55(sp)
   1a304:	680dca63          	bltz	s11,1a998 <_vfiprintf_r+0xc90>
   1a308:	f7f97913          	andi	s2,s2,-129
   1a30c:	10079663          	bnez	a5,1a418 <_vfiprintf_r+0x710>
   1a310:	1a0d92e3          	bnez	s11,1acb4 <_vfiprintf_r+0xfac>
   1a314:	00000d93          	li	s11,0
   1a318:	00000413          	li	s0,0
   1a31c:	07010993          	addi	s3,sp,112
   1a320:	d4dff06f          	j	1a06c <_vfiprintf_r+0x364>
   1a324:	240516e3          	bnez	a0,1ad70 <_vfiprintf_r+0x1068>
   1a328:	01096913          	ori	s2,s2,16
   1a32c:	01097793          	andi	a5,s2,16
   1a330:	68079463          	bnez	a5,1a9b8 <_vfiprintf_r+0xcb0>
   1a334:	04097793          	andi	a5,s2,64
   1a338:	68078063          	beqz	a5,1a9b8 <_vfiprintf_r+0xcb0>
   1a33c:	01412803          	lw	a6,20(sp)
   1a340:	02010ba3          	sb	zero,55(sp)
   1a344:	00480713          	addi	a4,a6,4
   1a348:	00085783          	lhu	a5,0(a6)
   1a34c:	680dc063          	bltz	s11,1a9cc <_vfiprintf_r+0xcc4>
   1a350:	f7f97913          	andi	s2,s2,-129
   1a354:	00e12a23          	sw	a4,20(sp)
   1a358:	68079063          	bnez	a5,1a9d8 <_vfiprintf_r+0xcd0>
   1a35c:	00000593          	li	a1,0
   1a360:	00000793          	li	a5,0
   1a364:	220d82e3          	beqz	s11,1ad88 <_vfiprintf_r+0x1080>
   1a368:	07010993          	addi	s3,sp,112
   1a36c:	0077f713          	andi	a4,a5,7
   1a370:	fff98993          	addi	s3,s3,-1
   1a374:	03070713          	addi	a4,a4,48
   1a378:	0037d793          	srli	a5,a5,0x3
   1a37c:	00e98023          	sb	a4,0(s3)
   1a380:	fe0796e3          	bnez	a5,1a36c <_vfiprintf_r+0x664>
   1a384:	00197793          	andi	a5,s2,1
   1a388:	0c078263          	beqz	a5,1a44c <_vfiprintf_r+0x744>
   1a38c:	03000793          	li	a5,48
   1a390:	ccf70ae3          	beq	a4,a5,1a064 <_vfiprintf_r+0x35c>
   1a394:	01012803          	lw	a6,16(sp)
   1a398:	fff98713          	addi	a4,s3,-1
   1a39c:	fef98fa3          	sb	a5,-1(s3)
   1a3a0:	40e80433          	sub	s0,a6,a4
   1a3a4:	00070993          	mv	s3,a4
   1a3a8:	cc5ff06f          	j	1a06c <_vfiprintf_r+0x364>
   1a3ac:	1c051ae3          	bnez	a0,1ad80 <_vfiprintf_r+0x1078>
   1a3b0:	01097793          	andi	a5,s2,16
   1a3b4:	24079863          	bnez	a5,1a604 <_vfiprintf_r+0x8fc>
   1a3b8:	04097893          	andi	a7,s2,64
   1a3bc:	24088463          	beqz	a7,1a604 <_vfiprintf_r+0x8fc>
   1a3c0:	01412803          	lw	a6,20(sp)
   1a3c4:	01812703          	lw	a4,24(sp)
   1a3c8:	00082783          	lw	a5,0(a6)
   1a3cc:	00480813          	addi	a6,a6,4
   1a3d0:	01012a23          	sw	a6,20(sp)
   1a3d4:	00e79023          	sh	a4,0(a5)
   1a3d8:	a1dff06f          	j	19df4 <_vfiprintf_r+0xec>
   1a3dc:	18051ee3          	bnez	a0,1ad78 <_vfiprintf_r+0x1070>
   1a3e0:	01096913          	ori	s2,s2,16
   1a3e4:	01097793          	andi	a5,s2,16
   1a3e8:	58079a63          	bnez	a5,1a97c <_vfiprintf_r+0xc74>
   1a3ec:	04097793          	andi	a5,s2,64
   1a3f0:	58078663          	beqz	a5,1a97c <_vfiprintf_r+0xc74>
   1a3f4:	01412803          	lw	a6,20(sp)
   1a3f8:	02010ba3          	sb	zero,55(sp)
   1a3fc:	00480713          	addi	a4,a6,4
   1a400:	00085783          	lhu	a5,0(a6)
   1a404:	580dc663          	bltz	s11,1a990 <_vfiprintf_r+0xc88>
   1a408:	f7f97913          	andi	s2,s2,-129
   1a40c:	00e12a23          	sw	a4,20(sp)
   1a410:	00000593          	li	a1,0
   1a414:	ee078ee3          	beqz	a5,1a310 <_vfiprintf_r+0x608>
   1a418:	00900293          	li	t0,9
   1a41c:	07010613          	addi	a2,sp,112
   1a420:	00a00513          	li	a0,10
   1a424:	00f2fe63          	bleu	a5,t0,1a440 <_vfiprintf_r+0x738>
   1a428:	02a7f733          	remu	a4,a5,a0
   1a42c:	fff60613          	addi	a2,a2,-1
   1a430:	02a7d7b3          	divu	a5,a5,a0
   1a434:	03070713          	addi	a4,a4,48
   1a438:	00e60023          	sb	a4,0(a2)
   1a43c:	fef2e6e3          	bltu	t0,a5,1a428 <_vfiprintf_r+0x720>
   1a440:	03078793          	addi	a5,a5,48
   1a444:	fff60993          	addi	s3,a2,-1
   1a448:	fef60fa3          	sb	a5,-1(a2)
   1a44c:	01012703          	lw	a4,16(sp)
   1a450:	41370433          	sub	s0,a4,s3
   1a454:	c19ff06f          	j	1a06c <_vfiprintf_r+0x364>
   1a458:	000ac703          	lbu	a4,0(s5)
   1a45c:	001a8a93          	addi	s5,s5,1
   1a460:	0c670ce3          	beq	a4,t1,1ad38 <_vfiprintf_r+0x1030>
   1a464:	fd070793          	addi	a5,a4,-48
   1a468:	00000d93          	li	s11,0
   1a46c:	a2f5e4e3          	bltu	a1,a5,19e94 <_vfiprintf_r+0x18c>
   1a470:	001a8a93          	addi	s5,s5,1
   1a474:	fffac703          	lbu	a4,-1(s5)
   1a478:	001d9813          	slli	a6,s11,0x1
   1a47c:	003d9d93          	slli	s11,s11,0x3
   1a480:	01b80db3          	add	s11,a6,s11
   1a484:	01b78db3          	add	s11,a5,s11
   1a488:	fd070793          	addi	a5,a4,-48
   1a48c:	fef5f2e3          	bleu	a5,a1,1a470 <_vfiprintf_r+0x768>
   1a490:	a00dd2e3          	bgez	s11,19e94 <_vfiprintf_r+0x18c>
   1a494:	fff00d93          	li	s11,-1
   1a498:	9fdff06f          	j	19e94 <_vfiprintf_r+0x18c>
   1a49c:	04096913          	ori	s2,s2,64
   1a4a0:	000a8493          	mv	s1,s5
   1a4a4:	9e9ff06f          	j	19e8c <_vfiprintf_r+0x184>
   1a4a8:	0c0510e3          	bnez	a0,1ad68 <_vfiprintf_r+0x1060>
   1a4ac:	0001c9b7          	lui	s3,0x1c
   1a4b0:	2f898993          	addi	s3,s3,760 # 1c2f8 <zeroes.3949+0x3c>
   1a4b4:	01097793          	andi	a5,s2,16
   1a4b8:	03312023          	sw	s3,32(sp)
   1a4bc:	10078463          	beqz	a5,1a5c4 <_vfiprintf_r+0x8bc>
   1a4c0:	01412803          	lw	a6,20(sp)
   1a4c4:	00082783          	lw	a5,0(a6)
   1a4c8:	00480813          	addi	a6,a6,4
   1a4cc:	01012a23          	sw	a6,20(sp)
   1a4d0:	00197613          	andi	a2,s2,1
   1a4d4:	52060c63          	beqz	a2,1aa0c <_vfiprintf_r+0xd04>
   1a4d8:	66079663          	bnez	a5,1ab44 <_vfiprintf_r+0xe3c>
   1a4dc:	02010ba3          	sb	zero,55(sp)
   1a4e0:	620dce63          	bltz	s11,1ab1c <_vfiprintf_r+0xe14>
   1a4e4:	f7f97913          	andi	s2,s2,-129
   1a4e8:	b4dff06f          	j	1a034 <_vfiprintf_r+0x32c>
   1a4ec:	e40500e3          	beqz	a0,1a32c <_vfiprintf_r+0x624>
   1a4f0:	02510ba3          	sb	t0,55(sp)
   1a4f4:	e39ff06f          	j	1a32c <_vfiprintf_r+0x624>
   1a4f8:	9c0298e3          	bnez	t0,19ec8 <_vfiprintf_r+0x1c0>
   1a4fc:	00100513          	li	a0,1
   1a500:	02000293          	li	t0,32
   1a504:	000a8493          	mv	s1,s5
   1a508:	985ff06f          	j	19e8c <_vfiprintf_r+0x184>
   1a50c:	00196913          	ori	s2,s2,1
   1a510:	000a8493          	mv	s1,s5
   1a514:	979ff06f          	j	19e8c <_vfiprintf_r+0x184>
   1a518:	01412703          	lw	a4,20(sp)
   1a51c:	02010ba3          	sb	zero,55(sp)
   1a520:	00072983          	lw	s3,0(a4)
   1a524:	00470493          	addi	s1,a4,4
   1a528:	78098c63          	beqz	s3,1acc0 <_vfiprintf_r+0xfb8>
   1a52c:	700dc663          	bltz	s11,1ac38 <_vfiprintf_r+0xf30>
   1a530:	000d8613          	mv	a2,s11
   1a534:	00000593          	li	a1,0
   1a538:	00098513          	mv	a0,s3
   1a53c:	00d12423          	sw	a3,8(sp)
   1a540:	cddfd0ef          	jal	1821c <memchr>
   1a544:	00812683          	lw	a3,8(sp)
   1a548:	7c050a63          	beqz	a0,1ad1c <_vfiprintf_r+0x1014>
   1a54c:	41350533          	sub	a0,a0,s3
   1a550:	000d8413          	mv	s0,s11
   1a554:	6bb54663          	blt	a0,s11,1ac00 <_vfiprintf_r+0xef8>
   1a558:	03714583          	lbu	a1,55(sp)
   1a55c:	00912a23          	sw	s1,20(sp)
   1a560:	00000d93          	li	s11,0
   1a564:	b09ff06f          	j	1a06c <_vfiprintf_r+0x364>
   1a568:	e6050ee3          	beqz	a0,1a3e4 <_vfiprintf_r+0x6dc>
   1a56c:	02510ba3          	sb	t0,55(sp)
   1a570:	e75ff06f          	j	1a3e4 <_vfiprintf_r+0x6dc>
   1a574:	01412803          	lw	a6,20(sp)
   1a578:	00100d13          	li	s10,1
   1a57c:	02010ba3          	sb	zero,55(sp)
   1a580:	00082783          	lw	a5,0(a6)
   1a584:	00480813          	addi	a6,a6,4
   1a588:	01012a23          	sw	a6,20(sp)
   1a58c:	04f10423          	sb	a5,72(sp)
   1a590:	000d0413          	mv	s0,s10
   1a594:	04810993          	addi	s3,sp,72
   1a598:	00000d93          	li	s11,0
   1a59c:	ae5ff06f          	j	1a080 <_vfiprintf_r+0x378>
   1a5a0:	d2050ee3          	beqz	a0,1a2dc <_vfiprintf_r+0x5d4>
   1a5a4:	02510ba3          	sb	t0,55(sp)
   1a5a8:	d35ff06f          	j	1a2dc <_vfiprintf_r+0x5d4>
   1a5ac:	000518e3          	bnez	a0,1adbc <_vfiprintf_r+0x10b4>
   1a5b0:	0001c9b7          	lui	s3,0x1c
   1a5b4:	2e498993          	addi	s3,s3,740 # 1c2e4 <zeroes.3949+0x28>
   1a5b8:	01097793          	andi	a5,s2,16
   1a5bc:	03312023          	sw	s3,32(sp)
   1a5c0:	f00790e3          	bnez	a5,1a4c0 <_vfiprintf_r+0x7b8>
   1a5c4:	04097793          	andi	a5,s2,64
   1a5c8:	01412803          	lw	a6,20(sp)
   1a5cc:	5c078e63          	beqz	a5,1aba8 <_vfiprintf_r+0xea0>
   1a5d0:	00085783          	lhu	a5,0(a6)
   1a5d4:	00480813          	addi	a6,a6,4
   1a5d8:	01012a23          	sw	a6,20(sp)
   1a5dc:	ef5ff06f          	j	1a4d0 <_vfiprintf_r+0x7c8>
   1a5e0:	7c051a63          	bnez	a0,1adb4 <_vfiprintf_r+0x10ac>
   1a5e4:	18070e63          	beqz	a4,1a780 <_vfiprintf_r+0xa78>
   1a5e8:	00100d13          	li	s10,1
   1a5ec:	04e10423          	sb	a4,72(sp)
   1a5f0:	02010ba3          	sb	zero,55(sp)
   1a5f4:	000d0413          	mv	s0,s10
   1a5f8:	04810993          	addi	s3,sp,72
   1a5fc:	00000d93          	li	s11,0
   1a600:	a81ff06f          	j	1a080 <_vfiprintf_r+0x378>
   1a604:	01412803          	lw	a6,20(sp)
   1a608:	01812703          	lw	a4,24(sp)
   1a60c:	00082783          	lw	a5,0(a6)
   1a610:	00480813          	addi	a6,a6,4
   1a614:	01012a23          	sw	a6,20(sp)
   1a618:	00e7a023          	sw	a4,0(a5)
   1a61c:	fd8ff06f          	j	19df4 <_vfiprintf_r+0xec>
   1a620:	03c10613          	addi	a2,sp,60
   1a624:	000c8593          	mv	a1,s9
   1a628:	000a0513          	mv	a0,s4
   1a62c:	01c12223          	sw	t3,4(sp)
   1a630:	01d12423          	sw	t4,8(sp)
   1a634:	dd4ff0ef          	jal	19c08 <__sprint_r.part.0>
   1a638:	00412e03          	lw	t3,4(sp)
   1a63c:	00812e83          	lw	t4,8(sp)
   1a640:	14051c63          	bnez	a0,1a798 <_vfiprintf_r+0xa90>
   1a644:	04012583          	lw	a1,64(sp)
   1a648:	04412783          	lw	a5,68(sp)
   1a64c:	000c0693          	mv	a3,s8
   1a650:	00158613          	addi	a2,a1,1
   1a654:	a81ff06f          	j	1a0d4 <_vfiprintf_r+0x3cc>
   1a658:	04012603          	lw	a2,64(sp)
   1a65c:	04412783          	lw	a5,68(sp)
   1a660:	00160593          	addi	a1,a2,1
   1a664:	03714703          	lbu	a4,55(sp)
   1a668:	ae0704e3          	beqz	a4,1a150 <_vfiprintf_r+0x448>
   1a66c:	00100713          	li	a4,1
   1a670:	03710613          	addi	a2,sp,55
   1a674:	00e787b3          	add	a5,a5,a4
   1a678:	00c6a023          	sw	a2,0(a3)
   1a67c:	00700613          	li	a2,7
   1a680:	00e6a223          	sw	a4,4(a3)
   1a684:	04f12223          	sw	a5,68(sp)
   1a688:	04b12023          	sw	a1,64(sp)
   1a68c:	2ab65c63          	ble	a1,a2,1a944 <_vfiprintf_r+0xc3c>
   1a690:	40079063          	bnez	a5,1aa90 <_vfiprintf_r+0xd88>
   1a694:	2c039063          	bnez	t2,1a954 <_vfiprintf_r+0xc4c>
   1a698:	00000613          	li	a2,0
   1a69c:	00070593          	mv	a1,a4
   1a6a0:	000c0693          	mv	a3,s8
   1a6a4:	08000713          	li	a4,128
   1a6a8:	aee304e3          	beq	t1,a4,1a190 <_vfiprintf_r+0x488>
   1a6ac:	408d8db3          	sub	s11,s11,s0
   1a6b0:	b9b054e3          	blez	s11,1a238 <_vfiprintf_r+0x530>
   1a6b4:	01000713          	li	a4,16
   1a6b8:	57b75a63          	ble	s11,a4,1ac2c <_vfiprintf_r+0xf24>
   1a6bc:	0001c837          	lui	a6,0x1c
   1a6c0:	2bc80313          	addi	t1,a6,700 # 1c2bc <zeroes.3949>
   1a6c4:	00812e23          	sw	s0,28(sp)
   1a6c8:	00070493          	mv	s1,a4
   1a6cc:	00700393          	li	t2,7
   1a6d0:	00030413          	mv	s0,t1
   1a6d4:	0180006f          	j	1a6ec <_vfiprintf_r+0x9e4>
   1a6d8:	00260593          	addi	a1,a2,2
   1a6dc:	00868693          	addi	a3,a3,8
   1a6e0:	00070613          	mv	a2,a4
   1a6e4:	ff0d8d93          	addi	s11,s11,-16
   1a6e8:	03b4dc63          	ble	s11,s1,1a720 <_vfiprintf_r+0xa18>
   1a6ec:	01078793          	addi	a5,a5,16
   1a6f0:	00160713          	addi	a4,a2,1
   1a6f4:	0086a023          	sw	s0,0(a3)
   1a6f8:	0096a223          	sw	s1,4(a3)
   1a6fc:	04f12223          	sw	a5,68(sp)
   1a700:	04e12023          	sw	a4,64(sp)
   1a704:	fce3dae3          	ble	a4,t2,1a6d8 <_vfiprintf_r+0x9d0>
   1a708:	04079463          	bnez	a5,1a750 <_vfiprintf_r+0xa48>
   1a70c:	ff0d8d93          	addi	s11,s11,-16
   1a710:	00000613          	li	a2,0
   1a714:	00100593          	li	a1,1
   1a718:	000c0693          	mv	a3,s8
   1a71c:	fdb4c8e3          	blt	s1,s11,1a6ec <_vfiprintf_r+0x9e4>
   1a720:	00040313          	mv	t1,s0
   1a724:	01c12403          	lw	s0,28(sp)
   1a728:	01b787b3          	add	a5,a5,s11
   1a72c:	00700713          	li	a4,7
   1a730:	0066a023          	sw	t1,0(a3)
   1a734:	01b6a223          	sw	s11,4(a3)
   1a738:	04f12223          	sw	a5,68(sp)
   1a73c:	04b12023          	sw	a1,64(sp)
   1a740:	06b74663          	blt	a4,a1,1a7ac <_vfiprintf_r+0xaa4>
   1a744:	00868693          	addi	a3,a3,8
   1a748:	00158593          	addi	a1,a1,1
   1a74c:	aedff06f          	j	1a238 <_vfiprintf_r+0x530>
   1a750:	03c10613          	addi	a2,sp,60
   1a754:	000c8593          	mv	a1,s9
   1a758:	000a0513          	mv	a0,s4
   1a75c:	00712023          	sw	t2,0(sp)
   1a760:	ca8ff0ef          	jal	19c08 <__sprint_r.part.0>
   1a764:	00012383          	lw	t2,0(sp)
   1a768:	02051863          	bnez	a0,1a798 <_vfiprintf_r+0xa90>
   1a76c:	04012603          	lw	a2,64(sp)
   1a770:	04412783          	lw	a5,68(sp)
   1a774:	000c0693          	mv	a3,s8
   1a778:	00160593          	addi	a1,a2,1
   1a77c:	f69ff06f          	j	1a6e4 <_vfiprintf_r+0x9dc>
   1a780:	04412783          	lw	a5,68(sp)
   1a784:	00078a63          	beqz	a5,1a798 <_vfiprintf_r+0xa90>
   1a788:	03c10613          	addi	a2,sp,60
   1a78c:	000c8593          	mv	a1,s9
   1a790:	000a0513          	mv	a0,s4
   1a794:	c74ff0ef          	jal	19c08 <__sprint_r.part.0>
   1a798:	00ccd783          	lhu	a5,12(s9)
   1a79c:	0407f793          	andi	a5,a5,64
   1a7a0:	44079863          	bnez	a5,1abf0 <_vfiprintf_r+0xee8>
   1a7a4:	01812503          	lw	a0,24(sp)
   1a7a8:	fe0ff06f          	j	19f88 <_vfiprintf_r+0x280>
   1a7ac:	32079863          	bnez	a5,1aadc <_vfiprintf_r+0xdd4>
   1a7b0:	00100793          	li	a5,1
   1a7b4:	04f12023          	sw	a5,64(sp)
   1a7b8:	0b312823          	sw	s3,176(sp)
   1a7bc:	0a812a23          	sw	s0,180(sp)
   1a7c0:	04812223          	sw	s0,68(sp)
   1a7c4:	00040793          	mv	a5,s0
   1a7c8:	000c0693          	mv	a3,s8
   1a7cc:	00868693          	addi	a3,a3,8
   1a7d0:	00497893          	andi	a7,s2,4
   1a7d4:	0e088263          	beqz	a7,1a8b8 <_vfiprintf_r+0xbb0>
   1a7d8:	41ab0433          	sub	s0,s6,s10
   1a7dc:	0c805e63          	blez	s0,1a8b8 <_vfiprintf_r+0xbb0>
   1a7e0:	01000493          	li	s1,16
   1a7e4:	5084dc63          	ble	s0,s1,1acfc <_vfiprintf_r+0xff4>
   1a7e8:	04012603          	lw	a2,64(sp)
   1a7ec:	01712e23          	sw	s7,28(sp)
   1a7f0:	00700d93          	li	s11,7
   1a7f4:	0180006f          	j	1a80c <_vfiprintf_r+0xb04>
   1a7f8:	00260593          	addi	a1,a2,2
   1a7fc:	00868693          	addi	a3,a3,8
   1a800:	00070613          	mv	a2,a4
   1a804:	ff040413          	addi	s0,s0,-16
   1a808:	0284dc63          	ble	s0,s1,1a840 <_vfiprintf_r+0xb38>
   1a80c:	01078793          	addi	a5,a5,16
   1a810:	00160713          	addi	a4,a2,1
   1a814:	0176a023          	sw	s7,0(a3)
   1a818:	0096a223          	sw	s1,4(a3)
   1a81c:	04f12223          	sw	a5,68(sp)
   1a820:	04e12023          	sw	a4,64(sp)
   1a824:	fceddae3          	ble	a4,s11,1a7f8 <_vfiprintf_r+0xaf0>
   1a828:	04079863          	bnez	a5,1a878 <_vfiprintf_r+0xb70>
   1a82c:	ff040413          	addi	s0,s0,-16
   1a830:	00000613          	li	a2,0
   1a834:	00100593          	li	a1,1
   1a838:	000c0693          	mv	a3,s8
   1a83c:	fc84c8e3          	blt	s1,s0,1a80c <_vfiprintf_r+0xb04>
   1a840:	01c12703          	lw	a4,28(sp)
   1a844:	008787b3          	add	a5,a5,s0
   1a848:	0086a223          	sw	s0,4(a3)
   1a84c:	00e6a023          	sw	a4,0(a3)
   1a850:	00700713          	li	a4,7
   1a854:	04f12223          	sw	a5,68(sp)
   1a858:	04b12023          	sw	a1,64(sp)
   1a85c:	04b75e63          	ble	a1,a4,1a8b8 <_vfiprintf_r+0xbb0>
   1a860:	04079063          	bnez	a5,1a8a0 <_vfiprintf_r+0xb98>
   1a864:	39ab4a63          	blt	s6,s10,1abf8 <_vfiprintf_r+0xef0>
   1a868:	01812783          	lw	a5,24(sp)
   1a86c:	016787b3          	add	a5,a5,s6
   1a870:	00f12c23          	sw	a5,24(sp)
   1a874:	a0dff06f          	j	1a280 <_vfiprintf_r+0x578>
   1a878:	03c10613          	addi	a2,sp,60
   1a87c:	000c8593          	mv	a1,s9
   1a880:	000a0513          	mv	a0,s4
   1a884:	b84ff0ef          	jal	19c08 <__sprint_r.part.0>
   1a888:	f00518e3          	bnez	a0,1a798 <_vfiprintf_r+0xa90>
   1a88c:	04012603          	lw	a2,64(sp)
   1a890:	04412783          	lw	a5,68(sp)
   1a894:	000c0693          	mv	a3,s8
   1a898:	00160593          	addi	a1,a2,1
   1a89c:	f69ff06f          	j	1a804 <_vfiprintf_r+0xafc>
   1a8a0:	03c10613          	addi	a2,sp,60
   1a8a4:	000c8593          	mv	a1,s9
   1a8a8:	000a0513          	mv	a0,s4
   1a8ac:	b5cff0ef          	jal	19c08 <__sprint_r.part.0>
   1a8b0:	ee0514e3          	bnez	a0,1a798 <_vfiprintf_r+0xa90>
   1a8b4:	04412783          	lw	a5,68(sp)
   1a8b8:	01ab5463          	ble	s10,s6,1a8c0 <_vfiprintf_r+0xbb8>
   1a8bc:	000d0b13          	mv	s6,s10
   1a8c0:	01812803          	lw	a6,24(sp)
   1a8c4:	01680833          	add	a6,a6,s6
   1a8c8:	01012c23          	sw	a6,24(sp)
   1a8cc:	9a078ae3          	beqz	a5,1a280 <_vfiprintf_r+0x578>
   1a8d0:	03c10613          	addi	a2,sp,60
   1a8d4:	000c8593          	mv	a1,s9
   1a8d8:	000a0513          	mv	a0,s4
   1a8dc:	b2cff0ef          	jal	19c08 <__sprint_r.part.0>
   1a8e0:	9a0500e3          	beqz	a0,1a280 <_vfiprintf_r+0x578>
   1a8e4:	eb5ff06f          	j	1a798 <_vfiprintf_r+0xa90>
   1a8e8:	03c10613          	addi	a2,sp,60
   1a8ec:	000c8593          	mv	a1,s9
   1a8f0:	000a0513          	mv	a0,s4
   1a8f4:	00712023          	sw	t2,0(sp)
   1a8f8:	01c12223          	sw	t3,4(sp)
   1a8fc:	b0cff0ef          	jal	19c08 <__sprint_r.part.0>
   1a900:	00012383          	lw	t2,0(sp)
   1a904:	00412e03          	lw	t3,4(sp)
   1a908:	e80518e3          	bnez	a0,1a798 <_vfiprintf_r+0xa90>
   1a90c:	04012603          	lw	a2,64(sp)
   1a910:	04412783          	lw	a5,68(sp)
   1a914:	000c0693          	mv	a3,s8
   1a918:	00160513          	addi	a0,a2,1
   1a91c:	8a9ff06f          	j	1a1c4 <_vfiprintf_r+0x4bc>
   1a920:	28079c63          	bnez	a5,1abb8 <_vfiprintf_r+0xeb0>
   1a924:	03714783          	lbu	a5,55(sp)
   1a928:	26078063          	beqz	a5,1ab88 <_vfiprintf_r+0xe80>
   1a92c:	00100793          	li	a5,1
   1a930:	03710713          	addi	a4,sp,55
   1a934:	00078593          	mv	a1,a5
   1a938:	0ae12823          	sw	a4,176(sp)
   1a93c:	0af12a23          	sw	a5,180(sp)
   1a940:	000c0693          	mv	a3,s8
   1a944:	00058613          	mv	a2,a1
   1a948:	00868693          	addi	a3,a3,8
   1a94c:	00158593          	addi	a1,a1,1
   1a950:	801ff06f          	j	1a150 <_vfiprintf_r+0x448>
   1a954:	03810693          	addi	a3,sp,56
   1a958:	00200793          	li	a5,2
   1a95c:	0ad12823          	sw	a3,176(sp)
   1a960:	0af12a23          	sw	a5,180(sp)
   1a964:	00070593          	mv	a1,a4
   1a968:	000c0693          	mv	a3,s8
   1a96c:	00058613          	mv	a2,a1
   1a970:	00868693          	addi	a3,a3,8
   1a974:	00158593          	addi	a1,a1,1
   1a978:	d2dff06f          	j	1a6a4 <_vfiprintf_r+0x99c>
   1a97c:	01412783          	lw	a5,20(sp)
   1a980:	00478713          	addi	a4,a5,4
   1a984:	0007a783          	lw	a5,0(a5)
   1a988:	02010ba3          	sb	zero,55(sp)
   1a98c:	a60ddee3          	bgez	s11,1a408 <_vfiprintf_r+0x700>
   1a990:	00e12a23          	sw	a4,20(sp)
   1a994:	00000593          	li	a1,0
   1a998:	a80790e3          	bnez	a5,1a418 <_vfiprintf_r+0x710>
   1a99c:	00100793          	li	a5,1
   1a9a0:	00100713          	li	a4,1
   1a9a4:	30e78863          	beq	a5,a4,1acb4 <_vfiprintf_r+0xfac>
   1a9a8:	00200713          	li	a4,2
   1a9ac:	26e78863          	beq	a5,a4,1ac1c <_vfiprintf_r+0xf14>
   1a9b0:	00000793          	li	a5,0
   1a9b4:	9b5ff06f          	j	1a368 <_vfiprintf_r+0x660>
   1a9b8:	01412783          	lw	a5,20(sp)
   1a9bc:	00478713          	addi	a4,a5,4
   1a9c0:	0007a783          	lw	a5,0(a5)
   1a9c4:	02010ba3          	sb	zero,55(sp)
   1a9c8:	980dd4e3          	bgez	s11,1a350 <_vfiprintf_r+0x648>
   1a9cc:	00e12a23          	sw	a4,20(sp)
   1a9d0:	00000593          	li	a1,0
   1a9d4:	fc0786e3          	beqz	a5,1a9a0 <_vfiprintf_r+0xc98>
   1a9d8:	00000593          	li	a1,0
   1a9dc:	98dff06f          	j	1a368 <_vfiprintf_r+0x660>
   1a9e0:	01412703          	lw	a4,20(sp)
   1a9e4:	00072783          	lw	a5,0(a4)
   1a9e8:	00470713          	addi	a4,a4,4
   1a9ec:	00e12a23          	sw	a4,20(sp)
   1a9f0:	90dff06f          	j	1a2fc <_vfiprintf_r+0x5f4>
   1a9f4:	01ab5463          	ble	s10,s6,1a9fc <_vfiprintf_r+0xcf4>
   1a9f8:	000d0b13          	mv	s6,s10
   1a9fc:	01812683          	lw	a3,24(sp)
   1aa00:	016686b3          	add	a3,a3,s6
   1aa04:	00d12c23          	sw	a3,24(sp)
   1aa08:	879ff06f          	j	1a280 <_vfiprintf_r+0x578>
   1aa0c:	02010ba3          	sb	zero,55(sp)
   1aa10:	100dc463          	bltz	s11,1ab18 <_vfiprintf_r+0xe10>
   1aa14:	f7f97913          	andi	s2,s2,-129
   1aa18:	e0078e63          	beqz	a5,1a034 <_vfiprintf_r+0x32c>
   1aa1c:	00000593          	li	a1,0
   1aa20:	e20ff06f          	j	1a040 <_vfiprintf_r+0x338>
   1aa24:	03c10613          	addi	a2,sp,60
   1aa28:	000c8593          	mv	a1,s9
   1aa2c:	000a0513          	mv	a0,s4
   1aa30:	9d8ff0ef          	jal	19c08 <__sprint_r.part.0>
   1aa34:	d60512e3          	bnez	a0,1a798 <_vfiprintf_r+0xa90>
   1aa38:	04412783          	lw	a5,68(sp)
   1aa3c:	000c0693          	mv	a3,s8
   1aa40:	d91ff06f          	j	1a7d0 <_vfiprintf_r+0xac8>
   1aa44:	03c10613          	addi	a2,sp,60
   1aa48:	000c8593          	mv	a1,s9
   1aa4c:	000a0513          	mv	a0,s4
   1aa50:	9b8ff0ef          	jal	19c08 <__sprint_r.part.0>
   1aa54:	d40512e3          	bnez	a0,1a798 <_vfiprintf_r+0xa90>
   1aa58:	000c0693          	mv	a3,s8
   1aa5c:	bf4ff06f          	j	19e50 <_vfiprintf_r+0x148>
   1aa60:	03c10613          	addi	a2,sp,60
   1aa64:	000c8593          	mv	a1,s9
   1aa68:	000a0513          	mv	a0,s4
   1aa6c:	00612423          	sw	t1,8(sp)
   1aa70:	998ff0ef          	jal	19c08 <__sprint_r.part.0>
   1aa74:	00812303          	lw	t1,8(sp)
   1aa78:	d20510e3          	bnez	a0,1a798 <_vfiprintf_r+0xa90>
   1aa7c:	04012603          	lw	a2,64(sp)
   1aa80:	04412783          	lw	a5,68(sp)
   1aa84:	000c0693          	mv	a3,s8
   1aa88:	00160593          	addi	a1,a2,1
   1aa8c:	c19ff06f          	j	1a6a4 <_vfiprintf_r+0x99c>
   1aa90:	03c10613          	addi	a2,sp,60
   1aa94:	000c8593          	mv	a1,s9
   1aa98:	000a0513          	mv	a0,s4
   1aa9c:	00612423          	sw	t1,8(sp)
   1aaa0:	00712023          	sw	t2,0(sp)
   1aaa4:	964ff0ef          	jal	19c08 <__sprint_r.part.0>
   1aaa8:	00812303          	lw	t1,8(sp)
   1aaac:	00012383          	lw	t2,0(sp)
   1aab0:	ce0514e3          	bnez	a0,1a798 <_vfiprintf_r+0xa90>
   1aab4:	04012603          	lw	a2,64(sp)
   1aab8:	04412783          	lw	a5,68(sp)
   1aabc:	000c0693          	mv	a3,s8
   1aac0:	00160593          	addi	a1,a2,1
   1aac4:	e8cff06f          	j	1a150 <_vfiprintf_r+0x448>
   1aac8:	18079a63          	bnez	a5,1ac5c <_vfiprintf_r+0xf54>
   1aacc:	00000613          	li	a2,0
   1aad0:	00100593          	li	a1,1
   1aad4:	000c0693          	mv	a3,s8
   1aad8:	bd5ff06f          	j	1a6ac <_vfiprintf_r+0x9a4>
   1aadc:	03c10613          	addi	a2,sp,60
   1aae0:	000c8593          	mv	a1,s9
   1aae4:	000a0513          	mv	a0,s4
   1aae8:	920ff0ef          	jal	19c08 <__sprint_r.part.0>
   1aaec:	ca0516e3          	bnez	a0,1a798 <_vfiprintf_r+0xa90>
   1aaf0:	04012583          	lw	a1,64(sp)
   1aaf4:	04412783          	lw	a5,68(sp)
   1aaf8:	000c0693          	mv	a3,s8
   1aafc:	00158593          	addi	a1,a1,1
   1ab00:	f38ff06f          	j	1a238 <_vfiprintf_r+0x530>
   1ab04:	0001c9b7          	lui	s3,0x1c
   1ab08:	2f898993          	addi	s3,s3,760 # 1c2f8 <zeroes.3949+0x3c>
   1ab0c:	00e12a23          	sw	a4,20(sp)
   1ab10:	00058913          	mv	s2,a1
   1ab14:	03312023          	sw	s3,32(sp)
   1ab18:	f00792e3          	bnez	a5,1aa1c <_vfiprintf_r+0xd14>
   1ab1c:	00000593          	li	a1,0
   1ab20:	00200793          	li	a5,2
   1ab24:	e7dff06f          	j	1a9a0 <_vfiprintf_r+0xc98>
   1ab28:	0001c9b7          	lui	s3,0x1c
   1ab2c:	2f898993          	addi	s3,s3,760 # 1c2f8 <zeroes.3949+0x3c>
   1ab30:	00000593          	li	a1,0
   1ab34:	03312023          	sw	s3,32(sp)
   1ab38:	d08ff06f          	j	1a040 <_vfiprintf_r+0x338>
   1ab3c:	000a8493          	mv	s1,s5
   1ab40:	b1cff06f          	j	19e5c <_vfiprintf_r+0x154>
   1ab44:	03000613          	li	a2,48
   1ab48:	02e10ca3          	sb	a4,57(sp)
   1ab4c:	02c10c23          	sb	a2,56(sp)
   1ab50:	00296713          	ori	a4,s2,2
   1ab54:	02010ba3          	sb	zero,55(sp)
   1ab58:	120dce63          	bltz	s11,1ac94 <_vfiprintf_r+0xf8c>
   1ab5c:	f7f97893          	andi	a7,s2,-129
   1ab60:	0028e913          	ori	s2,a7,2
   1ab64:	00000593          	li	a1,0
   1ab68:	cd8ff06f          	j	1a040 <_vfiprintf_r+0x338>
   1ab6c:	02d00713          	li	a4,45
   1ab70:	40f007b3          	neg	a5,a5
   1ab74:	02e10ba3          	sb	a4,55(sp)
   1ab78:	160dca63          	bltz	s11,1acec <_vfiprintf_r+0xfe4>
   1ab7c:	f7f97913          	andi	s2,s2,-129
   1ab80:	02d00593          	li	a1,45
   1ab84:	895ff06f          	j	1a418 <_vfiprintf_r+0x710>
   1ab88:	08038063          	beqz	t2,1ac08 <_vfiprintf_r+0xf00>
   1ab8c:	00200793          	li	a5,2
   1ab90:	03810713          	addi	a4,sp,56
   1ab94:	0ae12823          	sw	a4,176(sp)
   1ab98:	0af12a23          	sw	a5,180(sp)
   1ab9c:	00100593          	li	a1,1
   1aba0:	000c0693          	mv	a3,s8
   1aba4:	dc9ff06f          	j	1a96c <_vfiprintf_r+0xc64>
   1aba8:	00082783          	lw	a5,0(a6)
   1abac:	00480813          	addi	a6,a6,4
   1abb0:	01012a23          	sw	a6,20(sp)
   1abb4:	91dff06f          	j	1a4d0 <_vfiprintf_r+0x7c8>
   1abb8:	03c10613          	addi	a2,sp,60
   1abbc:	000c8593          	mv	a1,s9
   1abc0:	000a0513          	mv	a0,s4
   1abc4:	00612423          	sw	t1,8(sp)
   1abc8:	00712023          	sw	t2,0(sp)
   1abcc:	83cff0ef          	jal	19c08 <__sprint_r.part.0>
   1abd0:	00812303          	lw	t1,8(sp)
   1abd4:	00012383          	lw	t2,0(sp)
   1abd8:	bc0510e3          	bnez	a0,1a798 <_vfiprintf_r+0xa90>
   1abdc:	04012603          	lw	a2,64(sp)
   1abe0:	04412783          	lw	a5,68(sp)
   1abe4:	000c0693          	mv	a3,s8
   1abe8:	00160593          	addi	a1,a2,1
   1abec:	a79ff06f          	j	1a664 <_vfiprintf_r+0x95c>
   1abf0:	fff00513          	li	a0,-1
   1abf4:	b94ff06f          	j	19f88 <_vfiprintf_r+0x280>
   1abf8:	000d0b13          	mv	s6,s10
   1abfc:	c6dff06f          	j	1a868 <_vfiprintf_r+0xb60>
   1ac00:	00050413          	mv	s0,a0
   1ac04:	955ff06f          	j	1a558 <_vfiprintf_r+0x850>
   1ac08:	00000613          	li	a2,0
   1ac0c:	00060793          	mv	a5,a2
   1ac10:	00100593          	li	a1,1
   1ac14:	000c0693          	mv	a3,s8
   1ac18:	a8dff06f          	j	1a6a4 <_vfiprintf_r+0x99c>
   1ac1c:	00000793          	li	a5,0
   1ac20:	c20ff06f          	j	1a040 <_vfiprintf_r+0x338>
   1ac24:	000c0693          	mv	a3,s8
   1ac28:	bb9ff06f          	j	1a7e0 <_vfiprintf_r+0xad8>
   1ac2c:	0001c737          	lui	a4,0x1c
   1ac30:	2bc70313          	addi	t1,a4,700 # 1c2bc <zeroes.3949>
   1ac34:	af5ff06f          	j	1a728 <_vfiprintf_r+0xa20>
   1ac38:	00098513          	mv	a0,s3
   1ac3c:	00d12423          	sw	a3,8(sp)
   1ac40:	85df80ef          	jal	1349c <strlen>
   1ac44:	00050413          	mv	s0,a0
   1ac48:	03714583          	lbu	a1,55(sp)
   1ac4c:	00912a23          	sw	s1,20(sp)
   1ac50:	00000d93          	li	s11,0
   1ac54:	00812683          	lw	a3,8(sp)
   1ac58:	c14ff06f          	j	1a06c <_vfiprintf_r+0x364>
   1ac5c:	03c10613          	addi	a2,sp,60
   1ac60:	000c8593          	mv	a1,s9
   1ac64:	000a0513          	mv	a0,s4
   1ac68:	fa1fe0ef          	jal	19c08 <__sprint_r.part.0>
   1ac6c:	b20516e3          	bnez	a0,1a798 <_vfiprintf_r+0xa90>
   1ac70:	04012603          	lw	a2,64(sp)
   1ac74:	04412783          	lw	a5,68(sp)
   1ac78:	000c0693          	mv	a3,s8
   1ac7c:	00160593          	addi	a1,a2,1
   1ac80:	a2dff06f          	j	1a6ac <_vfiprintf_r+0x9a4>
   1ac84:	04012603          	lw	a2,64(sp)
   1ac88:	01712e23          	sw	s7,28(sp)
   1ac8c:	00160613          	addi	a2,a2,1
   1ac90:	c90ff06f          	j	1a120 <_vfiprintf_r+0x418>
   1ac94:	00000593          	li	a1,0
   1ac98:	00200613          	li	a2,2
   1ac9c:	00070913          	mv	s2,a4
   1aca0:	00100713          	li	a4,1
   1aca4:	f6e60a63          	beq	a2,a4,1a418 <_vfiprintf_r+0x710>
   1aca8:	00200713          	li	a4,2
   1acac:	b8e60a63          	beq	a2,a4,1a040 <_vfiprintf_r+0x338>
   1acb0:	eb8ff06f          	j	1a368 <_vfiprintf_r+0x660>
   1acb4:	00000793          	li	a5,0
   1acb8:	07010613          	addi	a2,sp,112
   1acbc:	f84ff06f          	j	1a440 <_vfiprintf_r+0x738>
   1acc0:	00600793          	li	a5,6
   1acc4:	01b7f463          	bleu	s11,a5,1accc <_vfiprintf_r+0xfc4>
   1acc8:	00078d93          	mv	s11,a5
   1accc:	000d8413          	mv	s0,s11
   1acd0:	000d8d13          	mv	s10,s11
   1acd4:	040dce63          	bltz	s11,1ad30 <_vfiprintf_r+0x1028>
   1acd8:	0001c2b7          	lui	t0,0x1c
   1acdc:	00912a23          	sw	s1,20(sp)
   1ace0:	30c28993          	addi	s3,t0,780 # 1c30c <zeroes.3949+0x50>
   1ace4:	00000d93          	li	s11,0
   1ace8:	b98ff06f          	j	1a080 <_vfiprintf_r+0x378>
   1acec:	00090713          	mv	a4,s2
   1acf0:	02d00593          	li	a1,45
   1acf4:	00100613          	li	a2,1
   1acf8:	fa5ff06f          	j	1ac9c <_vfiprintf_r+0xf94>
   1acfc:	04012583          	lw	a1,64(sp)
   1ad00:	01712e23          	sw	s7,28(sp)
   1ad04:	00158593          	addi	a1,a1,1
   1ad08:	b39ff06f          	j	1a840 <_vfiprintf_r+0xb38>
   1ad0c:	0001c637          	lui	a2,0x1c
   1ad10:	00058513          	mv	a0,a1
   1ad14:	2bc60313          	addi	t1,a2,700 # 1c2bc <zeroes.3949>
   1ad18:	cf0ff06f          	j	1a208 <_vfiprintf_r+0x500>
   1ad1c:	000d8413          	mv	s0,s11
   1ad20:	03714583          	lbu	a1,55(sp)
   1ad24:	00912a23          	sw	s1,20(sp)
   1ad28:	00000d93          	li	s11,0
   1ad2c:	b40ff06f          	j	1a06c <_vfiprintf_r+0x364>
   1ad30:	00000d13          	li	s10,0
   1ad34:	fa5ff06f          	j	1acd8 <_vfiprintf_r+0xfd0>
   1ad38:	01412783          	lw	a5,20(sp)
   1ad3c:	0007ad83          	lw	s11,0(a5)
   1ad40:	00478793          	addi	a5,a5,4
   1ad44:	00f12a23          	sw	a5,20(sp)
   1ad48:	980dd063          	bgez	s11,19ec8 <_vfiprintf_r+0x1c0>
   1ad4c:	fff00d93          	li	s11,-1
   1ad50:	000a8493          	mv	s1,s5
   1ad54:	938ff06f          	j	19e8c <_vfiprintf_r+0x184>
   1ad58:	fff00a93          	li	s5,-1
   1ad5c:	a10ff06f          	j	19f6c <_vfiprintf_r+0x264>
   1ad60:	02510ba3          	sb	t0,55(sp)
   1ad64:	d74ff06f          	j	1a2d8 <_vfiprintf_r+0x5d0>
   1ad68:	02510ba3          	sb	t0,55(sp)
   1ad6c:	f40ff06f          	j	1a4ac <_vfiprintf_r+0x7a4>
   1ad70:	02510ba3          	sb	t0,55(sp)
   1ad74:	db4ff06f          	j	1a328 <_vfiprintf_r+0x620>
   1ad78:	02510ba3          	sb	t0,55(sp)
   1ad7c:	e64ff06f          	j	1a3e0 <_vfiprintf_r+0x6d8>
   1ad80:	02510ba3          	sb	t0,55(sp)
   1ad84:	e2cff06f          	j	1a3b0 <_vfiprintf_r+0x6a8>
   1ad88:	00197793          	andi	a5,s2,1
   1ad8c:	000d8593          	mv	a1,s11
   1ad90:	00078c63          	beqz	a5,1ada8 <_vfiprintf_r+0x10a0>
   1ad94:	03000793          	li	a5,48
   1ad98:	06f107a3          	sb	a5,111(sp)
   1ad9c:	02c12403          	lw	s0,44(sp)
   1ada0:	06f10993          	addi	s3,sp,111
   1ada4:	ac8ff06f          	j	1a06c <_vfiprintf_r+0x364>
   1ada8:	00000413          	li	s0,0
   1adac:	07010993          	addi	s3,sp,112
   1adb0:	abcff06f          	j	1a06c <_vfiprintf_r+0x364>
   1adb4:	02510ba3          	sb	t0,55(sp)
   1adb8:	82dff06f          	j	1a5e4 <_vfiprintf_r+0x8dc>
   1adbc:	02510ba3          	sb	t0,55(sp)
   1adc0:	ff0ff06f          	j	1a5b0 <_vfiprintf_r+0x8a8>

0001adc4 <vfiprintf>:
   1adc4:	00060693          	mv	a3,a2
   1adc8:	00058613          	mv	a2,a1
   1adcc:	00050593          	mv	a1,a0
   1add0:	8081a503          	lw	a0,-2040(gp) # 1de78 <_impure_ptr>
   1add4:	f35fe06f          	j	19d08 <_vfiprintf_r>

0001add8 <_calloc_r>:
   1add8:	02c585b3          	mul	a1,a1,a2
   1addc:	ff010113          	addi	sp,sp,-16
   1ade0:	00112623          	sw	ra,12(sp)
   1ade4:	00812423          	sw	s0,8(sp)
   1ade8:	cbdfc0ef          	jal	17aa4 <_malloc_r>
   1adec:	08050c63          	beqz	a0,1ae84 <_calloc_r+0xac>
   1adf0:	ffc52603          	lw	a2,-4(a0)
   1adf4:	02400713          	li	a4,36
   1adf8:	00050413          	mv	s0,a0
   1adfc:	ffc67613          	andi	a2,a2,-4
   1ae00:	ffc60613          	addi	a2,a2,-4
   1ae04:	04c76e63          	bltu	a4,a2,1ae60 <_calloc_r+0x88>
   1ae08:	01300693          	li	a3,19
   1ae0c:	00050793          	mv	a5,a0
   1ae10:	02c6f863          	bleu	a2,a3,1ae40 <_calloc_r+0x68>
   1ae14:	01b00793          	li	a5,27
   1ae18:	00052023          	sw	zero,0(a0)
   1ae1c:	00052223          	sw	zero,4(a0)
   1ae20:	04c7fe63          	bleu	a2,a5,1ae7c <_calloc_r+0xa4>
   1ae24:	00052423          	sw	zero,8(a0)
   1ae28:	00052623          	sw	zero,12(a0)
   1ae2c:	01050793          	addi	a5,a0,16
   1ae30:	00e61863          	bne	a2,a4,1ae40 <_calloc_r+0x68>
   1ae34:	00052823          	sw	zero,16(a0)
   1ae38:	01850793          	addi	a5,a0,24
   1ae3c:	00052a23          	sw	zero,20(a0)
   1ae40:	0007a023          	sw	zero,0(a5)
   1ae44:	0007a223          	sw	zero,4(a5)
   1ae48:	0007a423          	sw	zero,8(a5)
   1ae4c:	00040513          	mv	a0,s0
   1ae50:	00c12083          	lw	ra,12(sp)
   1ae54:	00812403          	lw	s0,8(sp)
   1ae58:	01010113          	addi	sp,sp,16
   1ae5c:	00008067          	ret
   1ae60:	00000593          	li	a1,0
   1ae64:	d74fd0ef          	jal	183d8 <memset>
   1ae68:	00c12083          	lw	ra,12(sp)
   1ae6c:	00040513          	mv	a0,s0
   1ae70:	00812403          	lw	s0,8(sp)
   1ae74:	01010113          	addi	sp,sp,16
   1ae78:	00008067          	ret
   1ae7c:	00850793          	addi	a5,a0,8
   1ae80:	fc1ff06f          	j	1ae40 <_calloc_r+0x68>
   1ae84:	00000513          	li	a0,0
   1ae88:	fc9ff06f          	j	1ae50 <_calloc_r+0x78>

0001ae8c <_fclose_r>:
   1ae8c:	0c058663          	beqz	a1,1af58 <_fclose_r+0xcc>
   1ae90:	ff010113          	addi	sp,sp,-16
   1ae94:	00912223          	sw	s1,4(sp)
   1ae98:	00050493          	mv	s1,a0
   1ae9c:	00812423          	sw	s0,8(sp)
   1aea0:	00112623          	sw	ra,12(sp)
   1aea4:	01212023          	sw	s2,0(sp)
   1aea8:	00058413          	mv	s0,a1
   1aeac:	fa9fb0ef          	jal	16e54 <__sfp_lock_acquire>
   1aeb0:	00048663          	beqz	s1,1aebc <_fclose_r+0x30>
   1aeb4:	0384a783          	lw	a5,56(s1)
   1aeb8:	0a078463          	beqz	a5,1af60 <_fclose_r+0xd4>
   1aebc:	00c41783          	lh	a5,12(s0)
   1aec0:	08078663          	beqz	a5,1af4c <_fclose_r+0xc0>
   1aec4:	00040593          	mv	a1,s0
   1aec8:	00048513          	mv	a0,s1
   1aecc:	989fb0ef          	jal	16854 <_fflush_r>
   1aed0:	02c42783          	lw	a5,44(s0)
   1aed4:	00050913          	mv	s2,a0
   1aed8:	00078a63          	beqz	a5,1aeec <_fclose_r+0x60>
   1aedc:	01c42583          	lw	a1,28(s0)
   1aee0:	00048513          	mv	a0,s1
   1aee4:	000780e7          	jalr	a5
   1aee8:	08054e63          	bltz	a0,1af84 <_fclose_r+0xf8>
   1aeec:	00c45783          	lhu	a5,12(s0)
   1aef0:	0807f793          	andi	a5,a5,128
   1aef4:	08079063          	bnez	a5,1af74 <_fclose_r+0xe8>
   1aef8:	03042583          	lw	a1,48(s0)
   1aefc:	00058c63          	beqz	a1,1af14 <_fclose_r+0x88>
   1af00:	04040793          	addi	a5,s0,64
   1af04:	00f58663          	beq	a1,a5,1af10 <_fclose_r+0x84>
   1af08:	00048513          	mv	a0,s1
   1af0c:	878fc0ef          	jal	16f84 <_free_r>
   1af10:	02042823          	sw	zero,48(s0)
   1af14:	04442583          	lw	a1,68(s0)
   1af18:	00058863          	beqz	a1,1af28 <_fclose_r+0x9c>
   1af1c:	00048513          	mv	a0,s1
   1af20:	864fc0ef          	jal	16f84 <_free_r>
   1af24:	04042223          	sw	zero,68(s0)
   1af28:	00041623          	sh	zero,12(s0)
   1af2c:	f2dfb0ef          	jal	16e58 <__sfp_lock_release>
   1af30:	00090513          	mv	a0,s2
   1af34:	00c12083          	lw	ra,12(sp)
   1af38:	00812403          	lw	s0,8(sp)
   1af3c:	00412483          	lw	s1,4(sp)
   1af40:	00012903          	lw	s2,0(sp)
   1af44:	01010113          	addi	sp,sp,16
   1af48:	00008067          	ret
   1af4c:	f0dfb0ef          	jal	16e58 <__sfp_lock_release>
   1af50:	00000513          	li	a0,0
   1af54:	fe1ff06f          	j	1af34 <_fclose_r+0xa8>
   1af58:	00000513          	li	a0,0
   1af5c:	00008067          	ret
   1af60:	00048513          	mv	a0,s1
   1af64:	ee1fb0ef          	jal	16e44 <__sinit>
   1af68:	00c41783          	lh	a5,12(s0)
   1af6c:	f4079ce3          	bnez	a5,1aec4 <_fclose_r+0x38>
   1af70:	fddff06f          	j	1af4c <_fclose_r+0xc0>
   1af74:	01042583          	lw	a1,16(s0)
   1af78:	00048513          	mv	a0,s1
   1af7c:	808fc0ef          	jal	16f84 <_free_r>
   1af80:	f79ff06f          	j	1aef8 <_fclose_r+0x6c>
   1af84:	fff00913          	li	s2,-1
   1af88:	f65ff06f          	j	1aeec <_fclose_r+0x60>

0001af8c <fclose>:
   1af8c:	00050593          	mv	a1,a0
   1af90:	8081a503          	lw	a0,-2040(gp) # 1de78 <_impure_ptr>
   1af94:	ef9ff06f          	j	1ae8c <_fclose_r>

0001af98 <__fputwc>:
   1af98:	fd010113          	addi	sp,sp,-48
   1af9c:	01312e23          	sw	s3,28(sp)
   1afa0:	80c1a983          	lw	s3,-2036(gp) # 1de7c <__mb_cur_max>
   1afa4:	00100793          	li	a5,1
   1afa8:	02812423          	sw	s0,40(sp)
   1afac:	01412c23          	sw	s4,24(sp)
   1afb0:	01512a23          	sw	s5,20(sp)
   1afb4:	02112623          	sw	ra,44(sp)
   1afb8:	02912223          	sw	s1,36(sp)
   1afbc:	03212023          	sw	s2,32(sp)
   1afc0:	01612823          	sw	s6,16(sp)
   1afc4:	00050a93          	mv	s5,a0
   1afc8:	00058a13          	mv	s4,a1
   1afcc:	00060413          	mv	s0,a2
   1afd0:	10f98063          	beq	s3,a5,1b0d0 <__fputwc+0x138>
   1afd4:	00c10493          	addi	s1,sp,12
   1afd8:	05c40693          	addi	a3,s0,92
   1afdc:	000a0613          	mv	a2,s4
   1afe0:	00048593          	mv	a1,s1
   1afe4:	000a8513          	mv	a0,s5
   1afe8:	1b4000ef          	jal	1b19c <_wcrtomb_r>
   1afec:	fff00793          	li	a5,-1
   1aff0:	00050993          	mv	s3,a0
   1aff4:	08f50863          	beq	a0,a5,1b084 <__fputwc+0xec>
   1aff8:	0e050a63          	beqz	a0,1b0ec <__fputwc+0x154>
   1affc:	00c14583          	lbu	a1,12(sp)
   1b000:	00000913          	li	s2,0
   1b004:	00a00b13          	li	s6,10
   1b008:	0280006f          	j	1b030 <__fputwc+0x98>
   1b00c:	00042783          	lw	a5,0(s0)
   1b010:	00b78023          	sb	a1,0(a5)
   1b014:	00042783          	lw	a5,0(s0)
   1b018:	00178793          	addi	a5,a5,1
   1b01c:	00f42023          	sw	a5,0(s0)
   1b020:	00190913          	addi	s2,s2,1
   1b024:	00148493          	addi	s1,s1,1
   1b028:	0d397263          	bleu	s3,s2,1b0ec <__fputwc+0x154>
   1b02c:	0004c583          	lbu	a1,0(s1)
   1b030:	00842783          	lw	a5,8(s0)
   1b034:	fff78793          	addi	a5,a5,-1
   1b038:	00f42423          	sw	a5,8(s0)
   1b03c:	fc07d8e3          	bgez	a5,1b00c <__fputwc+0x74>
   1b040:	01842703          	lw	a4,24(s0)
   1b044:	06e7ca63          	blt	a5,a4,1b0b8 <__fputwc+0x120>
   1b048:	00042783          	lw	a5,0(s0)
   1b04c:	00b78023          	sb	a1,0(a5)
   1b050:	00042783          	lw	a5,0(s0)
   1b054:	0007c703          	lbu	a4,0(a5)
   1b058:	00178793          	addi	a5,a5,1
   1b05c:	fd6710e3          	bne	a4,s6,1b01c <__fputwc+0x84>
   1b060:	00040613          	mv	a2,s0
   1b064:	000b0593          	mv	a1,s6
   1b068:	000a8513          	mv	a0,s5
   1b06c:	850fa0ef          	jal	150bc <__swbuf_r>
   1b070:	00150513          	addi	a0,a0,1
   1b074:	00153513          	seqz	a0,a0
   1b078:	fa0504e3          	beqz	a0,1b020 <__fputwc+0x88>
   1b07c:	fff00513          	li	a0,-1
   1b080:	0100006f          	j	1b090 <__fputwc+0xf8>
   1b084:	00c45783          	lhu	a5,12(s0)
   1b088:	0407e793          	ori	a5,a5,64
   1b08c:	00f41623          	sh	a5,12(s0)
   1b090:	02c12083          	lw	ra,44(sp)
   1b094:	02812403          	lw	s0,40(sp)
   1b098:	02412483          	lw	s1,36(sp)
   1b09c:	02012903          	lw	s2,32(sp)
   1b0a0:	01c12983          	lw	s3,28(sp)
   1b0a4:	01812a03          	lw	s4,24(sp)
   1b0a8:	01412a83          	lw	s5,20(sp)
   1b0ac:	01012b03          	lw	s6,16(sp)
   1b0b0:	03010113          	addi	sp,sp,48
   1b0b4:	00008067          	ret
   1b0b8:	00040613          	mv	a2,s0
   1b0bc:	000a8513          	mv	a0,s5
   1b0c0:	ffdf90ef          	jal	150bc <__swbuf_r>
   1b0c4:	00150513          	addi	a0,a0,1
   1b0c8:	00153513          	seqz	a0,a0
   1b0cc:	fadff06f          	j	1b078 <__fputwc+0xe0>
   1b0d0:	fff58793          	addi	a5,a1,-1
   1b0d4:	0fe00713          	li	a4,254
   1b0d8:	eef76ee3          	bltu	a4,a5,1afd4 <__fputwc+0x3c>
   1b0dc:	0ff5f593          	andi	a1,a1,255
   1b0e0:	00b10623          	sb	a1,12(sp)
   1b0e4:	00c10493          	addi	s1,sp,12
   1b0e8:	f19ff06f          	j	1b000 <__fputwc+0x68>
   1b0ec:	000a0513          	mv	a0,s4
   1b0f0:	fa1ff06f          	j	1b090 <__fputwc+0xf8>

0001b0f4 <_fputwc_r>:
   1b0f4:	00c61783          	lh	a5,12(a2)
   1b0f8:	00002737          	lui	a4,0x2
   1b0fc:	01279693          	slli	a3,a5,0x12
   1b100:	0006cc63          	bltz	a3,1b118 <_fputwc_r+0x24>
   1b104:	06462683          	lw	a3,100(a2)
   1b108:	00e7e7b3          	or	a5,a5,a4
   1b10c:	00f61623          	sh	a5,12(a2)
   1b110:	00e6e733          	or	a4,a3,a4
   1b114:	06e62223          	sw	a4,100(a2)
   1b118:	e81ff06f          	j	1af98 <__fputwc>

0001b11c <fputwc>:
   1b11c:	fe010113          	addi	sp,sp,-32
   1b120:	00812c23          	sw	s0,24(sp)
   1b124:	8081a783          	lw	a5,-2040(gp) # 1de78 <_impure_ptr>
   1b128:	00912a23          	sw	s1,20(sp)
   1b12c:	00112e23          	sw	ra,28(sp)
   1b130:	00050493          	mv	s1,a0
   1b134:	00058613          	mv	a2,a1
   1b138:	00078663          	beqz	a5,1b144 <fputwc+0x28>
   1b13c:	0387a703          	lw	a4,56(a5)
   1b140:	04070263          	beqz	a4,1b184 <fputwc+0x68>
   1b144:	00c61703          	lh	a4,12(a2)
   1b148:	000026b7          	lui	a3,0x2
   1b14c:	01271593          	slli	a1,a4,0x12
   1b150:	0005cc63          	bltz	a1,1b168 <fputwc+0x4c>
   1b154:	06462583          	lw	a1,100(a2)
   1b158:	00d76733          	or	a4,a4,a3
   1b15c:	00e61623          	sh	a4,12(a2)
   1b160:	00d5e6b3          	or	a3,a1,a3
   1b164:	06d62223          	sw	a3,100(a2)
   1b168:	00048593          	mv	a1,s1
   1b16c:	01c12083          	lw	ra,28(sp)
   1b170:	01812403          	lw	s0,24(sp)
   1b174:	01412483          	lw	s1,20(sp)
   1b178:	00078513          	mv	a0,a5
   1b17c:	02010113          	addi	sp,sp,32
   1b180:	e19ff06f          	j	1af98 <__fputwc>
   1b184:	00078513          	mv	a0,a5
   1b188:	00b12623          	sw	a1,12(sp)
   1b18c:	cb9fb0ef          	jal	16e44 <__sinit>
   1b190:	8081a783          	lw	a5,-2040(gp) # 1de78 <_impure_ptr>
   1b194:	00c12603          	lw	a2,12(sp)
   1b198:	fadff06f          	j	1b144 <fputwc+0x28>

0001b19c <_wcrtomb_r>:
   1b19c:	fd010113          	addi	sp,sp,-48
   1b1a0:	02812423          	sw	s0,40(sp)
   1b1a4:	02912223          	sw	s1,36(sp)
   1b1a8:	03212023          	sw	s2,32(sp)
   1b1ac:	02112623          	sw	ra,44(sp)
   1b1b0:	00050413          	mv	s0,a0
   1b1b4:	00068493          	mv	s1,a3
   1b1b8:	8181a903          	lw	s2,-2024(gp) # 1de88 <__wctomb>
   1b1bc:	04058a63          	beqz	a1,1b210 <_wcrtomb_r+0x74>
   1b1c0:	00b12623          	sw	a1,12(sp)
   1b1c4:	00c12423          	sw	a2,8(sp)
   1b1c8:	f04fc0ef          	jal	178cc <__locale_charset>
   1b1cc:	00812603          	lw	a2,8(sp)
   1b1d0:	00c12583          	lw	a1,12(sp)
   1b1d4:	00050693          	mv	a3,a0
   1b1d8:	00048713          	mv	a4,s1
   1b1dc:	00040513          	mv	a0,s0
   1b1e0:	000900e7          	jalr	s2
   1b1e4:	fff00793          	li	a5,-1
   1b1e8:	00f51863          	bne	a0,a5,1b1f8 <_wcrtomb_r+0x5c>
   1b1ec:	08a00793          	li	a5,138
   1b1f0:	0004a023          	sw	zero,0(s1)
   1b1f4:	00f42023          	sw	a5,0(s0)
   1b1f8:	02c12083          	lw	ra,44(sp)
   1b1fc:	02812403          	lw	s0,40(sp)
   1b200:	02412483          	lw	s1,36(sp)
   1b204:	02012903          	lw	s2,32(sp)
   1b208:	03010113          	addi	sp,sp,48
   1b20c:	00008067          	ret
   1b210:	ebcfc0ef          	jal	178cc <__locale_charset>
   1b214:	00050693          	mv	a3,a0
   1b218:	00048713          	mv	a4,s1
   1b21c:	00000613          	li	a2,0
   1b220:	01410593          	addi	a1,sp,20
   1b224:	00040513          	mv	a0,s0
   1b228:	000900e7          	jalr	s2
   1b22c:	fb9ff06f          	j	1b1e4 <_wcrtomb_r+0x48>

0001b230 <wcrtomb>:
   1b230:	fd010113          	addi	sp,sp,-48
   1b234:	02912223          	sw	s1,36(sp)
   1b238:	02112623          	sw	ra,44(sp)
   1b23c:	02812423          	sw	s0,40(sp)
   1b240:	03212023          	sw	s2,32(sp)
   1b244:	01312e23          	sw	s3,28(sp)
   1b248:	01412c23          	sw	s4,24(sp)
   1b24c:	01512a23          	sw	s5,20(sp)
   1b250:	00060493          	mv	s1,a2
   1b254:	06050663          	beqz	a0,1b2c0 <wcrtomb+0x90>
   1b258:	8081aa83          	lw	s5,-2040(gp) # 1de78 <_impure_ptr>
   1b25c:	8181aa03          	lw	s4,-2024(gp) # 1de88 <__wctomb>
   1b260:	00058993          	mv	s3,a1
   1b264:	00050413          	mv	s0,a0
   1b268:	e64fc0ef          	jal	178cc <__locale_charset>
   1b26c:	00050693          	mv	a3,a0
   1b270:	00048713          	mv	a4,s1
   1b274:	00098613          	mv	a2,s3
   1b278:	00040593          	mv	a1,s0
   1b27c:	000a8513          	mv	a0,s5
   1b280:	000a00e7          	jalr	s4
   1b284:	fff00793          	li	a5,-1
   1b288:	00f51a63          	bne	a0,a5,1b29c <wcrtomb+0x6c>
   1b28c:	8081a783          	lw	a5,-2040(gp) # 1de78 <_impure_ptr>
   1b290:	08a00713          	li	a4,138
   1b294:	0004a023          	sw	zero,0(s1)
   1b298:	00e7a023          	sw	a4,0(a5)
   1b29c:	02c12083          	lw	ra,44(sp)
   1b2a0:	02812403          	lw	s0,40(sp)
   1b2a4:	02412483          	lw	s1,36(sp)
   1b2a8:	02012903          	lw	s2,32(sp)
   1b2ac:	01c12983          	lw	s3,28(sp)
   1b2b0:	01812a03          	lw	s4,24(sp)
   1b2b4:	01412a83          	lw	s5,20(sp)
   1b2b8:	03010113          	addi	sp,sp,48
   1b2bc:	00008067          	ret
   1b2c0:	8081a983          	lw	s3,-2040(gp) # 1de78 <_impure_ptr>
   1b2c4:	8181a403          	lw	s0,-2024(gp) # 1de88 <__wctomb>
   1b2c8:	e04fc0ef          	jal	178cc <__locale_charset>
   1b2cc:	00050693          	mv	a3,a0
   1b2d0:	00048713          	mv	a4,s1
   1b2d4:	00000613          	li	a2,0
   1b2d8:	00410593          	addi	a1,sp,4
   1b2dc:	00098513          	mv	a0,s3
   1b2e0:	000400e7          	jalr	s0
   1b2e4:	fa1ff06f          	j	1b284 <wcrtomb+0x54>

0001b2e8 <__ascii_wctomb>:
   1b2e8:	00058c63          	beqz	a1,1b300 <__ascii_wctomb+0x18>
   1b2ec:	0ff00793          	li	a5,255
   1b2f0:	00c7ec63          	bltu	a5,a2,1b308 <__ascii_wctomb+0x20>
   1b2f4:	00c58023          	sb	a2,0(a1)
   1b2f8:	00100513          	li	a0,1
   1b2fc:	00008067          	ret
   1b300:	00000513          	li	a0,0
   1b304:	00008067          	ret
   1b308:	08a00793          	li	a5,138
   1b30c:	00f52023          	sw	a5,0(a0)
   1b310:	fff00513          	li	a0,-1
   1b314:	00008067          	ret

0001b318 <_wctomb_r>:
   1b318:	fe010113          	addi	sp,sp,-32
   1b31c:	00812c23          	sw	s0,24(sp)
   1b320:	8181a403          	lw	s0,-2024(gp) # 1de88 <__wctomb>
   1b324:	00112e23          	sw	ra,28(sp)
   1b328:	00912a23          	sw	s1,20(sp)
   1b32c:	01212823          	sw	s2,16(sp)
   1b330:	00050493          	mv	s1,a0
   1b334:	00068913          	mv	s2,a3
   1b338:	00b12623          	sw	a1,12(sp)
   1b33c:	00c12423          	sw	a2,8(sp)
   1b340:	d8cfc0ef          	jal	178cc <__locale_charset>
   1b344:	00050693          	mv	a3,a0
   1b348:	00090713          	mv	a4,s2
   1b34c:	00812603          	lw	a2,8(sp)
   1b350:	00c12583          	lw	a1,12(sp)
   1b354:	00048513          	mv	a0,s1
   1b358:	00040313          	mv	t1,s0
   1b35c:	01c12083          	lw	ra,28(sp)
   1b360:	01812403          	lw	s0,24(sp)
   1b364:	01412483          	lw	s1,20(sp)
   1b368:	01012903          	lw	s2,16(sp)
   1b36c:	02010113          	addi	sp,sp,32
   1b370:	00030067          	jr	t1

0001b374 <__syscall_error>:
   1b374:	ff010113          	addi	sp,sp,-16
   1b378:	00112623          	sw	ra,12(sp)
   1b37c:	00812423          	sw	s0,8(sp)
   1b380:	00050413          	mv	s0,a0
   1b384:	3b0000ef          	jal	1b734 <__errno>
   1b388:	00c12083          	lw	ra,12(sp)
   1b38c:	408007b3          	neg	a5,s0
   1b390:	00f52023          	sw	a5,0(a0)
   1b394:	00812403          	lw	s0,8(sp)
   1b398:	fff00513          	li	a0,-1
   1b39c:	01010113          	addi	sp,sp,16
   1b3a0:	00008067          	ret

0001b3a4 <open>:
   1b3a4:	00000693          	li	a3,0
   1b3a8:	40000893          	li	a7,1024
   1b3ac:	00000073          	ecall
   1b3b0:	fc0542e3          	bltz	a0,1b374 <__syscall_error>
   1b3b4:	00008067          	ret

0001b3b8 <openat>:
   1b3b8:	03800893          	li	a7,56
   1b3bc:	00000073          	ecall
   1b3c0:	fa054ae3          	bltz	a0,1b374 <__syscall_error>
   1b3c4:	00008067          	ret

0001b3c8 <lseek>:
   1b3c8:	00060593          	mv	a1,a2
   1b3cc:	00000693          	li	a3,0
   1b3d0:	00070613          	mv	a2,a4
   1b3d4:	03e00893          	li	a7,62
   1b3d8:	00000073          	ecall
   1b3dc:	f8054ce3          	bltz	a0,1b374 <__syscall_error>
   1b3e0:	41f55593          	srai	a1,a0,0x1f
   1b3e4:	00008067          	ret

0001b3e8 <read>:
   1b3e8:	00000693          	li	a3,0
   1b3ec:	03f00893          	li	a7,63
   1b3f0:	00000073          	ecall
   1b3f4:	f80540e3          	bltz	a0,1b374 <__syscall_error>
   1b3f8:	00008067          	ret

0001b3fc <write>:
   1b3fc:	00000693          	li	a3,0
   1b400:	04000893          	li	a7,64
   1b404:	00000073          	ecall
   1b408:	f60546e3          	bltz	a0,1b374 <__syscall_error>
   1b40c:	00008067          	ret

0001b410 <fstat>:
   1b410:	00000613          	li	a2,0
   1b414:	00000693          	li	a3,0
   1b418:	05000893          	li	a7,80
   1b41c:	00000073          	ecall
   1b420:	f4054ae3          	bltz	a0,1b374 <__syscall_error>
   1b424:	00008067          	ret

0001b428 <stat>:
   1b428:	00000613          	li	a2,0
   1b42c:	00000693          	li	a3,0
   1b430:	40e00893          	li	a7,1038
   1b434:	00000073          	ecall
   1b438:	f2054ee3          	bltz	a0,1b374 <__syscall_error>
   1b43c:	00008067          	ret

0001b440 <lstat>:
   1b440:	00000613          	li	a2,0
   1b444:	00000693          	li	a3,0
   1b448:	40f00893          	li	a7,1039
   1b44c:	00000073          	ecall
   1b450:	f20542e3          	bltz	a0,1b374 <__syscall_error>
   1b454:	00008067          	ret

0001b458 <fstatat>:
   1b458:	04f00893          	li	a7,79
   1b45c:	00000073          	ecall
   1b460:	f0054ae3          	bltz	a0,1b374 <__syscall_error>
   1b464:	00008067          	ret

0001b468 <access>:
   1b468:	00000613          	li	a2,0
   1b46c:	00000693          	li	a3,0
   1b470:	40900893          	li	a7,1033
   1b474:	00000073          	ecall
   1b478:	ee054ee3          	bltz	a0,1b374 <__syscall_error>
   1b47c:	00008067          	ret

0001b480 <faccessat>:
   1b480:	03000893          	li	a7,48
   1b484:	00000073          	ecall
   1b488:	ee0546e3          	bltz	a0,1b374 <__syscall_error>
   1b48c:	00008067          	ret

0001b490 <close>:
   1b490:	00000593          	li	a1,0
   1b494:	00000613          	li	a2,0
   1b498:	00000693          	li	a3,0
   1b49c:	03900893          	li	a7,57
   1b4a0:	00000073          	ecall
   1b4a4:	ec0548e3          	bltz	a0,1b374 <__syscall_error>
   1b4a8:	00008067          	ret

0001b4ac <link>:
   1b4ac:	00000613          	li	a2,0
   1b4b0:	00000693          	li	a3,0
   1b4b4:	40100893          	li	a7,1025
   1b4b8:	00000073          	ecall
   1b4bc:	ea054ce3          	bltz	a0,1b374 <__syscall_error>
   1b4c0:	00008067          	ret

0001b4c4 <unlink>:
   1b4c4:	00000593          	li	a1,0
   1b4c8:	00000613          	li	a2,0
   1b4cc:	00000693          	li	a3,0
   1b4d0:	40200893          	li	a7,1026
   1b4d4:	00000073          	ecall
   1b4d8:	e8054ee3          	bltz	a0,1b374 <__syscall_error>
   1b4dc:	00008067          	ret

0001b4e0 <execve>:
   1b4e0:	ff010113          	addi	sp,sp,-16
   1b4e4:	00112623          	sw	ra,12(sp)
   1b4e8:	24c000ef          	jal	1b734 <__errno>
   1b4ec:	00c12083          	lw	ra,12(sp)
   1b4f0:	00c00793          	li	a5,12
   1b4f4:	00f52023          	sw	a5,0(a0)
   1b4f8:	01010113          	addi	sp,sp,16
   1b4fc:	fff00513          	li	a0,-1
   1b500:	00008067          	ret

0001b504 <fork>:
   1b504:	ff010113          	addi	sp,sp,-16
   1b508:	00112623          	sw	ra,12(sp)
   1b50c:	228000ef          	jal	1b734 <__errno>
   1b510:	00c12083          	lw	ra,12(sp)
   1b514:	00b00793          	li	a5,11
   1b518:	00f52023          	sw	a5,0(a0)
   1b51c:	01010113          	addi	sp,sp,16
   1b520:	fff00513          	li	a0,-1
   1b524:	00008067          	ret

0001b528 <getpid>:
   1b528:	00100513          	li	a0,1
   1b52c:	00008067          	ret

0001b530 <kill>:
   1b530:	ff010113          	addi	sp,sp,-16
   1b534:	00112623          	sw	ra,12(sp)
   1b538:	1fc000ef          	jal	1b734 <__errno>
   1b53c:	00c12083          	lw	ra,12(sp)
   1b540:	01600793          	li	a5,22
   1b544:	00f52023          	sw	a5,0(a0)
   1b548:	01010113          	addi	sp,sp,16
   1b54c:	fff00513          	li	a0,-1
   1b550:	00008067          	ret

0001b554 <wait>:
   1b554:	ff010113          	addi	sp,sp,-16
   1b558:	00112623          	sw	ra,12(sp)
   1b55c:	1d8000ef          	jal	1b734 <__errno>
   1b560:	00c12083          	lw	ra,12(sp)
   1b564:	00a00793          	li	a5,10
   1b568:	00f52023          	sw	a5,0(a0)
   1b56c:	01010113          	addi	sp,sp,16
   1b570:	fff00513          	li	a0,-1
   1b574:	00008067          	ret

0001b578 <isatty>:
   1b578:	f8010113          	addi	sp,sp,-128
   1b57c:	00010593          	mv	a1,sp
   1b580:	00000613          	li	a2,0
   1b584:	00000693          	li	a3,0
   1b588:	05000893          	li	a7,80
   1b58c:	00000073          	ecall
   1b590:	de0542e3          	bltz	a0,1b374 <__syscall_error>
   1b594:	fff00793          	li	a5,-1
   1b598:	00f50863          	beq	a0,a5,1b5a8 <isatty+0x30>
   1b59c:	01012503          	lw	a0,16(sp)
   1b5a0:	00d55513          	srli	a0,a0,0xd
   1b5a4:	00157513          	andi	a0,a0,1
   1b5a8:	08010113          	addi	sp,sp,128
   1b5ac:	00008067          	ret

0001b5b0 <times>:
   1b5b0:	8d818293          	addi	t0,gp,-1832 # 1df48 <t0.2270>
   1b5b4:	0002a783          	lw	a5,0(t0)
   1b5b8:	0042a683          	lw	a3,4(t0)
   1b5bc:	ff010113          	addi	sp,sp,-16
   1b5c0:	00050813          	mv	a6,a0
   1b5c4:	00d7e7b3          	or	a5,a5,a3
   1b5c8:	02079063          	bnez	a5,1b5e8 <times+0x38>
   1b5cc:	8d818513          	addi	a0,gp,-1832 # 1df48 <t0.2270>
   1b5d0:	00000593          	li	a1,0
   1b5d4:	00000613          	li	a2,0
   1b5d8:	00000693          	li	a3,0
   1b5dc:	0a900893          	li	a7,169
   1b5e0:	00000073          	ecall
   1b5e4:	d80548e3          	bltz	a0,1b374 <__syscall_error>
   1b5e8:	00010513          	mv	a0,sp
   1b5ec:	00000593          	li	a1,0
   1b5f0:	00000613          	li	a2,0
   1b5f4:	00000693          	li	a3,0
   1b5f8:	0a900893          	li	a7,169
   1b5fc:	00000073          	ecall
   1b600:	d6054ae3          	bltz	a0,1b374 <__syscall_error>
   1b604:	0002a703          	lw	a4,0(t0)
   1b608:	00012783          	lw	a5,0(sp)
   1b60c:	fff00513          	li	a0,-1
   1b610:	00082623          	sw	zero,12(a6)
   1b614:	40e786b3          	sub	a3,a5,a4
   1b618:	000f47b7          	lui	a5,0xf4
   1b61c:	24078793          	addi	a5,a5,576 # f4240 <_end+0xd3ad0>
   1b620:	02f68733          	mul	a4,a3,a5
   1b624:	0082a683          	lw	a3,8(t0)
   1b628:	00812783          	lw	a5,8(sp)
   1b62c:	00082423          	sw	zero,8(a6)
   1b630:	00082223          	sw	zero,4(a6)
   1b634:	40d787b3          	sub	a5,a5,a3
   1b638:	01010113          	addi	sp,sp,16
   1b63c:	00f707b3          	add	a5,a4,a5
   1b640:	00f82023          	sw	a5,0(a6)
   1b644:	00008067          	ret

0001b648 <gettimeofday>:
   1b648:	00000593          	li	a1,0
   1b64c:	00000613          	li	a2,0
   1b650:	00000693          	li	a3,0
   1b654:	0a900893          	li	a7,169
   1b658:	00000073          	ecall
   1b65c:	d0054ce3          	bltz	a0,1b374 <__syscall_error>
   1b660:	00008067          	ret

0001b664 <ftime>:
   1b664:	00000713          	li	a4,0
   1b668:	00000793          	li	a5,0
   1b66c:	00051423          	sh	zero,8(a0)
   1b670:	00e52023          	sw	a4,0(a0)
   1b674:	00f52223          	sw	a5,4(a0)
   1b678:	00000513          	li	a0,0
   1b67c:	00008067          	ret

0001b680 <utime>:
   1b680:	fff00513          	li	a0,-1
   1b684:	00008067          	ret

0001b688 <chown>:
   1b688:	fff00513          	li	a0,-1
   1b68c:	00008067          	ret

0001b690 <chmod>:
   1b690:	fff00513          	li	a0,-1
   1b694:	00008067          	ret

0001b698 <chdir>:
   1b698:	fff00513          	li	a0,-1
   1b69c:	00008067          	ret

0001b6a0 <getcwd>:
   1b6a0:	00000513          	li	a0,0
   1b6a4:	00008067          	ret

0001b6a8 <sysconf>:
   1b6a8:	00200793          	li	a5,2
   1b6ac:	00f51863          	bne	a0,a5,1b6bc <sysconf+0x14>
   1b6b0:	000f4537          	lui	a0,0xf4
   1b6b4:	24050513          	addi	a0,a0,576 # f4240 <_end+0xd3ad0>
   1b6b8:	00008067          	ret
   1b6bc:	fff00513          	li	a0,-1
   1b6c0:	00008067          	ret

0001b6c4 <sbrk>:
   1b6c4:	88c1a703          	lw	a4,-1908(gp) # 1defc <heap_end.2308>
   1b6c8:	00050793          	mv	a5,a0
   1b6cc:	00071863          	bnez	a4,1b6dc <sbrk+0x18>
   1b6d0:	00020737          	lui	a4,0x20
   1b6d4:	77070713          	addi	a4,a4,1904 # 20770 <_end>
   1b6d8:	88e1a623          	sw	a4,-1908(gp) # 1defc <heap_end.2308>
   1b6dc:	00e78533          	add	a0,a5,a4
   1b6e0:	00000593          	li	a1,0
   1b6e4:	00000613          	li	a2,0
   1b6e8:	00000693          	li	a3,0
   1b6ec:	0d600893          	li	a7,214
   1b6f0:	00000073          	ecall
   1b6f4:	c80540e3          	bltz	a0,1b374 <__syscall_error>
   1b6f8:	88c1a683          	lw	a3,-1908(gp) # 1defc <heap_end.2308>
   1b6fc:	fff00713          	li	a4,-1
   1b700:	00d787b3          	add	a5,a5,a3
   1b704:	00f51663          	bne	a0,a5,1b710 <sbrk+0x4c>
   1b708:	88a1a623          	sw	a0,-1908(gp) # 1defc <heap_end.2308>
   1b70c:	00068713          	mv	a4,a3
   1b710:	00070513          	mv	a0,a4
   1b714:	00008067          	ret

0001b718 <_exit>:
   1b718:	00000593          	li	a1,0
   1b71c:	00000613          	li	a2,0
   1b720:	00000693          	li	a3,0
   1b724:	05d00893          	li	a7,93
   1b728:	00000073          	ecall
   1b72c:	c40544e3          	bltz	a0,1b374 <__syscall_error>
   1b730:	0000006f          	j	1b730 <_exit+0x18>

0001b734 <__errno>:
   1b734:	8081a503          	lw	a0,-2040(gp) # 1de78 <_impure_ptr>
   1b738:	00008067          	ret
