
/root/test4:     file format elf32-littleriscv


Disassembly of section .text:

0001108c <fab>:
   1108c:	fe010113          	addi	sp,sp,-32
   11090:	00112e23          	sw	ra,28(sp)
   11094:	00812c23          	sw	s0,24(sp)
   11098:	02010413          	addi	s0,sp,32
   1109c:	fea42623          	sw	a0,-20(s0)
   110a0:	fec42703          	lw	a4,-20(s0)
   110a4:	00100793          	li	a5,1
   110a8:	00f71663          	bne	a4,a5,110b4 <fab+0x28>
   110ac:	00100793          	li	a5,1
   110b0:	0200006f          	j	110d0 <fab+0x44>
   110b4:	fec42783          	lw	a5,-20(s0)
   110b8:	fff78793          	addi	a5,a5,-1
   110bc:	00078513          	mv	a0,a5
   110c0:	fcdff0ef          	jal	1108c <fab>
   110c4:	00050713          	mv	a4,a0
   110c8:	fec42783          	lw	a5,-20(s0)
   110cc:	00f707b3          	add	a5,a4,a5
   110d0:	00078513          	mv	a0,a5
   110d4:	01c12083          	lw	ra,28(sp)
   110d8:	01812403          	lw	s0,24(sp)
   110dc:	02010113          	addi	sp,sp,32
   110e0:	00008067          	ret

000110e4 <quick>:
   110e4:	fd010113          	addi	sp,sp,-48
   110e8:	02112623          	sw	ra,44(sp)
   110ec:	02812423          	sw	s0,40(sp)
   110f0:	03010413          	addi	s0,sp,48
   110f4:	fca42e23          	sw	a0,-36(s0)
   110f8:	fcb42c23          	sw	a1,-40(s0)
   110fc:	fcc42a23          	sw	a2,-44(s0)
   11100:	fdc42703          	lw	a4,-36(s0)
   11104:	fd842783          	lw	a5,-40(s0)
   11108:	16f75463          	ble	a5,a4,11270 <quick+0x18c>
   1110c:	fdc42783          	lw	a5,-36(s0)
   11110:	fef42623          	sw	a5,-20(s0)
   11114:	fd842783          	lw	a5,-40(s0)
   11118:	fef42423          	sw	a5,-24(s0)
   1111c:	fdc42783          	lw	a5,-36(s0)
   11120:	00279793          	slli	a5,a5,0x2
   11124:	fd442703          	lw	a4,-44(s0)
   11128:	00f707b3          	add	a5,a4,a5
   1112c:	0007a783          	lw	a5,0(a5)
   11130:	fef42223          	sw	a5,-28(s0)
   11134:	0e80006f          	j	1121c <quick+0x138>
   11138:	fe842783          	lw	a5,-24(s0)
   1113c:	fff78793          	addi	a5,a5,-1
   11140:	fef42423          	sw	a5,-24(s0)
   11144:	fec42703          	lw	a4,-20(s0)
   11148:	fe842783          	lw	a5,-24(s0)
   1114c:	02f75063          	ble	a5,a4,1116c <quick+0x88>
   11150:	fe842783          	lw	a5,-24(s0)
   11154:	00279793          	slli	a5,a5,0x2
   11158:	fd442703          	lw	a4,-44(s0)
   1115c:	00f707b3          	add	a5,a4,a5
   11160:	0007a703          	lw	a4,0(a5)
   11164:	fe442783          	lw	a5,-28(s0)
   11168:	fcf758e3          	ble	a5,a4,11138 <quick+0x54>
   1116c:	fec42703          	lw	a4,-20(s0)
   11170:	fe842783          	lw	a5,-24(s0)
   11174:	04f75263          	ble	a5,a4,111b8 <quick+0xd4>
   11178:	fec42783          	lw	a5,-20(s0)
   1117c:	00178713          	addi	a4,a5,1
   11180:	fee42623          	sw	a4,-20(s0)
   11184:	00279793          	slli	a5,a5,0x2
   11188:	fd442703          	lw	a4,-44(s0)
   1118c:	00f707b3          	add	a5,a4,a5
   11190:	fe842703          	lw	a4,-24(s0)
   11194:	00271713          	slli	a4,a4,0x2
   11198:	fd442683          	lw	a3,-44(s0)
   1119c:	00e68733          	add	a4,a3,a4
   111a0:	00072703          	lw	a4,0(a4)
   111a4:	00e7a023          	sw	a4,0(a5)
   111a8:	0100006f          	j	111b8 <quick+0xd4>
   111ac:	fec42783          	lw	a5,-20(s0)
   111b0:	00178793          	addi	a5,a5,1
   111b4:	fef42623          	sw	a5,-20(s0)
   111b8:	fec42703          	lw	a4,-20(s0)
   111bc:	fe842783          	lw	a5,-24(s0)
   111c0:	02f75063          	ble	a5,a4,111e0 <quick+0xfc>
   111c4:	fec42783          	lw	a5,-20(s0)
   111c8:	00279793          	slli	a5,a5,0x2
   111cc:	fd442703          	lw	a4,-44(s0)
   111d0:	00f707b3          	add	a5,a4,a5
   111d4:	0007a703          	lw	a4,0(a5)
   111d8:	fe442783          	lw	a5,-28(s0)
   111dc:	fcf748e3          	blt	a4,a5,111ac <quick+0xc8>
   111e0:	fec42703          	lw	a4,-20(s0)
   111e4:	fe842783          	lw	a5,-24(s0)
   111e8:	02f75a63          	ble	a5,a4,1121c <quick+0x138>
   111ec:	fe842783          	lw	a5,-24(s0)
   111f0:	fff78713          	addi	a4,a5,-1
   111f4:	fee42423          	sw	a4,-24(s0)
   111f8:	00279793          	slli	a5,a5,0x2
   111fc:	fd442703          	lw	a4,-44(s0)
   11200:	00f707b3          	add	a5,a4,a5
   11204:	fec42703          	lw	a4,-20(s0)
   11208:	00271713          	slli	a4,a4,0x2
   1120c:	fd442683          	lw	a3,-44(s0)
   11210:	00e68733          	add	a4,a3,a4
   11214:	00072703          	lw	a4,0(a4)
   11218:	00e7a023          	sw	a4,0(a5)
   1121c:	fec42703          	lw	a4,-20(s0)
   11220:	fe842783          	lw	a5,-24(s0)
   11224:	f2f740e3          	blt	a4,a5,11144 <quick+0x60>
   11228:	fec42783          	lw	a5,-20(s0)
   1122c:	00279793          	slli	a5,a5,0x2
   11230:	fd442703          	lw	a4,-44(s0)
   11234:	00f707b3          	add	a5,a4,a5
   11238:	fe442703          	lw	a4,-28(s0)
   1123c:	00e7a023          	sw	a4,0(a5)
   11240:	fec42783          	lw	a5,-20(s0)
   11244:	fff78793          	addi	a5,a5,-1
   11248:	fd442603          	lw	a2,-44(s0)
   1124c:	00078593          	mv	a1,a5
   11250:	fdc42503          	lw	a0,-36(s0)
   11254:	e91ff0ef          	jal	110e4 <quick>
   11258:	fec42783          	lw	a5,-20(s0)
   1125c:	00178793          	addi	a5,a5,1
   11260:	fd442603          	lw	a2,-44(s0)
   11264:	fd842583          	lw	a1,-40(s0)
   11268:	00078513          	mv	a0,a5
   1126c:	e79ff0ef          	jal	110e4 <quick>
   11270:	00000013          	nop
   11274:	02c12083          	lw	ra,44(sp)
   11278:	02812403          	lw	s0,40(sp)
   1127c:	03010113          	addi	sp,sp,48
   11280:	00008067          	ret

00011284 <main>:
   11284:	fd010113          	addi	sp,sp,-48
   11288:	02112623          	sw	ra,44(sp)
   1128c:	02812423          	sw	s0,40(sp)
   11290:	03010413          	addi	s0,sp,48
   11294:	00500793          	li	a5,5
   11298:	fcf42e23          	sw	a5,-36(s0)
   1129c:	00400793          	li	a5,4
   112a0:	fef42023          	sw	a5,-32(s0)
   112a4:	00700793          	li	a5,7
   112a8:	fef42223          	sw	a5,-28(s0)
   112ac:	00200793          	li	a5,2
   112b0:	fef42423          	sw	a5,-24(s0)
   112b4:	fe042623          	sw	zero,-20(s0)
   112b8:	fdc40793          	addi	a5,s0,-36
   112bc:	00078613          	mv	a2,a5
   112c0:	00400593          	li	a1,4
   112c4:	00000513          	li	a0,0
   112c8:	e1dff0ef          	jal	110e4 <quick>
   112cc:	fdc42703          	lw	a4,-36(s0)
   112d0:	80e1a223          	sw	a4,-2044(gp) # 10078 <SORT>
   112d4:	fe042703          	lw	a4,-32(s0)
   112d8:	80418793          	addi	a5,gp,-2044 # 10078 <SORT>
   112dc:	00e7a223          	sw	a4,4(a5)
   112e0:	fe442703          	lw	a4,-28(s0)
   112e4:	80418793          	addi	a5,gp,-2044 # 10078 <SORT>
   112e8:	00e7a423          	sw	a4,8(a5)
   112ec:	fe842703          	lw	a4,-24(s0)
   112f0:	80418793          	addi	a5,gp,-2044 # 10078 <SORT>
   112f4:	00e7a623          	sw	a4,12(a5)
   112f8:	fec42703          	lw	a4,-20(s0)
   112fc:	80418793          	addi	a5,gp,-2044 # 10078 <SORT>
   11300:	00e7a823          	sw	a4,16(a5)
   11304:	01400513          	li	a0,20
   11308:	d85ff0ef          	jal	1108c <fab>
   1130c:	00050713          	mv	a4,a0
   11310:	80e1a023          	sw	a4,-2048(gp) # 10074 <ANS>
   11314:	00000793          	li	a5,0
   11318:	00078513          	mv	a0,a5
   1131c:	02c12083          	lw	ra,44(sp)
   11320:	02812403          	lw	s0,40(sp)
   11324:	03010113          	addi	sp,sp,48
   11328:	00008067          	ret
